 dsiPlayer

 Timestamp is 3cc719fb (Wed Apr 24 22:47:55 2002)

 Preferred load address is 10000000

 Start         Length     Name                   Class
 0001:00000000 00036aefH .text                   CODE
 0001:00036af0 000010adH .text$x                 CODE
 0001:00037b9d 00016003H .textbss                CODE
 0002:00000000 00031422H .rdata                  DATA
 0002:00031428 000001ebH .xdata$x                DATA
 0002:00031620 000001deH .edata                  DATA
 0003:00000000 00000104H .CRT$XCA                DATA
 0003:00000104 00000104H .CRT$XCZ                DATA
 0003:00000208 00000104H .CRT$XIA                DATA
 0003:0000030c 00000109H .CRT$XIC                DATA
 0003:00000418 00000104H .CRT$XIY                DATA
 0003:0000051c 00000104H .CRT$XIZ                DATA
 0003:00000620 00000104H .CRT$XPA                DATA
 0003:00000724 00000104H .CRT$XPX                DATA
 0003:00000828 00000104H .CRT$XPZ                DATA
 0003:0000092c 00000104H .CRT$XTA                DATA
 0003:00000a30 00000104H .CRT$XTB                DATA
 0003:00000b34 00000104H .CRT$XTZ                DATA
 0003:00000c40 00004476H .data                   DATA
 0003:000050b8 00001d30H .bss                    DATA
 0004:00000000 00000064H .idata$2                DATA
 0004:00000064 00000014H .idata$3                DATA
 0004:00000078 000002d0H .idata$4                DATA
 0004:00000348 000002d0H .idata$5                DATA
 0004:00000618 00000930H .idata$6                DATA

  Address         Publics by Value              Rva+Base     Lib:Object

 0001:000002b0       _DllMain@12                100012b0 f   dsiPlayer.obj
 0001:000002e0       ?DSIP_Init@@YAXPAUHWND__@@@Z 100012e0 f   dsiPlayer.obj
 0001:00000420       ?DSIP_Open@@YAHPAD@Z       10001420 f   dsiPlayer.obj
 0001:00000560       ?DSIP_Play@@YAJXZ          10001560 f   dsiPlayer.obj
 0001:00000680       ?DSIP_Pause@@YAXXZ         10001680 f   dsiPlayer.obj
 0001:000006c0       ?DSIP_Stop@@YAXXZ          100016c0 f   dsiPlayer.obj
 0001:00000720       ?DSIP_IsAudioPlaying@@YAHXZ 10001720 f   dsiPlayer.obj
 0001:00000780       ??0CSoundManager@@QAE@XZ   10001780 f   dsutil.obj
 0001:000007c0       ??1CSoundManager@@QAE@XZ   100017c0 f   dsutil.obj
 0001:00000830       ?Initialize@CSoundManager@@QAEJPAUHWND__@@KKKK@Z 10001830 f   dsutil.obj
 0001:000009a0       ?SetPrimaryBufferFormat@CSoundManager@@QAEJKKK@Z 100019a0 f   dsutil.obj
 0001:00000ba0       ?Get3DListenerInterface@CSoundManager@@QAEJPAPAUIDirectSound3DListener@@@Z 10001ba0 f   dsutil.obj
 0001:00000d60       ?Create@CSoundManager@@QAEJPAPAVCSound@@PADKU_GUID@@K@Z 10001d60 f   dsutil.obj
 0001:00001170       ??_GCWaveFile@@QAEPAXI@Z   10002170 f i dsutil.obj
 0001:000011e0       ?CreateFromMemory@CSoundManager@@QAEJPAPAVCSound@@PAEKPAUtWAVEFORMATEX@@KU_GUID@@K@Z 100021e0 f   dsutil.obj
 0001:00001570       ?CreateStreaming@CSoundManager@@QAEJPAPAVCStreamingSound@@PADKU_GUID@@KKPAX@Z 10002570 f   dsutil.obj
 0001:00001a40       ??0CSound@@QAE@PAPAUIDirectSoundBuffer@@KKPAVCWaveFile@@@Z 10002a40 f   dsutil.obj
 0001:00001b80       ??_ECSound@@UAEPAXI@Z      10002b80 f i dsutil.obj
 0001:00001b80       ??_GCSound@@UAEPAXI@Z      10002b80 f i dsutil.obj
 0001:00001bf0       ??1CSound@@UAE@XZ          10002bf0 f   dsutil.obj
 0001:00001d40       ?FillBufferWithSound@CSound@@QAEJPAUIDirectSoundBuffer@@H@Z 10002d40 f   dsutil.obj
 0001:00002080       ?RestoreBuffer@CSound@@IAEJPAUIDirectSoundBuffer@@PAH@Z 10003080 f   dsutil.obj
 0001:000021b0       ?GetFreeBuffer@CSound@@QAEPAUIDirectSoundBuffer@@XZ 100031b0 f   dsutil.obj
 0001:000022c0       ?GetBuffer@CSound@@QAEPAUIDirectSoundBuffer@@K@Z 100032c0 f   dsutil.obj
 0001:00002330       ?Get3DBufferInterface@CSound@@QAEJKPAPAUIDirectSound3DBuffer@@@Z 10003330 f   dsutil.obj
 0001:000023e0       ?Play@CSound@@QAEJKK@Z     100033e0 f   dsutil.obj
 0001:00002550       ?Stop@CSound@@QAEJXZ       10003550 f   dsutil.obj
 0001:00002610       ?Reset@CSound@@QAEJXZ      10003610 f   dsutil.obj
 0001:000026d0       ?IsSoundPlaying@CSound@@QAEHXZ 100036d0 f   dsutil.obj
 0001:000027c0       ??0CStreamingSound@@QAE@PAUIDirectSoundBuffer@@KPAVCWaveFile@@K@Z 100037c0 f   dsutil.obj
 0001:00002870       ??_ECStreamingSound@@UAEPAXI@Z 10003870 f i dsutil.obj
 0001:00002870       ??_GCStreamingSound@@UAEPAXI@Z 10003870 f i dsutil.obj
 0001:000028e0       ??1CStreamingSound@@UAE@XZ 100038e0 f   dsutil.obj
 0001:00002930       ?HandleWaveStreamNotification@CStreamingSound@@QAEJH@Z 10003930 f   dsutil.obj
 0001:00002e50       ?Reset@CStreamingSound@@QAEJXZ 10003e50 f   dsutil.obj
 0001:00002fc0       ??0CWaveFile@@QAE@XZ       10003fc0 f   dsutil.obj
 0001:00003040       ??1CWaveFile@@QAE@XZ       10004040 f   dsutil.obj
 0001:000030c0       ?Open@CWaveFile@@QAEJPADPAUtWAVEFORMATEX@@K@Z 100040c0 f   dsutil.obj
 0001:000035a0       ?OpenFromMemory@CWaveFile@@QAEJPAEKPAUtWAVEFORMATEX@@K@Z 100045a0 f   dsutil.obj
 0001:00003640       ?ReadMMIO@CWaveFile@@IAEJXZ 10004640 f   dsutil.obj
 0001:00003ad0       ?GetSize@CWaveFile@@QAEKXZ 10004ad0 f   dsutil.obj
 0001:00003b10       ?ResetFile@CWaveFile@@QAEJXZ 10004b10 f   dsutil.obj
 0001:00003d40       ?Read@CWaveFile@@QAEJPAEKPAK@Z 10004d40 f   dsutil.obj
 0001:00004070       ?Close@CWaveFile@@QAEJXZ   10005070 f   dsutil.obj
 0001:00004400       ?WriteMMIO@CWaveFile@@IAEJPAUtWAVEFORMATEX@@@Z 10005400 f   dsutil.obj
 0001:00004780       ?Write@CWaveFile@@QAEJIPAEPAI@Z 10005780 f   dsutil.obj
 0001:00004900       ?DXUtil_GetDXSDKMediaPath@@YAPBDXZ 10005900 f   dxutil.obj
 0001:00004a00       ?DXUtil_FindMediaFile@@YAJPAD0@Z 10005a00 f   dxutil.obj
 0001:00004c30       ?DXUtil_ReadStringRegKey@@YAJPAUHKEY__@@PAD1K1@Z 10005c30 f   dxutil.obj
 0001:00004cb0       ?DXUtil_WriteStringRegKey@@YAJPAUHKEY__@@PAD1@Z 10005cb0 f   dxutil.obj
 0001:00004d30       ?DXUtil_ReadIntRegKey@@YAJPAUHKEY__@@PADPAKK@Z 10005d30 f   dxutil.obj
 0001:00004db0       ?DXUtil_WriteIntRegKey@@YAJPAUHKEY__@@PADK@Z 10005db0 f   dxutil.obj
 0001:00004e20       ?DXUtil_ReadBoolRegKey@@YAJPAUHKEY__@@PADPAHH@Z 10005e20 f   dxutil.obj
 0001:00004ea0       ?DXUtil_WriteBoolRegKey@@YAJPAUHKEY__@@PADH@Z 10005ea0 f   dxutil.obj
 0001:00004f10       ?DXUtil_ReadGuidRegKey@@YAJPAUHKEY__@@PADPAU_GUID@@AAU2@@Z 10005f10 f   dxutil.obj
 0001:00004fb0       ?DXUtil_WriteGuidRegKey@@YAJPAUHKEY__@@PADU_GUID@@@Z 10005fb0 f   dxutil.obj
 0001:00005020       ?DXUtil_Timer@@YGMW4TIMER_COMMAND@@@Z 10006020 f   dxutil.obj
 0001:000055b0       ?DXUtil_ConvertAnsiStringToWide@@YAXPAGPBDH@Z 100065b0 f   dxutil.obj
 0001:00005650       ?DXUtil_ConvertWideStringToAnsi@@YAXPADPBGH@Z 10006650 f   dxutil.obj
 0001:00005700       ?DXUtil_ConvertGenericStringToAnsi@@YAXPADPBDH@Z 10006700 f   dxutil.obj
 0001:00005790       ?DXUtil_ConvertGenericStringToWide@@YAXPAGPBDH@Z 10006790 f   dxutil.obj
 0001:00005800       ?DXUtil_ConvertAnsiStringToGeneric@@YAXPADPBDH@Z 10006800 f   dxutil.obj
 0001:00005890       ?DXUtil_ConvertWideStringToGeneric@@YAXPADPBGH@Z 10006890 f   dxutil.obj
 0001:00005900       ?_DbgOut@@YAJPADKJ0@Z      10006900 f   dxutil.obj
 0001:00005a10       ?DXUtil_Trace@@YAXPADZZ    10006a10 f   dxutil.obj
 0001:00005ab0       ?DXUtil_ConvertStringToGUID@@YAHPBDPAU_GUID@@@Z 10006ab0 f   dxutil.obj
 0001:00005bd0       ?DXUtil_ConvertGUIDToString@@YAXPBU_GUID@@PAD@Z 10006bd0 f   dxutil.obj
 0001:00005c93       _DXGetErrorString8A@4      10006c93 f   dxerr8:dxerr8.obj
 0001:00008621       _DXGetErrorString8W@4      10009621 f   dxerr8:dxerr8.obj
 0001:0000afaf       _DXGetErrorDescription8A@4 1000bfaf f   dxerr8:dxerr8.obj
 0001:0000d8a2       _DXGetErrorDescription8W@4 1000e8a2 f   dxerr8:dxerr8.obj
 0001:00010195       _DXTraceW@20               10011195 f   dxerr8:dxerr8.obj
 0001:000102ed       _DXTraceA@20               100112ed f   dxerr8:dxerr8.obj
 0001:0001044e       _mmioClose@8               1001144e f   winmm:WINMM.dll
 0001:00010454       _mmioOpenA@12              10011454 f   winmm:WINMM.dll
 0001:0001045a       _mmioAscend@12             1001145a f   winmm:WINMM.dll
 0001:00010460       _mmioRead@12               10011460 f   winmm:WINMM.dll
 0001:00010466       _mmioDescend@16            10011466 f   winmm:WINMM.dll
 0001:0001046c       _mmioGetInfo@12            1001146c f   winmm:WINMM.dll
 0001:00010472       _mmioCreateChunk@12        10011472 f   winmm:WINMM.dll
 0001:00010478       _mmioSeek@12               10011478 f   winmm:WINMM.dll
 0001:0001047e       _mmioSetInfo@12            1001147e f   winmm:WINMM.dll
 0001:00010484       _mmioAdvance@12            10011484 f   winmm:WINMM.dll
 0001:0001048a       _mmioWrite@12              1001148a f   winmm:WINMM.dll
 0001:00010490       _timeGetTime@0             10011490 f   winmm:WINMM.dll
 0001:00010496       _DirectSoundCreate8@12     10011496 f   dsound:DSOUND.dll
 0001:0001049c       _Sleep@4                   1001149c f   kernel32:KERNEL32.dll
 0001:000104a2       _LockResource@4            100114a2 f   kernel32:KERNEL32.dll
 0001:000104a8       _SizeofResource@8          100114a8 f   kernel32:KERNEL32.dll
 0001:000104ae       _LoadResource@8            100114ae f   kernel32:KERNEL32.dll
 0001:000104b4       _FindResourceA@12          100114b4 f   kernel32:KERNEL32.dll
 0001:000104ba       _CloseHandle@4             100114ba f   kernel32:KERNEL32.dll
 0001:000104c0       _CreateFileA@28            100114c0 f   kernel32:KERNEL32.dll
 0001:000104c6       _GetFullPathNameA@16       100114c6 f   kernel32:KERNEL32.dll
 0001:000104cc       _QueryPerformanceCounter@4 100114cc f   kernel32:KERNEL32.dll
 0001:000104d2       _QueryPerformanceFrequency@4 100114d2 f   kernel32:KERNEL32.dll
 0001:000104d8       _MultiByteToWideChar@24    100114d8 f   kernel32:KERNEL32.dll
 0001:000104de       _WideCharToMultiByte@32    100114de f   kernel32:KERNEL32.dll
 0001:000104e4       _OutputDebugStringA@4      100114e4 f   kernel32:KERNEL32.dll
 0001:000104ea       _OutputDebugStringW@4      100114ea f   kernel32:KERNEL32.dll
 0001:000104f0       _MessageBoxA@16            100114f0 f   user32:USER32.dll
 0001:000104f6       _wsprintfA                 100114f6 f   user32:USER32.dll
 0001:000104fc       _MessageBoxW@16            100114fc f   user32:USER32.dll
 0001:00010502       _RegCloseKey@4             10011502 f   advapi32:ADVAPI32.dll
 0001:00010508       _RegQueryValueExA@24       10011508 f   advapi32:ADVAPI32.dll
 0001:0001050e       _RegOpenKeyExA@20          1001150e f   advapi32:ADVAPI32.dll
 0001:00010514       _RegSetValueExA@24         10011514 f   advapi32:ADVAPI32.dll
 0001:00010520       ??3@YAXPAX@Z               10011520 f   LIBCMTD:dbgdel.obj
 0001:000105d0       ??2@YAPAXI@Z               100115d0 f   LIBCMTD:new.obj
 0001:000105f0       ?_JumpToContinuation@@YGXPAXPAUEHRegistrationNode@@@Z 100115f0 f   LIBCMTD:trnsctrl.obj
 0001:00010630       ?_CallMemberFunction0@@YGXPAX0@Z 10011630 f   LIBCMTD:trnsctrl.obj
 0001:00010640       ?_CallMemberFunction1@@YGXPAX00@Z 10011640 f   LIBCMTD:trnsctrl.obj
 0001:00010650       ?_CallMemberFunction2@@YGXPAX00H@Z 10011650 f   LIBCMTD:trnsctrl.obj
 0001:00010660       ?_UnwindNestedFrames@@YGXPAUEHRegistrationNode@@PAUEHExceptionRecord@@@Z 10011660 f   LIBCMTD:trnsctrl.obj
 0001:000106c0       ___CxxFrameHandler         100116c0 f   LIBCMTD:trnsctrl.obj
 0001:00010700       ___CxxLongjmpUnwind@4      10011700 f   LIBCMTD:trnsctrl.obj
 0001:00010730       ?_CallCatchBlock2@@YAPAXPAUEHRegistrationNode@@PBU_s_FuncInfo@@PAXHK@Z 10011730 f   LIBCMTD:trnsctrl.obj
 0001:000107e0       ?_CallSETranslator@@YAHPAUEHExceptionRecord@@PAUEHRegistrationNode@@PAX2PBU_s_FuncInfo@@H1@Z 100117e0 f   LIBCMTD:trnsctrl.obj
 0001:00010940       ?_GetRangeOfTrysToCheck@@YAPBU_s_TryBlockMapEntry@@PBU_s_FuncInfo@@HHPAI1@Z 10011940 f   LIBCMTD:trnsctrl.obj
 0001:000109d0       __global_unwind2           100119d0 f   LIBCMTD:exsup.obj
 0001:00010a12       __local_unwind2            10011a12 f   LIBCMTD:exsup.obj
 0001:00010a6a       __NLG_Return2              10011a6a f   LIBCMTD:exsup.obj
 0001:00010a7a       __abnormal_termination     10011a7a f   LIBCMTD:exsup.obj
 0001:00010a9d       __NLG_Notify1              10011a9d f   LIBCMTD:exsup.obj
 0001:00010aa6       __NLG_Notify               10011aa6 f   LIBCMTD:exsup.obj
 0001:00010ab9       __NLG_Dispatch             10011ab9 f   LIBCMTD:exsup.obj
 0001:00010ac0       __chkesp                   10011ac0 f   LIBCMTD:chkesp.obj
 0001:00010b00       _memset                    10011b00 f   LIBCMTD:memset.obj
 0001:00010b60       _srand                     10011b60 f   LIBCMTD:rand.obj
 0001:00010b70       _rand                      10011b70 f   LIBCMTD:rand.obj
 0001:00010bb0       _memcpy                    10011bb0 f   LIBCMTD:memcpy.obj
 0001:00010ef0       _strcpy                    10011ef0 f   LIBCMTD:strcat.obj
 0001:00010f00       _strcat                    10011f00 f   LIBCMTD:strcat.obj
 0001:00010fe0       _sprintf                   10011fe0 f   LIBCMTD:sprintf.obj
 0001:000110e0       _strlen                    100120e0 f   LIBCMTD:strlen.obj
 0001:00011160       __fpmath                   10012160 f   LIBCMTD:fpinit.obj
 0001:00011190       __fpclear                  10012190 f   LIBCMTD:fpinit.obj
 0001:000111a0       __cfltcvt_init             100121a0 f   LIBCMTD:fpinit.obj
 0001:000111f0       ___setfflag                100121f0 f   LIBCMTD:fpinit.obj
 0001:00011210       __alldiv                   10012210 f   LIBCMTD:lldiv.obj
 0001:000112c0       _wcslen                    100122c0 f   LIBCMTD:wcslen.obj
 0001:000112f0       _strncpy                   100122f0 f   LIBCMTD:strncpy.obj
 0001:000113f0       __vsnprintf                100123f0 f   LIBCMTD:vsnprint.obj
 0001:000114f0       _sscanf                    100124f0 f   LIBCMTD:sscanf.obj
 0001:000115b0       __CRT_INIT@12              100125b0 f   LIBCMTD:dllcrt0.obj
 0001:000116f0       __DllMainCRTStartup@12     100126f0 f   LIBCMTD:dllcrt0.obj
 0001:000117f0       __amsg_exit                100127f0 f   LIBCMTD:dllcrt0.obj
 0001:00011830       _swprintf                  10012830 f   LIBCMTD:swprintf.obj
 0001:00011980       __alloca_probe             10012980 f   LIBCMTD:chkstk.obj
 0001:00011980       __chkstk                   10012980 f   LIBCMTD:chkstk.obj
 0001:000119b0       __mtinitlocks              100129b0 f   LIBCMTD:mlock.obj
 0001:000119f0       __mtdeletelocks            100129f0 f   LIBCMTD:mlock.obj
 0001:00011a90       __lock                     10012a90 f   LIBCMTD:mlock.obj
 0001:00011b30       __unlock                   10012b30 f   LIBCMTD:mlock.obj
 0001:00011b50       __lockerr_exit             10012b50 f   LIBCMTD:mlock.obj
 0001:00011b70       _malloc                    10012b70 f   LIBCMTD:dbgheap.obj
 0001:00011ba0       __malloc_dbg               10012ba0 f   LIBCMTD:dbgheap.obj
 0001:00011bd0       __nh_malloc                10012bd0 f   LIBCMTD:dbgheap.obj
 0001:00011bf0       __nh_malloc_dbg            10012bf0 f   LIBCMTD:dbgheap.obj
 0001:00011c90       __heap_alloc               10012c90 f   LIBCMTD:dbgheap.obj
 0001:00011cb0       __heap_alloc_dbg           10012cb0 f   LIBCMTD:dbgheap.obj
 0001:00011fd0       _calloc                    10012fd0 f   LIBCMTD:dbgheap.obj
 0001:00012000       __calloc_dbg               10013000 f   LIBCMTD:dbgheap.obj
 0001:00012060       _realloc                   10013060 f   LIBCMTD:dbgheap.obj
 0001:00012090       __realloc_dbg              10013090 f   LIBCMTD:dbgheap.obj
 0001:00012640       __expand                   10013640 f   LIBCMTD:dbgheap.obj
 0001:00012670       __expand_dbg               10013670 f   LIBCMTD:dbgheap.obj
 0001:00012700       _free                      10013700 f   LIBCMTD:dbgheap.obj
 0001:00012720       __free_lk                  10013720 f   LIBCMTD:dbgheap.obj
 0001:00012740       __free_dbg                 10013740 f   LIBCMTD:dbgheap.obj
 0001:000127b0       __free_dbg_lk              100137b0 f   LIBCMTD:dbgheap.obj
 0001:00012ba0       __msize                    10013ba0 f   LIBCMTD:dbgheap.obj
 0001:00012bc0       __msize_dbg                10013bc0 f   LIBCMTD:dbgheap.obj
 0001:00012d50       __CrtSetBreakAlloc         10013d50 f   LIBCMTD:dbgheap.obj
 0001:00012d70       __CrtSetDbgBlockType       10013d70 f   LIBCMTD:dbgheap.obj
 0001:00012e50       __CrtSetAllocHook          10013e50 f   LIBCMTD:dbgheap.obj
 0001:00012f00       __CrtCheckMemory           10013f00 f   LIBCMTD:dbgheap.obj
 0001:000132b0       __CrtSetDbgFlag            100142b0 f   LIBCMTD:dbgheap.obj
 0001:000132e0       __CrtDoForAllClientObjects 100142e0 f   LIBCMTD:dbgheap.obj
 0001:00013390       __CrtIsValidPointer        10014390 f   LIBCMTD:dbgheap.obj
 0001:000133e0       __CrtIsValidHeapPointer    100143e0 f   LIBCMTD:dbgheap.obj
 0001:00013510       __CrtIsMemoryBlock         10014510 f   LIBCMTD:dbgheap.obj
 0001:00013640       __CrtSetDumpClient         10014640 f   LIBCMTD:dbgheap.obj
 0001:00013660       __CrtMemCheckpoint         10014660 f   LIBCMTD:dbgheap.obj
 0001:00013810       __CrtMemDifference         10014810 f   LIBCMTD:dbgheap.obj
 0001:00013940       __CrtMemDumpAllObjectsSince 10014940 f   LIBCMTD:dbgheap.obj
 0001:00013d60       __CrtDumpMemoryLeaks       10014d60 f   LIBCMTD:dbgheap.obj
 0001:00013de0       __CrtMemDumpStatistics     10014de0 f   LIBCMTD:dbgheap.obj
 0001:00013eb0       __CrtDbgBreak              10014eb0 f   LIBCMTD:dbgrpt.obj
 0001:00013ec0       __CrtSetReportMode         10014ec0 f   LIBCMTD:dbgrpt.obj
 0001:00013f20       __CrtSetReportFile         10014f20 f   LIBCMTD:dbgrpt.obj
 0001:00013fa0       __CrtSetReportHook         10014fa0 f   LIBCMTD:dbgrpt.obj
 0001:00013fc0       __CrtDbgReport             10014fc0 f   LIBCMTD:dbgrpt.obj
 0001:00014660       ___InternalCxxFrameHandler 10015660 f   LIBCMTD:frame.obj
 0001:00014bd0       ___FrameUnwindToState      10015bd0 f   LIBCMTD:frame.obj
 0001:000151e0       ?_DestructExceptionObject@@YAXPAUEHExceptionRecord@@E@Z 100161e0 f   LIBCMTD:frame.obj
 0001:000152c0       __CallSettingFrame@12      100162c0 f   LIBCMTD:lowhelpr.obj
 0001:000152e7       __NLG_Return               100162e7 f   LIBCMTD:lowhelpr.obj
 0001:00015310       __mtinit                   10016310 f   LIBCMTD:tidtable.obj
 0001:000153a0       __mtterm                   100163a0 f   LIBCMTD:tidtable.obj
 0001:000153d0       __initptd                  100163d0 f   LIBCMTD:tidtable.obj
 0001:000153f0       __getptd                   100163f0 f   LIBCMTD:tidtable.obj
 0001:00015490       __freeptd                  10016490 f   LIBCMTD:tidtable.obj
 0001:000155a0       ___threadid                100165a0 f   LIBCMTD:tidtable.obj
 0001:000155b0       ___threadhandle            100165b0 f   LIBCMTD:tidtable.obj
 0001:000155c0       ?terminate@@YAXXZ          100165c0 f   LIBCMTD:hooks.obj
 0001:00015650       ?unexpected@@YAXXZ         10016650 f   LIBCMTD:hooks.obj
 0001:00015670       ?_inconsistency@@YAXXZ     10016670 f   LIBCMTD:hooks.obj
 0001:00015700       __flsbuf                   10016700 f   LIBCMTD:_flsbuf.obj
 0001:00015980       __output                   10016980 f   LIBCMTD:output.obj
 0001:00016820       __setdefaultprecision      10017820 f   LIBCMTD:fp8.obj
 0001:00016840       __ms_p5_test_fdiv          10017840 f   LIBCMTD:testfdiv.obj
 0001:000168a0       __ms_p5_mp_test_fdiv       100178a0 f   LIBCMTD:testfdiv.obj
 0001:000168f0       __forcdecpt                100178f0 f   LIBCMTD:cvt.obj
 0001:000169a0       __cropzeros                100179a0 f   LIBCMTD:cvt.obj
 0001:00016a80       __positive                 10017a80 f   LIBCMTD:cvt.obj
 0001:00016ab0       __fassign                  10017ab0 f   LIBCMTD:cvt.obj
 0001:00016b00       __cftoe                    10017b00 f   LIBCMTD:cvt.obj
 0001:00016cf0       __cftof                    10017cf0 f   LIBCMTD:cvt.obj
 0001:00016ea0       __cftog                    10017ea0 f   LIBCMTD:cvt.obj
 0001:00016f90       __cfltcvt                  10017f90 f   LIBCMTD:cvt.obj
 0001:00017020       __input                    10018020 f   LIBCMTD:input.obj
 0001:00018520       __cinit                    10019520 f   LIBCMTD:crt0dat.obj
 0001:00018560       _exit                      10019560 f   LIBCMTD:crt0dat.obj
 0001:00018580       __exit                     10019580 f   LIBCMTD:crt0dat.obj
 0001:000185a0       __cexit                    100195a0 f   LIBCMTD:crt0dat.obj
 0001:000185c0       __c_exit                   100195c0 f   LIBCMTD:crt0dat.obj
 0001:000186d0       __lockexit                 100196d0 f   LIBCMTD:crt0dat.obj
 0001:000186e0       __unlockexit               100196e0 f   LIBCMTD:crt0dat.obj
 0001:00018720       __ioinit                   10019720 f   LIBCMTD:ioinit.obj
 0001:00018a50       __ioterm                   10019a50 f   LIBCMTD:ioinit.obj
 0001:00018af0       __setenvp                  10019af0 f   LIBCMTD:stdenvp.obj
 0001:00018c40       __setargv                  10019c40 f   LIBCMTD:stdargv.obj
 0001:00019150       ___crtGetEnvironmentStringsA 1001a150 f   LIBCMTD:a_env.obj
 0001:00019370       __GetLinkerVersion         1001a370 f   LIBCMTD:heapinit.obj
 0001:000193d0       ___heap_select             1001a3d0 f   LIBCMTD:heapinit.obj
 0001:00019600       __heap_init                1001a600 f   LIBCMTD:heapinit.obj
 0001:00019690       __heap_term                1001a690 f   LIBCMTD:heapinit.obj
 0001:00019780       __FF_MSGBANNER             1001a780 f   LIBCMTD:crt0msg.obj
 0001:000197d0       __NMSG_WRITE               1001a7d0 f   LIBCMTD:crt0msg.obj
 0001:00019990       __GET_RTERRMSG             1001a990 f   LIBCMTD:crt0msg.obj
 0001:000199e0       __woutput                  1001a9e0 f   LIBCMTD:woutput.obj
 0001:0001a7c0       ?_set_new_handler@@YAP6AHI@ZP6AHI@Z@Z 1001b7c0 f   LIBCMTD:handler.obj
 0001:0001a7f0       ?_query_new_handler@@YAP6AHI@ZXZ 1001b7f0 f   LIBCMTD:handler.obj
 0001:0001a800       __callnewh                 1001b800 f   LIBCMTD:handler.obj
 0001:0001a838       __except_handler3          1001b838 f   LIBCMTD:exsup3.obj
 0001:0001a8f5       __seh_longjmp_unwind@4     1001b8f5 f   LIBCMTD:exsup3.obj
 0001:0001a910       __malloc_base              1001b910 f   LIBCMTD:malloc.obj
 0001:0001a930       __nh_malloc_base           1001b930 f   LIBCMTD:malloc.obj
 0001:0001a990       __heap_alloc_base          1001b990 f   LIBCMTD:malloc.obj
 0001:0001aae0       __CrtDefaultAllocHook      1001bae0 f   LIBCMTD:dbghook.obj
 0001:0001aaf0       __expand_base              1001baf0 f   LIBCMTD:expand.obj
 0001:0001ad00       __realloc_base             1001bd00 f   LIBCMTD:realloc.obj
 0001:0001b1a0       __free_base                1001c1a0 f   LIBCMTD:free.obj
 0001:0001b2f0       __heapchk                  1001c2f0 f   LIBCMTD:heapchk.obj
 0001:0001b400       __heapset                  1001c400 f   LIBCMTD:heapchk.obj
 0001:0001b410       __get_sbh_threshold        1001c410 f   LIBCMTD:sbheap.obj
 0001:0001b440       __set_sbh_threshold        1001c440 f   LIBCMTD:sbheap.obj
 0001:0001b550       ___sbh_heap_init           1001c550 f   LIBCMTD:sbheap.obj
 0001:0001b5c0       ___sbh_find_block          1001c5c0 f   LIBCMTD:sbheap.obj
 0001:0001b620       ___sbh_verify_block        1001c620 f   LIBCMTD:sbheap.obj
 0001:0001b680       ___sbh_free_block          1001c680 f   LIBCMTD:sbheap.obj
 0001:0001bc60       ___sbh_alloc_block         1001cc60 f   LIBCMTD:sbheap.obj
 0001:0001c1a0       ___sbh_alloc_new_region    1001d1a0 f   LIBCMTD:sbheap.obj
 0001:0001c2b0       ___sbh_alloc_new_group     1001d2b0 f   LIBCMTD:sbheap.obj
 0001:0001c4a0       ___sbh_resize_block        1001d4a0 f   LIBCMTD:sbheap.obj
 0001:0001ca90       ___sbh_heapmin             1001da90 f   LIBCMTD:sbheap.obj
 0001:0001cbc0       ___sbh_heap_check          1001dbc0 f   LIBCMTD:sbheap.obj
 0001:0001d1e0       __get_old_sbh_threshold    1001e1e0 f   LIBCMTD:sbheap.obj
 0001:0001d1f0       __set_old_sbh_threshold    1001e1f0 f   LIBCMTD:sbheap.obj
 0001:0001d220       ___old_sbh_new_region      1001e220 f   LIBCMTD:sbheap.obj
 0001:0001d400       ___old_sbh_release_region  1001e400 f   LIBCMTD:sbheap.obj
 0001:0001d480       ___old_sbh_decommit_pages  1001e480 f   LIBCMTD:sbheap.obj
 0001:0001d5e0       ___old_sbh_find_block      1001e5e0 f   LIBCMTD:sbheap.obj
 0001:0001d670       ___old_sbh_free_block      1001e670 f   LIBCMTD:sbheap.obj
 0001:0001d6e0       ___old_sbh_alloc_block     1001e6e0 f   LIBCMTD:sbheap.obj
 0001:0001daa0       ___old_sbh_alloc_block_from_page 1001eaa0 f   LIBCMTD:sbheap.obj
 0001:0001dd50       ___old_sbh_resize_block    1001ed50 f   LIBCMTD:sbheap.obj
 0001:0001dec0       ___old_sbh_heap_check      1001eec0 f   LIBCMTD:sbheap.obj
 0001:0001e100       __isctype                  1001f100 f   LIBCMTD:isctype.obj
 0001:0001e1c0       __itoa                     1001f1c0 f   LIBCMTD:xtoa.obj
 0001:0001e2e0       __ltoa                     1001f2e0 f   LIBCMTD:xtoa.obj
 0001:0001e320       __ultoa                    1001f320 f   LIBCMTD:xtoa.obj
 0001:0001e340       __i64toa                   1001f340 f   LIBCMTD:xtoa.obj
 0001:0001e490       __ui64toa                  1001f490 f   LIBCMTD:xtoa.obj
 0001:0001e4b0       __snprintf                 1001f4b0 f   LIBCMTD:snprintf.obj
 0001:0001e5b0       _signal                    1001f5b0 f   LIBCMTD:winsig.obj
 0001:0001e880       _raise                     1001f880 f   LIBCMTD:winsig.obj
 0001:0001eb20       ___fpecode                 1001fb20 f   LIBCMTD:winsig.obj
 0001:0001eb30       ___pxcptinfoptrs           1001fb30 f   LIBCMTD:winsig.obj
 0001:0001eb40       ___crtMessageBoxA          1001fb40 f   LIBCMTD:crtmbox.obj
 0001:0001ec00       ?__CxxUnhandledExceptionFilter@@YGJPAU_EXCEPTION_POINTERS@@@Z 1001fc00 f   LIBCMTD:unhandld.obj
 0001:0001ec60       ?__CxxSetUnhandledExceptionFilter@@YAXXZ 1001fc60 f   LIBCMTD:unhandld.obj
 0001:0001ec80       ?__CxxRestoreUnhandledExceptionFilter@@YAXXZ 1001fc80 f   LIBCMTD:unhandld.obj
 0001:0001eca0       ?_ValidateRead@@YAHPBXI@Z  1001fca0 f   LIBCMTD:validate.obj
 0001:0001ecd0       ?_ValidateWrite@@YAHPAXI@Z 1001fcd0 f   LIBCMTD:validate.obj
 0001:0001ed00       ?_ValidateExecute@@YAHP6GHXZ@Z 1001fd00 f   LIBCMTD:validate.obj
 0001:0001ed30       _strcmp                    1001fd30 f   LIBCMTD:strcmp.obj
 0001:0001edc0       _memmove                   1001fdc0 f   LIBCMTD:memmove.obj
 0001:0001f100       __XcptFilter               10020100 f   LIBCMTD:winxfltr.obj
 0001:0001f320       _abort                     10020320 f   LIBCMTD:abort.obj
 0001:0001f340       __lseek                    10020340 f   LIBCMTD:lseek.obj
 0001:0001f3d0       __lseek_lk                 100203d0 f   LIBCMTD:lseek.obj
 0001:0001f490       __write                    10020490 f   LIBCMTD:write.obj
 0001:0001f520       __write_lk                 10020520 f   LIBCMTD:write.obj
 0001:0001f7a0       __getbuf                   100207a0 f   LIBCMTD:_getbuf.obj
 0001:0001f870       __isatty                   10020870 f   LIBCMTD:isatty.obj
 0001:0001f8b0       ___initstdio               100208b0 f   LIBCMTD:_file.obj
 0001:0001f9e0       ___endstdio                100209e0 f   LIBCMTD:_file.obj
 0001:0001fa00       __lock_file                10020a00 f   LIBCMTD:_file.obj
 0001:0001fa40       __lock_file2               10020a40 f   LIBCMTD:_file.obj
 0001:0001fa70       __unlock_file              10020a70 f   LIBCMTD:_file.obj
 0001:0001fab0       __unlock_file2             10020ab0 f   LIBCMTD:_file.obj
 0001:0001fae0       _wctomb                    10020ae0 f   LIBCMTD:wctomb.obj
 0001:0001fb60       __wctomb_lk                10020b60 f   LIBCMTD:wctomb.obj
 0001:0001fc00       __aulldiv                  10020c00 f   LIBCMTD:ulldiv.obj
 0001:0001fc70       __aullrem                  10020c70 f   LIBCMTD:ullrem.obj
 0001:0001fcf0       __statusfp                 10020cf0 f   LIBCMTD:ieee87.obj
 0001:0001fd10       __clearfp                  10020d10 f   LIBCMTD:ieee87.obj
 0001:0001fd30       __control87                10020d30 f   LIBCMTD:ieee87.obj
 0001:0001fd80       __controlfp                10020d80 f   LIBCMTD:ieee87.obj
 0001:0001fda0       __fpreset                  10020da0 f   LIBCMTD:ieee87.obj
 0001:00020190       __tolower                  10021190 f   LIBCMTD:tolower.obj
 0001:000201a0       _tolower                   100211a0 f   LIBCMTD:tolower.obj
 0001:00020240       __tolower_lk               10021240 f   LIBCMTD:tolower.obj
 0001:00020370       __ZeroTail                 10021370 f   LIBCMTD:intrncvt.obj
 0001:00020400       __IncMan                   10021400 f   LIBCMTD:intrncvt.obj
 0001:000204b0       __RoundMan                 100214b0 f   LIBCMTD:intrncvt.obj
 0001:00020590       __CopyMan                  10021590 f   LIBCMTD:intrncvt.obj
 0001:000205e0       __FillZeroMan              100215e0 f   LIBCMTD:intrncvt.obj
 0001:00020610       __IsZeroMan                10021610 f   LIBCMTD:intrncvt.obj
 0001:00020650       __ShrMan                   10021650 f   LIBCMTD:intrncvt.obj
 0001:00020740       __ld12cvt                  10021740 f   LIBCMTD:intrncvt.obj
 0001:00020990       __ld12tod                  10021990 f   LIBCMTD:intrncvt.obj
 0001:000209b0       __ld12tof                  100219b0 f   LIBCMTD:intrncvt.obj
 0001:000209d0       __ld12told                 100219d0 f   LIBCMTD:intrncvt.obj
 0001:00020a90       __atodbl                   10021a90 f   LIBCMTD:intrncvt.obj
 0001:00020ad0       __atoldbl                  10021ad0 f   LIBCMTD:intrncvt.obj
 0001:00020b10       __atoflt                   10021b10 f   LIBCMTD:intrncvt.obj
 0001:00020b50       __fptostr                  10021b50 f   LIBCMTD:_fptostr.obj
 0001:00020c50       __fltout2                  10021c50 f   LIBCMTD:cfout.obj
 0001:00020cd0       ___dtold                   10021cd0 f   LIBCMTD:cfout.obj
 0001:00020e40       __fptrap                   10021e40 f   LIBCMTD:crt0fp.obj
 0001:00020e50       _mbtowc                    10021e50 f   LIBCMTD:mbtowc.obj
 0001:00020ed0       __mbtowc_lk                10021ed0 f   LIBCMTD:mbtowc.obj
 0001:00021030       _isalpha                   10022030 f   LIBCMTD:_ctype.obj
 0001:00021080       _isupper                   10022080 f   LIBCMTD:_ctype.obj
 0001:000210c0       _islower                   100220c0 f   LIBCMTD:_ctype.obj
 0001:00021100       _isdigit                   10022100 f   LIBCMTD:_ctype.obj
 0001:00021140       _isxdigit                  10022140 f   LIBCMTD:_ctype.obj
 0001:00021190       _isspace                   10022190 f   LIBCMTD:_ctype.obj
 0001:000211d0       _ispunct                   100221d0 f   LIBCMTD:_ctype.obj
 0001:00021210       _isalnum                   10022210 f   LIBCMTD:_ctype.obj
 0001:00021260       _isprint                   10022260 f   LIBCMTD:_ctype.obj
 0001:000212b0       _isgraph                   100222b0 f   LIBCMTD:_ctype.obj
 0001:00021300       _iscntrl                   10022300 f   LIBCMTD:_ctype.obj
 0001:00021340       ___isascii                 10022340 f   LIBCMTD:_ctype.obj
 0001:00021350       ___toascii                 10022350 f   LIBCMTD:_ctype.obj
 0001:00021360       ___iscsymf                 10022360 f   LIBCMTD:_ctype.obj
 0001:000213c0       ___iscsym                  100223c0 f   LIBCMTD:_ctype.obj
 0001:00021420       __allshl                   10022420 f   LIBCMTD:llshl.obj
 0001:00021440       __filbuf                   10022440 f   LIBCMTD:_filbuf.obj
 0001:00021630       _ungetc                    10022630 f   LIBCMTD:ungetc.obj
 0001:000216a0       __ungetc_lk                100226a0 f   LIBCMTD:ungetc.obj
 0001:000217e0       __setmbcp                  100227e0 f   LIBCMTD:mbctype.obj
 0001:00021fa0       __getmbcp                  10022fa0 f   LIBCMTD:mbctype.obj
 0001:00021fc0       ___initmbctable            10022fc0 f   LIBCMTD:mbctype.obj
 0001:00021ff0       _strtol                    10022ff0 f   LIBCMTD:strtol.obj
 0001:00022350       _strtoul                   10023350 f   LIBCMTD:strtol.obj
 0001:00022380       _strchr                    10023380 f   LIBCMTD:strchr.obj
 0001:00022386       ___from_strstr_to_strchr   10023386 f   LIBCMTD:strchr.obj
 0001:00022440       _strstr                    10023440 f   LIBCMTD:strstr.obj
 0001:000224c0       _strncmp                   100234c0 f   LIBCMTD:strncmp.obj
 0001:00022500       _fputwc                    10023500 f   LIBCMTD:fputwc.obj
 0001:00022580       __putwc_lk                 10023580 f   LIBCMTD:fputwc.obj
 0001:000227b0       _putwc                     100237b0 f   LIBCMTD:fputwc.obj
 0001:000227d0       __dosmaperr                100237d0 f   LIBCMTD:dosmap.obj
 0001:00022870       __errno                    10023870 f   LIBCMTD:dosmap.obj
 0001:00022880       ___doserrno                10023880 f   LIBCMTD:dosmap.obj
 0001:00022890       ___crtGetStringTypeA       10023890 f   LIBCMTD:a_str.obj
 0001:00022a50       __alloc_osfhnd             10023a50 f   LIBCMTD:osfinfo.obj
 0001:00022c40       __set_osfhnd               10023c40 f   LIBCMTD:osfinfo.obj
 0001:00022d00       __free_osfhnd              10023d00 f   LIBCMTD:osfinfo.obj
 0001:00022de0       __get_osfhandle            10023de0 f   LIBCMTD:osfinfo.obj
 0001:00022e50       __open_osfhandle           10023e50 f   LIBCMTD:osfinfo.obj
 0001:00022f60       __lock_fhandle             10023f60 f   LIBCMTD:osfinfo.obj
 0001:00022ff0       __unlock_fhandle           10023ff0 f   LIBCMTD:osfinfo.obj
 0001:00023020       __fcloseall                10024020 f   LIBCMTD:closeall.obj
 0001:00023100       _fflush                    10024100 f   LIBCMTD:fflush.obj
 0001:00023150       __fflush_lk                10024150 f   LIBCMTD:fflush.obj
 0001:000231a0       __flush                    100241a0 f   LIBCMTD:fflush.obj
 0001:00023260       __flushall                 10024260 f   LIBCMTD:fflush.obj
 0001:000233b0       _setlocale                 100243b0 f   LIBCMTD:setlocal.obj
 0001:00023a40       __expandlocale             10024a40 f   LIBCMTD:setlocal.obj
 0001:00023bd0       ___init_dummy              10024bd0 f   LIBCMTD:setlocal.obj
 0001:00023be0       __strcats                  10024be0 f   LIBCMTD:setlocal.obj
 0001:00023c30       ___lc_strtolc              10024c30 f   LIBCMTD:setlocal.obj
 0001:00023d90       ___lc_lctostr              10024d90 f   LIBCMTD:setlocal.obj
 0001:00023e00       ___crtLCMapStringA         10024e00 f   LIBCMTD:a_map.obj
 0001:00024160       ___addl                    10025160 f   LIBCMTD:mantold.obj
 0001:000241a0       ___add_12                  100251a0 f   LIBCMTD:mantold.obj
 0001:00024250       ___shl_12                  10025250 f   LIBCMTD:mantold.obj
 0001:000242b0       ___shr_12                  100252b0 f   LIBCMTD:mantold.obj
 0001:00024320       ___mtold12                 10025320 f   LIBCMTD:mantold.obj
 0001:00024460       ___strgtold12              10025460 f   LIBCMTD:strgtold.obj
 0001:00024f90       ___STRINGTOLD              10025f90 f   LIBCMTD:strgtold.obj
 0001:00024fe0       _$I10_OUTPUT               10025fe0 f   LIBCMTD:x10fout.obj
 0001:00025500       __read                     10026500 f   LIBCMTD:read.obj
 0001:00025590       __read_lk                  10026590 f   LIBCMTD:read.obj
 0001:000259e0       __toupper                  100269e0 f   LIBCMTD:toupper.obj
 0001:000259f0       _toupper                   100269f0 f   LIBCMTD:toupper.obj
 0001:00025a90       __toupper_lk               10026a90 f   LIBCMTD:toupper.obj
 0001:00025bc0       __flswbuf                  10026bc0 f   LIBCMTD:_flswbuf.obj
 0001:00025e50       _fclose                    10026e50 f   LIBCMTD:fclose.obj
 0001:00025ee0       __fclose_lk                10026ee0 f   LIBCMTD:fclose.obj
 0001:00025fa0       __commit                   10026fa0 f   LIBCMTD:commit.obj
 0001:00026080       ___init_time               10027080 f   LIBCMTD:inittime.obj
 0001:00026a00       ___init_numeric            10027a00 f   LIBCMTD:initnum.obj
 0001:00026d30       ___init_monetary           10027d30 f   LIBCMTD:initmon.obj
 0001:00027190       ___init_ctype              10028190 f   LIBCMTD:initctyp.obj
 0001:00027530       ___init_collate            10028530 f   LIBCMTD:initcoll.obj
 0001:00027540       _strcspn                   10028540 f   LIBCMTD:strcspn.obj
 0001:00027580       _strpbrk                   10028580 f   LIBCMTD:strpbrk.obj
 0001:000275c0       ___get_qualified_locale    100285c0 f   LIBCMTD:getqloc.obj
 0001:00028360       ___ld12mul                 10029360 f   LIBCMTD:tenpow.obj
 0001:000287a0       ___multtenpow12            100297a0 f   LIBCMTD:tenpow.obj
 0001:00028870       __close                    10029870 f   LIBCMTD:close.obj
 0001:000288f0       __close_lk                 100298f0 f   LIBCMTD:close.obj
 0001:000289a0       __freebuf                  100299a0 f   LIBCMTD:_freebuf.obj
 0001:00028a40       __Getdays                  10029a40 f   LIBCMTD:strftime.obj
 0001:00028b70       __Getmonths                10029b70 f   LIBCMTD:strftime.obj
 0001:00028ca0       __Gettnames                10029ca0 f   LIBCMTD:strftime.obj
 0001:00029010       _strftime                  1002a010 f   LIBCMTD:strftime.obj
 0001:00029030       __Strftime                 1002a030 f   LIBCMTD:strftime.obj
 0001:00029eb0       ___getlocaleinfo           1002aeb0 f   LIBCMTD:inithelp.obj
 0001:0002a140       _localeconv                1002b140 f   LIBCMTD:lconv.obj
 0001:0002a150       ___crtGetStringTypeW       1002b150 f   LIBCMTD:w_str.obj
 0001:0002a3c0       __stricmp                  1002b3c0 f   LIBCMTD:stricmp.obj
 0001:0002a3c0       __strcmpi                  1002b3c0 f   LIBCMTD:stricmp.obj
 0001:0002a490       __strnicmp                 1002b490 f   LIBCMTD:strnicmp.obj
 0001:0002a5a0       _atol                      1002b5a0 f   LIBCMTD:atox.obj
 0001:0002a6a0       _atoi                      1002b6a0 f   LIBCMTD:atox.obj
 0001:0002a6c0       __atoi64                   1002b6c0 f   LIBCMTD:atox.obj
 0001:0002a7f0       ___tzset                   1002b7f0 f   LIBCMTD:tzset.obj
 0001:0002a830       __tzset                    1002b830 f   LIBCMTD:tzset.obj
 0001:0002ac00       __isindst                  1002bc00 f   LIBCMTD:tzset.obj
 0001:0002b130       ___crtGetLocaleInfoW       1002c130 f   LIBCMTD:w_loc.obj
 0001:0002b2d0       ___crtGetLocaleInfoA       1002c2d0 f   LIBCMTD:a_loc.obj
 0001:0002b480       __allmul                   1002c480 f   LIBCMTD:llmul.obj
 0001:0002b4c0       _getenv                    1002c4c0 f   LIBCMTD:getenv.obj
 0001:0002b4f0       __getenv_lk                1002c4f0 f   LIBCMTD:getenv.obj
 0001:0002b5c0       __mbsnbicoll               1002c5c0 f   LIBCMTD:mbsnbico.obj
 0001:0002b610       ___wtomb_environ           1002c610 f   LIBCMTD:wtombenv.obj
 0001:0002b6c0       ___crtCompareStringA       1002c6c0 f   LIBCMTD:a_cmp.obj
 0001:0002bb10       ___crtsetenv               1002cb10 f   LIBCMTD:setenv.obj
 0001:0002bf60       __mbschr                   1002cf60 f   LIBCMTD:mbschr.obj
 0001:0002c04e       _RtlUnwind@16              1002d04e f   kernel32:KERNEL32.dll
 0001:0002c054       _GetCommandLineA@0         1002d054 f   kernel32:KERNEL32.dll
 0001:0002c05a       _GetVersion@0              1002d05a f   kernel32:KERNEL32.dll
 0001:0002c060       _InitializeCriticalSection@4 1002d060 f   kernel32:KERNEL32.dll
 0001:0002c066       _DeleteCriticalSection@4   1002d066 f   kernel32:KERNEL32.dll
 0001:0002c06c       _EnterCriticalSection@4    1002d06c f   kernel32:KERNEL32.dll
 0001:0002c072       _LeaveCriticalSection@4    1002d072 f   kernel32:KERNEL32.dll
 0001:0002c078       _ExitProcess@4             1002d078 f   kernel32:KERNEL32.dll
 0001:0002c07e       _FatalAppExitA@8           1002d07e f   kernel32:KERNEL32.dll
 0001:0002c084       _IsBadWritePtr@8           1002d084 f   kernel32:KERNEL32.dll
 0001:0002c08a       _IsBadReadPtr@8            1002d08a f   kernel32:KERNEL32.dll
 0001:0002c090       _HeapValidate@12           1002d090 f   kernel32:KERNEL32.dll
 0001:0002c096       _DebugBreak@0              1002d096 f   kernel32:KERNEL32.dll
 0001:0002c09c       _GetStdHandle@4            1002d09c f   kernel32:KERNEL32.dll
 0001:0002c0a2       _WriteFile@20              1002d0a2 f   kernel32:KERNEL32.dll
 0001:0002c0a8       _InterlockedDecrement@4    1002d0a8 f   kernel32:KERNEL32.dll
 0001:0002c0ae       _GetProcAddress@8          1002d0ae f   kernel32:KERNEL32.dll
 0001:0002c0b4       _LoadLibraryA@4            1002d0b4 f   kernel32:KERNEL32.dll
 0001:0002c0ba       _InterlockedIncrement@4    1002d0ba f   kernel32:KERNEL32.dll
 0001:0002c0c0       _GetModuleFileNameA@12     1002d0c0 f   kernel32:KERNEL32.dll
 0001:0002c0c6       _GetCurrentThreadId@0      1002d0c6 f   kernel32:KERNEL32.dll
 0001:0002c0cc       _TlsSetValue@8             1002d0cc f   kernel32:KERNEL32.dll
 0001:0002c0d2       _TlsAlloc@0                1002d0d2 f   kernel32:KERNEL32.dll
 0001:0002c0d8       _TlsFree@4                 1002d0d8 f   kernel32:KERNEL32.dll
 0001:0002c0de       _SetLastError@4            1002d0de f   kernel32:KERNEL32.dll
 0001:0002c0e4       _TlsGetValue@4             1002d0e4 f   kernel32:KERNEL32.dll
 0001:0002c0ea       _GetLastError@0            1002d0ea f   kernel32:KERNEL32.dll
 0001:0002c0f0       _GetCurrentThread@0        1002d0f0 f   kernel32:KERNEL32.dll
 0001:0002c0f6       _GetModuleHandleA@4        1002d0f6 f   kernel32:KERNEL32.dll
 0001:0002c0fc       _TerminateProcess@8        1002d0fc f   kernel32:KERNEL32.dll
 0001:0002c102       _GetCurrentProcess@0       1002d102 f   kernel32:KERNEL32.dll
 0001:0002c108       _SetHandleCount@4          1002d108 f   kernel32:KERNEL32.dll
 0001:0002c10e       _GetFileType@4             1002d10e f   kernel32:KERNEL32.dll
 0001:0002c114       _GetStartupInfoA@4         1002d114 f   kernel32:KERNEL32.dll
 0001:0002c11a       _FreeEnvironmentStringsA@4 1002d11a f   kernel32:KERNEL32.dll
 0001:0002c120       _FreeEnvironmentStringsW@4 1002d120 f   kernel32:KERNEL32.dll
 0001:0002c126       _GetEnvironmentStrings@0   1002d126 f   kernel32:KERNEL32.dll
 0001:0002c12c       _GetEnvironmentStringsW@0  1002d12c f   kernel32:KERNEL32.dll
 0001:0002c132       _GetEnvironmentVariableA@12 1002d132 f   kernel32:KERNEL32.dll
 0001:0002c138       _GetVersionExA@4           1002d138 f   kernel32:KERNEL32.dll
 0001:0002c13e       _HeapDestroy@4             1002d13e f   kernel32:KERNEL32.dll
 0001:0002c144       _HeapCreate@12             1002d144 f   kernel32:KERNEL32.dll
 0001:0002c14a       _HeapFree@12               1002d14a f   kernel32:KERNEL32.dll
 0001:0002c150       _VirtualFree@12            1002d150 f   kernel32:KERNEL32.dll
 0001:0002c156       _HeapAlloc@12              1002d156 f   kernel32:KERNEL32.dll
 0001:0002c15c       _HeapReAlloc@16            1002d15c f   kernel32:KERNEL32.dll
 0001:0002c162       _VirtualAlloc@16           1002d162 f   kernel32:KERNEL32.dll
 0001:0002c168       _SetConsoleCtrlHandler@8   1002d168 f   kernel32:KERNEL32.dll
 0001:0002c16e       _SetUnhandledExceptionFilter@4 1002d16e f   kernel32:KERNEL32.dll
 0001:0002c174       _IsBadCodePtr@4            1002d174 f   kernel32:KERNEL32.dll
 0001:0002c17a       _UnhandledExceptionFilter@4 1002d17a f   kernel32:KERNEL32.dll
 0001:0002c180       _SetFilePointer@16         1002d180 f   kernel32:KERNEL32.dll
 0001:0002c186       _GetCPInfo@8               1002d186 f   kernel32:KERNEL32.dll
 0001:0002c18c       _GetACP@0                  1002d18c f   kernel32:KERNEL32.dll
 0001:0002c192       _GetOEMCP@0                1002d192 f   kernel32:KERNEL32.dll
 0001:0002c198       _GetStringTypeA@20         1002d198 f   kernel32:KERNEL32.dll
 0001:0002c19e       _GetStringTypeW@16         1002d19e f   kernel32:KERNEL32.dll
 0001:0002c1a4       _SetStdHandle@8            1002d1a4 f   kernel32:KERNEL32.dll
 0001:0002c1aa       _LCMapStringA@24           1002d1aa f   kernel32:KERNEL32.dll
 0001:0002c1b0       _LCMapStringW@24           1002d1b0 f   kernel32:KERNEL32.dll
 0001:0002c1b6       _ReadFile@20               1002d1b6 f   kernel32:KERNEL32.dll
 0001:0002c1bc       _FlushFileBuffers@4        1002d1bc f   kernel32:KERNEL32.dll
 0001:0002c1c2       _IsValidLocale@8           1002d1c2 f   kernel32:KERNEL32.dll
 0001:0002c1c8       _IsValidCodePage@4         1002d1c8 f   kernel32:KERNEL32.dll
 0001:0002c1ce       _GetLocaleInfoA@16         1002d1ce f   kernel32:KERNEL32.dll
 0001:0002c1d4       _EnumSystemLocalesA@8      1002d1d4 f   kernel32:KERNEL32.dll
 0001:0002c1da       _GetUserDefaultLCID@0      1002d1da f   kernel32:KERNEL32.dll
 0001:0002c1e0       _GetTimeZoneInformation@4  1002d1e0 f   kernel32:KERNEL32.dll
 0001:0002c1e6       _GetLocaleInfoW@16         1002d1e6 f   kernel32:KERNEL32.dll
 0001:0002c1ec       _CompareStringA@24         1002d1ec f   kernel32:KERNEL32.dll
 0001:0002c1f2       _CompareStringW@24         1002d1f2 f   kernel32:KERNEL32.dll
 0001:0002c1f8       _SetEnvironmentVariableA@8 1002d1f8 f   kernel32:KERNEL32.dll
 0001:00037ba0       __enc$textbss$begin        10038ba0     <linker-defined>
 0001:0004dba0       __enc$textbss$end          1004eba0     <linker-defined>
 0002:0000001c       ??_C@_0CA@FKDG@Error?5initializing?5DirectSound?4?$AA@ 1004f01c     dsiPlayer.obj
 0002:00000044       ??_C@_0O@IHMI@dsiPlayer?4dll?$AA@ 1004f044     dsiPlayer.obj
 0002:00000054       ??_C@_0CG@ELDF@D?3?2cpp?2lameFE?2dsiPlayer?2dsiPlaye@ 1004f054     dsiPlayer.obj
 0002:00000084       ??_C@_0L@BBEA@Initialize?$AA@ 1004f084     dsiPlayer.obj
 0002:00000094       ??_C@_06PKKD@Create?$AA@   1004f094     dsiPlayer.obj
 0002:0000009c       ??_C@_04NHBG@Play?$AA@     1004f09c     dsiPlayer.obj
 0002:000000a4       ??_C@_0BH@GPF@SetPrimaryBufferFormat?$AA@ 1004f0a4     dsutil.obj
 0002:000000c0       ??_C@_0BE@CGNH@SetCooperativeLevel?$AA@ 1004f0c0     dsutil.obj
 0002:000000d8       ??_C@_0CD@OCOA@D?3?2cpp?2lameFE?2dsiPlayer?2dsutil?4c@ 1004f0d8     dsutil.obj
 0002:00000104       ??_C@_0BD@LLMB@DirectSoundCreate8?$AA@ 1004f104     dsutil.obj
 0002:0000011c       ??_C@_09PKBA@SetFormat?$AA@ 1004f11c     dsutil.obj
 0002:00000128       ??_C@_0BC@ECN@CreateSoundBuffer?$AA@ 1004f128     dsutil.obj
 0002:00000140       ??_C@_0P@JMPC@QueryInterface?$AA@ 1004f140     dsutil.obj
 0002:00000154       ??_C@_0BF@NOCK@DuplicateSoundBuffer?$AA@ 1004f154     dsutil.obj
 0002:00000170       ??_C@_0BJ@KFDA@SetNotificationPositions?$AA@ 1004f170     dsutil.obj
 0002:00000190       ??_7CSound@@6B@            1004f190     dsutil.obj
 0002:00000194       ??_C@_09MAIG@ResetFile?$AA@ 1004f194     dsutil.obj
 0002:000001a0       ??_C@_04KCBC@Read?$AA@     1004f1a0     dsutil.obj
 0002:000001a8       ??_C@_04BKNP@Lock?$AA@     1004f1a8     dsutil.obj
 0002:000001b0       ??_C@_0O@HLMM@RestoreBuffer?$AA@ 1004f1b0     dsutil.obj
 0002:000001c0       ??_C@_09BBHI@GetStatus?$AA@ 1004f1c0     dsutil.obj
 0002:000001cc       ??_C@_0BE@MCEB@FillBufferWithSound?$AA@ 1004f1cc     dsutil.obj
 0002:000001e4       ??_C@_0O@HAAF@GetFreeBuffer?$AA@ 1004f1e4     dsutil.obj
 0002:000001f4       ??_7CStreamingSound@@6B@   1004f1f4     dsutil.obj
 0002:000001f8       ??_C@_0BD@LDMO@GetCurrentPosition?$AA@ 1004f1f8     dsutil.obj
 0002:00000210       ??_C@_09FJAN@WriteMMIO?$AA@ 1004f210     dsutil.obj
 0002:0000021c       ??_C@_08DFAE@mmioOpen?$AA@ 1004f21c     dsutil.obj
 0002:00000228       ??_C@_08FCFC@ReadMMIO?$AA@ 1004f228     dsutil.obj
 0002:00000234       ??_C@_0N@MCGG@LockResource?$AA@ 1004f234     dsutil.obj
 0002:00000244       ??_C@_0P@IJMI@SizeofResource?$AA@ 1004f244     dsutil.obj
 0002:00000258       ??_C@_0N@IAFL@LoadResource?$AA@ 1004f258     dsutil.obj
 0002:00000268       ??_C@_0N@JKKH@FindResource?$AA@ 1004f268     dsutil.obj
 0002:00000278       ??_C@_03FFGM@WAV?$AA@      1004f278     dsutil.obj
 0002:0000027c       ??_C@_04DOFO@WAVE?$AA@     1004f27c     dsutil.obj
 0002:00000284       ??_C@_0L@LHNO@mmioAscend?$AA@ 1004f284     dsutil.obj
 0002:00000294       ??_C@_03IDPP@new?$AA@      1004f294     dsutil.obj
 0002:00000298       ??_C@_06CJIP@m_pwfx?$AA@   1004f298     dsutil.obj
 0002:000002a0       ??_C@_08JKLF@mmioRead?$AA@ 1004f2a0     dsutil.obj
 0002:000002ac       ??_C@_0BG@LDHL@sizeof?$CIPCMWAVEFORMAT?$CJ?$AA@ 1004f2ac     dsutil.obj
 0002:000002c8       ??_C@_0L@OKM@mmioFOURCC?$AA@ 1004f2c8     dsutil.obj
 0002:000002d8       ??_C@_0M@NPPM@mmioDescend?$AA@ 1004f2d8     dsutil.obj
 0002:000002e8       ??_C@_0M@HOBF@mmioGetInfo?$AA@ 1004f2e8     dsutil.obj
 0002:000002f8       ??_C@_0BA@CDLD@mmioCreateChunk?$AA@ 1004f2f8     dsutil.obj
 0002:0000030c       ??_C@_08OEBA@mmioSeek?$AA@ 1004f30c     dsutil.obj
 0002:00000318       ??_C@_0M@CNBJ@mmioSetInfo?$AA@ 1004f318     dsutil.obj
 0002:00000328       ??_C@_0BD@LDAM@mmioinfoIn?4pchNext?$AA@ 1004f328     dsutil.obj
 0002:00000340       ??_C@_0M@IBMG@mmioAdvance?$AA@ 1004f340     dsutil.obj
 0002:00000350       ??_C@_09KGEC@mmioWrite?$AA@ 1004f350     dsutil.obj
 0002:0000035c       ??_C@_07FMPF@?2Media?2?$AA@ 1004f35c     dxutil.obj
 0002:00000368       ??_C@_0BF@JECD@DX81SDK?5Samples?5Path?$AA@ 1004f368     dxutil.obj
 0002:00000384       ??_C@_0BP@CEPK@Software?2Microsoft?2DirectX?5SDK?$AA@ 1004f384     dxutil.obj
 0002:000003ac       ??_C@_04DCMN@?$CFs?$CFs?$AA@ 1004f3ac     dxutil.obj
 0002:000003b8       __real@8@3ffbcccccd0000000000 1004f3b8     dxutil.obj
 0002:000003c8       __real@8@3ff583126e978d4fe000 1004f3c8     dxutil.obj
 0002:000003d8       __real@8@00000000000000000000 1004f3d8     dxutil.obj
 0002:000003e4       __real@4@bfff8000000000000000 1004f3e4     dxutil.obj
 0002:000003e8       __real@4@00000000000000000000 1004f3e8     dxutil.obj
 0002:000003ec       ??_C@_01BJG@?6?$AA@        1004f3ec     dxutil.obj
 0002:000003f0       ??_C@_0M@EJKJ@?$CIhr?$DN?$CF08lx?$CJ?6?$AA@ 1004f3f0     dxutil.obj
 0002:00000400       ??_C@_09BFBP@?$CFs?$CI?$CFld?$CJ?3?5?$AA@ 1004f400     dxutil.obj
 0002:0000040c       ??_C@_0CI@IHCN@?$HL?$CF8X?9?$CF4X?9?$CF4X?9?$CF2X?$CF2X?9?$CF2X?$CF2X?$CF2X?$CF2X@ 1004f40c     dxutil.obj
 0002:0000043c       ??_C@_0DO@JAPI@?$HL?$CF0?48X?9?$CF0?44X?9?$CF0?44X?9?$CF0?42X?$CF0?42X?9?$CF0@ 1004f43c     dxutil.obj
 0002:00000488       ??_C@_0BD@LPNICIME@DMUS_S_DOWN_OCTAVE?$AA@ 1004f488     dxerr8:dxerr8.obj
 0002:0000049c       ??_C@_0BH@FNODNEAH@DMUS_S_NOBUFFERCONTROL?$AA@ 1004f49c     dxerr8:dxerr8.obj
 0002:000004b4       ??_C@_0BJ@IHINBNLH@DMUS_S_GARBAGE_COLLECTED?$AA@ 1004f4b4     dxerr8:dxerr8.obj
 0002:000004d0       ??_C@_07NBCGADJA@Unknown?$AA@ 1004f4d0     dxerr8:dxerr8.obj
 0002:000004d8       ??_C@_0BB@MGKFCACM@DMUS_S_UP_OCTAVE?$AA@ 1004f4d8     dxerr8:dxerr8.obj
 0002:000004ec       ??_C@_0L@NNNOGBKL@DMUS_S_END?$AA@ 1004f4ec     dxerr8:dxerr8.obj
 0002:000004f8       ??_C@_0BI@NMGBNNIP@DMUS_S_STRING_TRUNCATED?$AA@ 1004f4f8     dxerr8:dxerr8.obj
 0002:00000510       ??_C@_0BB@MCCNJHCC@DMUS_S_LAST_TOOL?$AA@ 1004f510     dxerr8:dxerr8.obj
 0002:00000524       ??_C@_0BC@LONJEINH@DMUS_S_OVER_CHORD?$AA@ 1004f524     dxerr8:dxerr8.obj
 0002:00000538       ??_C@_0M@JAHKOHIB@DMUS_S_FREE?$AA@ 1004f538     dxerr8:dxerr8.obj
 0002:00000544       ??_C@_0BD@JGPHAIAK@DMUS_S_PARTIALLOAD?$AA@ 1004f544     dxerr8:dxerr8.obj
 0002:00000558       ??_C@_0BH@IGELEIII@DMUS_S_PARTIALDOWNLOAD?$AA@ 1004f558     dxerr8:dxerr8.obj
 0002:00000570       ??_C@_0P@KIIEDJKE@DMUS_S_REQUEUE?$AA@ 1004f570     dxerr8:dxerr8.obj
 0002:00000580       ??_C@_0O@EIAKKDMP@DS_INCOMPLETE?$AA@ 1004f580     dxerr8:dxerr8.obj
 0002:00000590       ??_C@_0O@LHGABCAF@DV_FULLDUPLEX?$AA@ 1004f590     dxerr8:dxerr8.obj
 0002:000005a0       ??_C@_0O@FKJDAEFJ@DV_HALFDUPLEX?$AA@ 1004f5a0     dxerr8:dxerr8.obj
 0002:000005b0       ??_C@_0L@BDBMAOOE@DV_PENDING?$AA@ 1004f5b0     dxerr8:dxerr8.obj
 0002:000005bc       ??_C@_0BF@FPKGLJFC@DS_NO_VIRTUALIZATION?$AA@ 1004f5bc     dxerr8:dxerr8.obj
 0002:000005d4       ??_C@_0BH@PNHNMKDE@VFW_S_DVD_NOT_ACCURATE?$AA@ 1004f5d4     dxerr8:dxerr8.obj
 0002:000005ec       ??_C@_0BD@IJNLBJPC@VFW_S_NOPREVIEWPIN?$AA@ 1004f5ec     dxerr8:dxerr8.obj
 0002:00000600       ??_C@_0BN@PGBCJHOL@VFW_S_DVD_NON_ONE_SEQUENTIAL?$AA@ 1004f600     dxerr8:dxerr8.obj
 0002:00000620       ??_C@_0CJ@ICAPHCNK@VFW_S_DVD_CHANNEL_CONTENTS_NOT_A@ 1004f620     dxerr8:dxerr8.obj
 0002:0000064c       ??_C@_0BD@PDOJBBAK@VFW_S_NO_STOP_TIME?$AA@ 1004f64c     dxerr8:dxerr8.obj
 0002:00000660       ??_C@_0BA@OPNPNBPH@VFW_S_ESTIMATED?$AA@ 1004f660     dxerr8:dxerr8.obj
 0002:00000670       ??_C@_0P@JAOBCGFI@VFW_S_RESERVED?$AA@ 1004f670     dxerr8:dxerr8.obj
 0002:00000680       ??_C@_0BB@KOLEIGMN@VFW_S_STREAM_OFF?$AA@ 1004f680     dxerr8:dxerr8.obj
 0002:00000694       ??_C@_0P@PLPJKDIN@VFW_S_CANT_CUE?$AA@ 1004f694     dxerr8:dxerr8.obj
 0002:000006a4       ??_C@_0L@ODJAOMGF@VFW_S_RPZA?$AA@ 1004f6a4     dxerr8:dxerr8.obj
 0002:000006b0       ??_C@_0BK@MJFGKMPI@VFW_S_RESOURCE_NOT_NEEDED?$AA@ 1004f6b0     dxerr8:dxerr8.obj
 0002:000006cc       ??_C@_0BJ@ENMAMHIG@VFW_S_MEDIA_TYPE_IGNORED?$AA@ 1004f6cc     dxerr8:dxerr8.obj
 0002:000006e8       ??_C@_0BJ@JHKGLDFI@VFW_S_VIDEO_NOT_RENDERED?$AA@ 1004f6e8     dxerr8:dxerr8.obj
 0002:00000704       ??_C@_0BJ@FLKCPFMD@VFW_S_AUDIO_NOT_RENDERED?$AA@ 1004f704     dxerr8:dxerr8.obj
 0002:00000720       ??_C@_0BL@EMJCALGE@VFW_S_CONNECTIONS_DEFERRED?$AA@ 1004f720     dxerr8:dxerr8.obj
 0002:0000073c       ??_C@_0BF@KKAOBKEG@VFW_S_DUPLICATE_NAME?$AA@ 1004f73c     dxerr8:dxerr8.obj
 0002:00000754       ??_C@_0BJ@CLNBGKKL@VFW_S_STATE_INTERMEDIATE?$AA@ 1004f754     dxerr8:dxerr8.obj
 0002:00000770       ??_C@_0BF@OFOMPAMJ@VFW_S_PARTIAL_RENDER?$AA@ 1004f770     dxerr8:dxerr8.obj
 0002:00000788       ??_C@_0BI@JMPENICD@VFW_S_SOME_DATA_IGNORED?$AA@ 1004f788     dxerr8:dxerr8.obj
 0002:000007a0       ??_C@_0BE@NHDFDKAC@VFW_S_NO_MORE_ITEMS?$AA@ 1004f7a0     dxerr8:dxerr8.obj
 0002:000007b4       ??_C@_0BE@MEDMEGJL@ERROR_INVALID_BLOCK?$AA@ 1004f7b4     dxerr8:dxerr8.obj
 0002:000007c8       ??_C@_0BG@PPEEIFCE@ERROR_BAD_ENVIRONMENT?$AA@ 1004f7c8     dxerr8:dxerr8.obj
 0002:000007e0       ??_C@_0BB@GLNJNPBJ@ERROR_BAD_FORMAT?$AA@ 1004f7e0     dxerr8:dxerr8.obj
 0002:000007f4       ??_C@_0BC@GJIJMKLH@ERROR_OUTOFMEMORY?$AA@ 1004f7f4     dxerr8:dxerr8.obj
 0002:00000808       ??_C@_0BI@DDJDPHHD@ERROR_NOT_ENOUGH_MEMORY?$AA@ 1004f808     dxerr8:dxerr8.obj
 0002:00000820       ??_C@_0BF@LEKBGAHP@ERROR_PATH_NOT_FOUND?$AA@ 1004f820     dxerr8:dxerr8.obj
 0002:00000838       ??_C@_0BK@BHKKKJME@ERROR_TOO_MANY_OPEN_FILES?$AA@ 1004f838     dxerr8:dxerr8.obj
 0002:00000854       ??_C@_0BE@PONDHKAH@ERROR_ACCESS_DENIED?$AA@ 1004f854     dxerr8:dxerr8.obj
 0002:00000868       ??_C@_0BF@FHABIGNG@ERROR_INVALID_HANDLE?$AA@ 1004f868     dxerr8:dxerr8.obj
 0002:00000880       ??_C@_0BF@JBMLEBKN@ERROR_FILE_NOT_FOUND?$AA@ 1004f880     dxerr8:dxerr8.obj
 0002:00000898       ??_C@_07BKENBJEJ@S_FALSE?$AA@ 1004f898     dxerr8:dxerr8.obj
 0002:000008a0       ??_C@_04LNELPODO@S_OK?$AA@ 1004f8a0     dxerr8:dxerr8.obj
 0002:000008a8       ??_C@_0CA@FAFCGLAE@DMUS_E_INVALID_CONTAINER_OBJECT?$AA@ 1004f8a8     dxerr8:dxerr8.obj
 0002:000008c8       ??_C@_0CC@NEEJAHCC@DMUS_E_AUDIOPATH_NOGLOBALFXBUFFE@ 1004f8c8     dxerr8:dxerr8.obj
 0002:000008ec       ??_C@_0BE@JOAJPCEO@DMUS_E_INVALIDCHUNK?$AA@ 1004f8ec     dxerr8:dxerr8.obj
 0002:00000900       ??_C@_0BE@DLJGKPFC@DMUS_E_NO_AUDIOPATH?$AA@ 1004f900     dxerr8:dxerr8.obj
 0002:00000914       ??_C@_0BI@FGCLNBGP@DMUS_E_AUDIOPATH_NOPORT?$AA@ 1004f914     dxerr8:dxerr8.obj
 0002:0000092c       ??_C@_0BK@NABBLBLA@DMUS_E_AUDIOPATH_NOBUFFER?$AA@ 1004f92c     dxerr8:dxerr8.obj
 0002:00000948       ??_C@_0BK@MFBNGKPH@DMUS_E_AUDIOPATH_INACTIVE?$AA@ 1004f948     dxerr8:dxerr8.obj
 0002:00000964       ??_C@_0BL@LLEIEOMG@DMUS_E_NO_AUDIOPATH_CONFIG?$AA@ 1004f964     dxerr8:dxerr8.obj
 0002:00000980       ??_C@_0BJ@KEAEMBJG@DMUS_E_AUDIOPATHS_IN_USE?$AA@ 1004f980     dxerr8:dxerr8.obj
 0002:0000099c       ??_C@_0BM@LPHOEGGK@DMUS_E_AUDIOPATHS_NOT_VALID?$AA@ 1004f99c     dxerr8:dxerr8.obj
 0002:000009b8       ??_C@_0CG@BJCFLAKB@DMUS_E_AUDIOVBSCRIPT_OPERATIONFA@ 1004f9b8     dxerr8:dxerr8.obj
 0002:000009e0       ??_C@_0CC@CEBIKLKB@DMUS_E_AUDIOVBSCRIPT_RUNTIMEERRO@ 1004f9e0     dxerr8:dxerr8.obj
 0002:00000a04       ??_C@_0CB@GHIDFGPC@DMUS_E_AUDIOVBSCRIPT_SYNTAXERROR@ 1004fa04     dxerr8:dxerr8.obj
 0002:00000a28       ??_C@_0CB@PLGNDAKI@DMUS_E_INVALID_PARAMCONTROLTRACK@ 1004fa28     dxerr8:dxerr8.obj
 0002:00000a4c       ??_C@_0BL@KDOMHMI@DMUS_E_INVALID_LYRICSTRACK?$AA@ 1004fa4c     dxerr8:dxerr8.obj
 0002:00000a68       ??_C@_0CD@DCEGKDEC@DMUS_E_INVALID_SEGMENTTRIGGERTRA@ 1004fa68     dxerr8:dxerr8.obj
 0002:00000a8c       ??_C@_0CC@JEOCEH@DMUS_E_SCRIPT_VALUE_NOT_SUPPORTE@ 1004fa8c     dxerr8:dxerr8.obj
 0002:00000ab0       ??_C@_0BO@GHOLKAIE@DMUS_E_SCRIPT_NOT_A_REFERENCE?$AA@ 1004fab0     dxerr8:dxerr8.obj
 0002:00000ad0       ??_C@_0BP@NMIAKMCM@DMUS_E_SCRIPT_CONTENT_READONLY?$AA@ 1004fad0     dxerr8:dxerr8.obj
 0002:00000af0       ??_C@_0CA@LBHNGADB@DMUS_E_SCRIPT_ROUTINE_NOT_FOUND?$AA@ 1004faf0     dxerr8:dxerr8.obj
 0002:00000b10       ??_C@_0CB@PINFFIBC@DMUS_E_SCRIPT_VARIABLE_NOT_FOUND@ 1004fb10     dxerr8:dxerr8.obj
 0002:00000b34       ??_C@_0BL@PHICBEM@DMUS_E_INVALID_SCRIPTTRACK?$AA@ 1004fb34     dxerr8:dxerr8.obj
 0002:00000b50       ??_C@_0BL@MGMHJCEP@DMUS_E_SCRIPT_INVALID_FILE?$AA@ 1004fb50     dxerr8:dxerr8.obj
 0002:00000b6c       ??_C@_0BP@GBCHNCIO@DMUS_E_SCRIPT_LOADSCRIPT_ERROR?$AA@ 1004fb6c     dxerr8:dxerr8.obj
 0002:00000b8c       ??_C@_0CA@FEIJFGCA@DMUS_E_SCRIPT_CANTLOAD_OLEAUT32?$AA@ 1004fb8c     dxerr8:dxerr8.obj
 0002:00000bac       ??_C@_0BO@ECNKEPAA@DMUS_E_SCRIPT_ERROR_IN_SCRIPT?$AA@ 1004fbac     dxerr8:dxerr8.obj
 0002:00000bcc       ??_C@_0CC@EIPLLIKL@DMUS_E_SCRIPT_UNSUPPORTED_VARTYP@ 1004fbcc     dxerr8:dxerr8.obj
 0002:00000bf0       ??_C@_0CE@EDPOPNFB@DMUS_E_SCRIPT_LANGUAGE_INCOMPATI@ 1004fbf0     dxerr8:dxerr8.obj
 0002:00000c14       ??_C@_0BC@HCDMBBHM@DMUS_E_NOT_LOADED?$AA@ 1004fc14     dxerr8:dxerr8.obj
 0002:00000c28       ??_C@_0BK@NFDAGFLP@DMUS_E_DESCEND_CHUNK_FAIL?$AA@ 1004fc28     dxerr8:dxerr8.obj
 0002:00000c44       ??_C@_0BG@FIHDPJEJ@DMUS_E_CANNOT_CONVERT?$AA@ 1004fc44     dxerr8:dxerr8.obj
 0002:00000c5c       ??_C@_0BI@GLLOIFNL@DMUS_E_CANNOT_OPEN_PORT?$AA@ 1004fc5c     dxerr8:dxerr8.obj
 0002:00000c74       ??_C@_0BD@PHGHCNPA@DMUS_E_CANNOT_FREE?$AA@ 1004fc74     dxerr8:dxerr8.obj
 0002:00000c88       ??_C@_0BE@DCHFOLO@DMUS_E_ALREADY_SENT?$AA@ 1004fc88     dxerr8:dxerr8.obj
 0002:00000c9c       ??_C@_0BJ@PNHNCBDB@DMUS_E_LOADER_NOFILENAME?$AA@ 1004fc9c     dxerr8:dxerr8.obj
 0002:00000cb8       ??_C@_0BD@MDGNMDO@DMUS_E_INVALIDFILE?$AA@ 1004fcb8     dxerr8:dxerr8.obj
 0002:00000ccc       ??_C@_0BG@JIAHCIAB@DMUS_E_ALREADY_EXISTS?$AA@ 1004fccc     dxerr8:dxerr8.obj
 0002:00000ce4       ??_C@_0BE@HEMJPPHG@DMUS_E_OUT_OF_RANGE?$AA@ 1004fce4     dxerr8:dxerr8.obj
 0002:00000cf8       ??_C@_0BL@NFDCILII@DMUS_E_SEGMENT_INIT_FAILED?$AA@ 1004fcf8     dxerr8:dxerr8.obj
 0002:00000d14       ??_C@_0BN@ELJJNIJC@DMUS_E_LOADER_OBJECTNOTFOUND?$AA@ 1004fd14     dxerr8:dxerr8.obj
 0002:00000d34       ??_C@_0BI@CNCKMLIJ@DMUS_E_LOADER_NOCLASSID?$AA@ 1004fd34     dxerr8:dxerr8.obj
 0002:00000d4c       ??_C@_0BG@DKEAGBHO@DMUS_E_LOADER_BADPATH?$AA@ 1004fd4c     dxerr8:dxerr8.obj
 0002:00000d64       ??_C@_0BJ@KIMIDGDN@DMUS_E_LOADER_FAILEDOPEN?$AA@ 1004fd64     dxerr8:dxerr8.obj
 0002:00000d80       ??_C@_0CB@NLDFBEOE@DMUS_E_LOADER_FORMATNOTSUPPORTED@ 1004fd80     dxerr8:dxerr8.obj
 0002:00000da4       ??_C@_0BL@JBOCJDOK@DMUS_E_LOADER_FAILEDCREATE?$AA@ 1004fda4     dxerr8:dxerr8.obj
 0002:00000dc0       ??_C@_0BH@DGGNMLHF@DMUS_E_NO_MASTER_CLOCK?$AA@ 1004fdc0     dxerr8:dxerr8.obj
 0002:00000dd8       ??_C@_0CC@LMIKKBKI@DMUS_E_TRACK_NO_CLOCKTIME_SUPPOR@ 1004fdd8     dxerr8:dxerr8.obj
 0002:00000dfc       ??_C@_0BH@OPDDPMEC@DMUS_E_TRACK_NOT_FOUND?$AA@ 1004fdfc     dxerr8:dxerr8.obj
 0002:00000e14       ??_C@_0BB@IEEJBLOH@DMUS_E_TIME_PAST?$AA@ 1004fe14     dxerr8:dxerr8.obj
 0002:00000e28       ??_C@_0BI@LGKAFGGB@DMUS_E_TYPE_UNSUPPORTED?$AA@ 1004fe28     dxerr8:dxerr8.obj
 0002:00000e40       ??_C@_0BF@NGGCHOML@DMUS_E_TYPE_DISABLED?$AA@ 1004fe40     dxerr8:dxerr8.obj
 0002:00000e58       ??_C@_0BA@CKOCBAIH@DMUS_E_NOT_INIT?$AA@ 1004fe58     dxerr8:dxerr8.obj
 0002:00000e68       ??_C@_0BJ@CGFLIGMN@DMUS_E_ALL_TRACKS_FAILED?$AA@ 1004fe68     dxerr8:dxerr8.obj
 0002:00000e84       ??_C@_0BI@HMFNNFJO@DMUS_E_ALL_TOOLS_FAILED?$AA@ 1004fe84     dxerr8:dxerr8.obj
 0002:00000e9c       ??_C@_0BI@DBGMHJFE@DMUS_E_INVALID_TOOL_HDR?$AA@ 1004fe9c     dxerr8:dxerr8.obj
 0002:00000eb4       ??_C@_0BJ@ECANGKNK@DMUS_E_INVALID_TRACK_HDR?$AA@ 1004feb4     dxerr8:dxerr8.obj
 0002:00000ed0       ??_C@_0BN@GIOFOFHL@DMUS_E_TOOL_HDR_NOT_FIRST_CK?$AA@ 1004fed0     dxerr8:dxerr8.obj
 0002:00000ef0       ??_C@_0BO@EMHFCABJ@DMUS_E_TRACK_HDR_NOT_FIRST_CK?$AA@ 1004fef0     dxerr8:dxerr8.obj
 0002:00000f10       ??_C@_0BE@PIEOPEAI@DMUS_E_INVALID_BAND?$AA@ 1004ff10     dxerr8:dxerr8.obj
 0002:00000f24       ??_C@_0BG@PJINGJL@DMUS_E_ALREADY_INITED?$AA@ 1004ff24     dxerr8:dxerr8.obj
 0002:00000f3c       ??_C@_0BK@LADONFGF@DMUS_E_UNSUPPORTED_STREAM?$AA@ 1004ff3c     dxerr8:dxerr8.obj
 0002:00000f58       ??_C@_0BF@MFKHCHGL@DMUS_E_INVALID_EVENT?$AA@ 1004ff58     dxerr8:dxerr8.obj
 0002:00000f70       ??_C@_0BK@JCFAFFJO@DMUS_E_DSOUND_ALREADY_SET?$AA@ 1004ff70     dxerr8:dxerr8.obj
 0002:00000f8c       ??_C@_0BF@GFIKBHKJ@DMUS_E_SYNTHINACTIVE?$AA@ 1004ff8c     dxerr8:dxerr8.obj
 0002:00000fa4       ??_C@_0BO@CDMMMIGN@DMUS_E_WAVEFORMATNOTSUPPORTED?$AA@ 1004ffa4     dxerr8:dxerr8.obj
 0002:00000fc4       ??_C@_0BF@OICCKIPF@DMUS_E_INVALIDBUFFER?$AA@ 1004ffc4     dxerr8:dxerr8.obj
 0002:00000fdc       ??_C@_0BJ@DAFGPCDM@DMUS_E_ALREADY_ACTIVATED?$AA@ 1004ffdc     dxerr8:dxerr8.obj
 0002:00000ff8       ??_C@_0BG@FKNBCLCG@DMUS_E_DSOUND_NOT_SET?$AA@ 1004fff8     dxerr8:dxerr8.obj
 0002:00001010       ??_C@_0BH@IONJNCON@DMUS_E_PORT_NOT_RENDER?$AA@ 10050010     dxerr8:dxerr8.obj
 0002:00001028       ??_C@_0BI@BOEAEKAH@DMUS_E_PORT_NOT_CAPTURE?$AA@ 10050028     dxerr8:dxerr8.obj
 0002:00001040       ??_C@_0BD@GLDGKFLH@DMUS_E_BUFFER_FULL?$AA@ 10050040     dxerr8:dxerr8.obj
 0002:00001054       ??_C@_0BE@OAOJECJF@DMUS_E_BUFFER_EMPTY?$AA@ 10050054     dxerr8:dxerr8.obj
 0002:00001068       ??_C@_0BH@PJGOMHNE@DMUS_E_DMUSIC_RELEASED?$AA@ 10050068     dxerr8:dxerr8.obj
 0002:00001080       ??_C@_0BC@OOJCFPLM@DMUS_E_CANNOTREAD?$AA@ 10050080     dxerr8:dxerr8.obj
 0002:00001094       ??_C@_0BD@BOMLFMKI@DMUS_E_SYNTHACTIVE?$AA@ 10050094     dxerr8:dxerr8.obj
 0002:000010a8       ??_C@_0BK@JOLEODJ@DMUS_E_SYNTHNOTCONFIGURED?$AA@ 100500a8     dxerr8:dxerr8.obj
 0002:000010c4       ??_C@_0BF@BPBGCLIE@DMUS_E_ALREADYCLOSED?$AA@ 100500c4     dxerr8:dxerr8.obj
 0002:000010dc       ??_C@_0BD@IPOPBPAD@DMUS_E_ALREADYOPEN?$AA@ 100500dc     dxerr8:dxerr8.obj
 0002:000010f0       ??_C@_0BD@EOPIBKEG@DMUS_E_NOSYNTHSINK?$AA@ 100500f0     dxerr8:dxerr8.obj
 0002:00001104       ??_C@_0BH@GDHCMOBL@DMUS_E_UNKNOWNDOWNLOAD?$AA@ 10050104     dxerr8:dxerr8.obj
 0002:0000111c       ??_C@_0BG@PFNNKKKD@DMUS_E_BADOFFSETTABLE?$AA@ 1005011c     dxerr8:dxerr8.obj
 0002:00001134       ??_C@_0P@KODPDEHF@DMUS_E_BADWAVE?$AA@ 10050134     dxerr8:dxerr8.obj
 0002:00001144       ??_C@_0O@ECMHDBDM@DMUS_E_NOTPCM?$AA@ 10050144     dxerr8:dxerr8.obj
 0002:00001154       ??_C@_0BG@LKFIOFPL@DMUS_E_NOARTICULATION?$AA@ 10050154     dxerr8:dxerr8.obj
 0002:0000116c       ??_C@_0BD@EKFCNMK@DMUS_E_BADWAVELINK?$AA@ 1005016c     dxerr8:dxerr8.obj
 0002:00001180       ??_C@_0BF@MDJOLHKE@DMUS_E_BADINSTRUMENT?$AA@ 10050180     dxerr8:dxerr8.obj
 0002:00001198       ??_C@_0BH@CMFGEHBA@DMUS_E_BADARTICULATION?$AA@ 10050198     dxerr8:dxerr8.obj
 0002:000011b0       ??_C@_0P@IICMLKKO@DMUS_E_NOTMONO?$AA@ 100501b0     dxerr8:dxerr8.obj
 0002:000011c0       ??_C@_0BH@CLGILIGJ@DMUS_E_GET_UNSUPPORTED?$AA@ 100501c0     dxerr8:dxerr8.obj
 0002:000011d8       ??_C@_0BH@BJHOMKHA@DMUS_E_SET_UNSUPPORTED?$AA@ 100501d8     dxerr8:dxerr8.obj
 0002:000011f0       ??_C@_0BI@MDPBCOBA@DMUS_E_UNKNOWN_PROPERTY?$AA@ 100501f0     dxerr8:dxerr8.obj
 0002:00001208       ??_C@_0BK@LLDGODE@DMUS_E_ALREADY_DOWNLOADED?$AA@ 10050208     dxerr8:dxerr8.obj
 0002:00001224       ??_C@_0BO@IMDIAEBE@DMUS_E_NOT_DOWNLOADED_TO_PORT?$AA@ 10050224     dxerr8:dxerr8.obj
 0002:00001244       ??_C@_0BK@BBDKEOON@DMUS_E_INVALID_DOWNLOADID?$AA@ 10050244     dxerr8:dxerr8.obj
 0002:00001260       ??_C@_0BF@HLHMPIJE@DMUS_E_CHUNKNOTFOUND?$AA@ 10050260     dxerr8:dxerr8.obj
 0002:00001278       ??_C@_0BD@BEKIIHAG@DMUS_E_CANNOTWRITE?$AA@ 10050278     dxerr8:dxerr8.obj
 0002:0000128c       ??_C@_0BC@FDGDMCBP@DMUS_E_CANNOTSEEK?$AA@ 1005028c     dxerr8:dxerr8.obj
 0002:000012a0       ??_C@_0BE@INBCEHPP@DMUS_E_INVALIDPATCH?$AA@ 100502a0     dxerr8:dxerr8.obj
 0002:000012b4       ??_C@_0BC@DKNEMJLL@DMUS_E_INVALIDPOS?$AA@ 100502b4     dxerr8:dxerr8.obj
 0002:000012c8       ??_C@_0BF@NGGAADHB@DSERR_OBJECTNOTFOUND?$AA@ 100502c8     dxerr8:dxerr8.obj
 0002:000012e0       ??_C@_0BG@PGJFDGMH@DMUS_E_ALREADY_LOADED?$AA@ 100502e0     dxerr8:dxerr8.obj
 0002:000012f8       ??_C@_0BF@DNCKLJCL@DMUS_E_INVALIDOFFSET?$AA@ 100502f8     dxerr8:dxerr8.obj
 0002:00001310       ??_C@_0BC@OMMPPNCJ@DMUS_E_NOTADLSCOL?$AA@ 10050310     dxerr8:dxerr8.obj
 0002:00001324       ??_C@_0BK@HLNNADGD@DMUS_E_BUFFERNOTAVAILABLE?$AA@ 10050324     dxerr8:dxerr8.obj
 0002:00001340       ??_C@_0BE@FHNEBLJO@DMUS_E_BUFFERNOTSET?$AA@ 10050340     dxerr8:dxerr8.obj
 0002:00001354       ??_C@_0BK@GGFANPBE@DMUS_E_INSUFFICIENTBUFFER?$AA@ 10050354     dxerr8:dxerr8.obj
 0002:00001370       ??_C@_0BF@GNFOPDNI@DMUS_E_DEVICE_IN_USE?$AA@ 10050370     dxerr8:dxerr8.obj
 0002:00001388       ??_C@_0BC@KICIODPC@DMUS_E_PORTS_OPEN?$AA@ 10050388     dxerr8:dxerr8.obj
 0002:0000139c       ??_C@_0BF@OGAIBIKN@DMUS_E_DRIVER_FAILED?$AA@ 1005039c     dxerr8:dxerr8.obj
 0002:000013b4       ??_C@_0BI@DBNEKAEK@DSERR_BADSENDBUFFERGUID?$AA@ 100503b4     dxerr8:dxerr8.obj
 0002:000013cc       ??_C@_0BF@EAFEGIOD@DSERR_BUFFERTOOSMALL?$AA@ 100503cc     dxerr8:dxerr8.obj
 0002:000013e4       ??_C@_0BD@JAFCIKKP@DSERR_DS8_REQUIRED?$AA@ 100503e4     dxerr8:dxerr8.obj
 0002:000013f8       ??_C@_0P@BOLIMOKF@DSERR_SENDLOOP?$AA@ 100503f8     dxerr8:dxerr8.obj
 0002:00001408       ??_C@_0BE@BMJCAPGM@DSERR_UNINITIALIZED?$AA@ 10050408     dxerr8:dxerr8.obj
 0002:0000141c       ??_C@_0P@HJFILJLC@DSERR_NODRIVER?$AA@ 1005041c     dxerr8:dxerr8.obj
 0002:0000142c       ??_C@_0BJ@PODLOCNP@DSERR_ALREADYINITIALIZED?$AA@ 1005042c     dxerr8:dxerr8.obj
 0002:00001448       ??_C@_0BB@MLKAOHBD@DSERR_BUFFERLOST?$AA@ 10050448     dxerr8:dxerr8.obj
 0002:0000145c       ??_C@_0BG@JFJBCEJM@DSERR_OTHERAPPHASPRIO?$AA@ 1005045c     dxerr8:dxerr8.obj
 0002:00001474       ??_C@_0BA@ECKDOBJD@DSERR_BADFORMAT?$AA@ 10050474     dxerr8:dxerr8.obj
 0002:00001484       ??_C@_0BF@KBGGCPDE@DSERR_CONTROLUNAVAIL?$AA@ 10050484     dxerr8:dxerr8.obj
 0002:0000149c       ??_C@_0BC@NMCDDLDP@DSERR_INVALIDCALL?$AA@ 1005049c     dxerr8:dxerr8.obj
 0002:000014b0       ??_C@_0BG@FGFOLLAI@DSERR_PRIOLEVELNEEDED?$AA@ 100504b0     dxerr8:dxerr8.obj
 0002:000014c8       ??_C@_0BA@COPOGMBA@DSERR_ALLOCATED?$AA@ 100504c8     dxerr8:dxerr8.obj
 0002:000014d8       ??_C@_0BH@OLPAEDNL@D3DXERR_CANNOTATTRSORT?$AA@ 100504d8     dxerr8:dxerr8.obj
 0002:000014f0       ??_C@_0BN@OFGKBIOG@D3DXERR_SKINNINGNOTSUPPORTED?$AA@ 100504f0     dxerr8:dxerr8.obj
 0002:00001510       ??_C@_0BK@BEMAPGE@D3DXERR_TOOMANYINFLUENCES?$AA@ 10050510     dxerr8:dxerr8.obj
 0002:0000152c       ??_C@_0BE@PJFJKLII@D3DXERR_INVALIDDATA?$AA@ 1005052c     dxerr8:dxerr8.obj
 0002:00001540       ??_C@_0BE@KPKGPDGC@D3DXERR_INVALIDMESH?$AA@ 10050540     dxerr8:dxerr8.obj
 0002:00001554       ??_C@_0BD@NKNFKHMN@D3DERR_INVALIDCALL?$AA@ 10050554     dxerr8:dxerr8.obj
 0002:00001568       ??_C@_0BJ@PINKIGDN@D3DERR_DRIVERINVALIDCALL?$AA@ 10050568     dxerr8:dxerr8.obj
 0002:00001584       ??_C@_0CA@LBFOOIIL@D3DXERR_CANNOTMODIFYINDEXBUFFER?$AA@ 10050584     dxerr8:dxerr8.obj
 0002:000015a4       ??_C@_0BF@IKIMMOMN@D3DERR_INVALIDDEVICE?$AA@ 100505a4     dxerr8:dxerr8.obj
 0002:000015bc       ??_C@_0BA@EMFIIMDH@D3DERR_MOREDATA?$AA@ 100505bc     dxerr8:dxerr8.obj
 0002:000015cc       ??_C@_0BC@EMHBBGDJ@D3DERR_DEVICELOST?$AA@ 100505cc     dxerr8:dxerr8.obj
 0002:000015e0       ??_C@_0BG@ODHIPO@D3DERR_DEVICENOTRESET?$AA@ 100505e0     dxerr8:dxerr8.obj
 0002:000015f8       ??_C@_0BE@EMOOFEGA@D3DERR_NOTAVAILABLE?$AA@ 100505f8     dxerr8:dxerr8.obj
 0002:0000160c       ??_C@_0BA@FEPMNEFM@D3DERR_NOTFOUND?$AA@ 1005060c     dxerr8:dxerr8.obj
 0002:0000161c       ??_C@_0BL@NGLDGHAB@D3DERR_DRIVERINTERNALERROR?$AA@ 1005061c     dxerr8:dxerr8.obj
 0002:00001638       ??_C@_0CB@FNAABFGA@D3DERR_CONFLICTINGTEXTUREPALETTE@ 10050638     dxerr8:dxerr8.obj
 0002:0000165c       ??_C@_0CA@FJBFGLDN@D3DERR_UNSUPPORTEDTEXTUREFILTER?$AA@ 1005065c     dxerr8:dxerr8.obj
 0002:0000167c       ??_C@_0BO@EMDMGLEF@D3DERR_CONFLICTINGRENDERSTATE?$AA@ 1005067c     dxerr8:dxerr8.obj
 0002:0000169c       ??_C@_0BO@MOJGBOAN@D3DERR_UNSUPPORTEDFACTORVALUE?$AA@ 1005069c     dxerr8:dxerr8.obj
 0002:000016bc       ??_C@_0CA@CFPOKCEH@D3DERR_CONFLICTINGTEXTUREFILTER?$AA@ 100506bc     dxerr8:dxerr8.obj
 0002:000016dc       ??_C@_0BJ@INFNOJNF@D3DERR_TOOMANYOPERATIONS?$AA@ 100506dc     dxerr8:dxerr8.obj
 0002:000016f8       ??_C@_0BL@BJOJBFEN@D3DERR_UNSUPPORTEDALPHAARG?$AA@ 100506f8     dxerr8:dxerr8.obj
 0002:00001714       ??_C@_0CB@JPKBHPNI@D3DERR_UNSUPPORTEDALPHAOPERATION@ 10050714     dxerr8:dxerr8.obj
 0002:00001738       ??_C@_0BL@CDKLBBHI@D3DERR_UNSUPPORTEDCOLORARG?$AA@ 10050738     dxerr8:dxerr8.obj
 0002:00001754       ??_C@_0CB@CGHHLPPG@D3DERR_UNSUPPORTEDCOLOROPERATION@ 10050754     dxerr8:dxerr8.obj
 0002:00001778       ??_C@_0BK@BPHFHCLE@D3DERR_WRONGTEXTUREFORMAT?$AA@ 10050778     dxerr8:dxerr8.obj
 0002:00001794       ??_C@_0BF@LKDNLDCD@DXFILEERR_NOINTERNET?$AA@ 10050794     dxerr8:dxerr8.obj
 0002:000017ac       ??_C@_0BH@DJCMIELE@DXFILEERR_BADCACHEFILE?$AA@ 100507ac     dxerr8:dxerr8.obj
 0002:000017c4       ??_C@_0BF@NFDJIKKM@DXFILEERR_NOMOREDATA?$AA@ 100507c4     dxerr8:dxerr8.obj
 0002:000017dc       ??_C@_0BO@KCFFMMAH@DXFILEERR_NOMORESTREAMHANDLES?$AA@ 100507dc     dxerr8:dxerr8.obj
 0002:000017fc       ??_C@_0BI@FJCNLPGO@DXFILEERR_BADINTRINSICS?$AA@ 100507fc     dxerr8:dxerr8.obj
 0002:00001814       ??_C@_0BI@JNFHOANA@DXFILEERR_NOMOREOBJECTS?$AA@ 10050814     dxerr8:dxerr8.obj
 0002:0000182c       ??_C@_0BI@FDKJFPKD@DXFILEERR_INTERNALERROR?$AA@ 1005082c     dxerr8:dxerr8.obj
 0002:00001844       ??_C@_0BL@MOIGKKOH@DXFILEERR_BADDATAREFERENCE?$AA@ 10050844     dxerr8:dxerr8.obj
 0002:00001860       ??_C@_0BH@EJKCFLIL@DXFILEERR_BADARRAYSIZE?$AA@ 10050860     dxerr8:dxerr8.obj
 0002:00001878       ??_C@_0BF@NCALJDIE@DXFILEERR_NOTEMPLATE?$AA@ 10050878     dxerr8:dxerr8.obj
 0002:00001890       ??_C@_0BF@BBPEMJAG@DXFILEERR_PARSEERROR?$AA@ 10050890     dxerr8:dxerr8.obj
 0002:000018a8       ??_C@_0BC@MPHKGJOB@DXFILEERR_BADFILE?$AA@ 100508a8     dxerr8:dxerr8.obj
 0002:000018bc       ??_C@_0CB@BGBKDDHG@DXFILEERR_BADFILECOMPRESSIONTYPE@ 100508bc     dxerr8:dxerr8.obj
 0002:000018e0       ??_C@_0BL@BBBJNMCP@DXFILEERR_BADFILEFLOATSIZE?$AA@ 100508e0     dxerr8:dxerr8.obj
 0002:000018fc       ??_C@_0BJ@FPMPPGLG@DXFILEERR_BADFILEVERSION?$AA@ 100508fc     dxerr8:dxerr8.obj
 0002:00001918       ??_C@_0BG@GNOKCEHM@DXFILEERR_BADFILETYPE?$AA@ 10050918     dxerr8:dxerr8.obj
 0002:00001930       ??_C@_0BG@PGFFOJH@DXFILEERR_BADRESOURCE?$AA@ 10050930     dxerr8:dxerr8.obj
 0002:00001948       ??_C@_0BG@MMPOGPLJ@DXFILEERR_URLNOTFOUND?$AA@ 10050948     dxerr8:dxerr8.obj
 0002:00001960       ??_C@_0BL@IDLPKGHF@DXFILEERR_RESOURCENOTFOUND?$AA@ 10050960     dxerr8:dxerr8.obj
 0002:0000197c       ??_C@_0BH@OLPIDICN@DXFILEERR_FILENOTFOUND?$AA@ 1005097c     dxerr8:dxerr8.obj
 0002:00001994       ??_C@_0BF@GGGCBGIO@DXFILEERR_NOTDONEYET?$AA@ 10050994     dxerr8:dxerr8.obj
 0002:000019ac       ??_C@_0BD@HJLDFNDK@DXFILEERR_NOTFOUND?$AA@ 100509ac     dxerr8:dxerr8.obj
 0002:000019c0       ??_C@_0BD@NEOEIOFP@DXFILEERR_BADALLOC?$AA@ 100509c0     dxerr8:dxerr8.obj
 0002:000019d4       ??_C@_0BK@JIBNKPHL@DXFILEERR_BADSTREAMHANDLE?$AA@ 100509d4     dxerr8:dxerr8.obj
 0002:000019f0       ??_C@_0BC@JAHPKAII@DXFILEERR_BADTYPE?$AA@ 100509f0     dxerr8:dxerr8.obj
 0002:00001a04       ??_C@_0BD@HFEMPJON@DXFILEERR_BADVALUE?$AA@ 10050a04     dxerr8:dxerr8.obj
 0002:00001a18       ??_C@_0BE@KPBPDPFC@DXFILEERR_BADOBJECT?$AA@ 10050a18     dxerr8:dxerr8.obj
 0002:00001a2c       ??_C@_0BN@KNLDEANB@DDERR_DEVICEDOESNTOWNSURFACE?$AA@ 10050a2c     dxerr8:dxerr8.obj
 0002:00001a4c       ??_C@_0BG@FKDJDMHA@DDERR_NODRIVERSUPPORT?$AA@ 10050a4c     dxerr8:dxerr8.obj
 0002:00001a64       ??_C@_0BL@EFEBFOMC@DDERR_NOMONITORINFORMATION?$AA@ 10050a64     dxerr8:dxerr8.obj
 0002:00001a80       ??_C@_0BF@DPOKKEIF@DDERR_VIDEONOTACTIVE?$AA@ 10050a80     dxerr8:dxerr8.obj
 0002:00001a98       ??_C@_0BI@MNADDBAC@DDERR_D3DNOTINITIALIZED?$AA@ 10050a98     dxerr8:dxerr8.obj
 0002:00001ab0       ??_C@_0O@DBFLIBLJ@DDERR_NEWMODE?$AA@ 10050ab0     dxerr8:dxerr8.obj
 0002:00001ac0       ??_C@_0BD@NFBNMILD@DDERR_TESTFINISHED?$AA@ 10050ac0     dxerr8:dxerr8.obj
 0002:00001ad4       ??_C@_0O@DIBHCCKN@DDERR_EXPIRED?$AA@ 10050ad4     dxerr8:dxerr8.obj
 0002:00001ae4       ??_C@_0P@BACCKLEO@DDERR_MOREDATA?$AA@ 10050ae4     dxerr8:dxerr8.obj
 0002:00001af4       ??_C@_0BE@ELKGHCMM@DDERR_NOTPAGELOCKED?$AA@ 10050af4     dxerr8:dxerr8.obj
 0002:00001b08       ??_C@_0BF@MPOCMAGG@DDERR_CANTPAGEUNLOCK?$AA@ 10050b08     dxerr8:dxerr8.obj
 0002:00001b20       ??_C@_0BD@GIBKCHPD@DDERR_CANTPAGELOCK?$AA@ 10050b20     dxerr8:dxerr8.obj
 0002:00001b34       ??_C@_0BH@NGNFGAPP@DDERR_NONONLOCALVIDMEM?$AA@ 10050b34     dxerr8:dxerr8.obj
 0002:00001b4c       ??_C@_0BH@BBAKKFGG@DDERR_DCALREADYCREATED?$AA@ 10050b4c     dxerr8:dxerr8.obj
 0002:00001b64       ??_C@_0BK@DGLNEGDN@DDERR_NOTONMIPMAPSUBLEVEL?$AA@ 10050b64     dxerr8:dxerr8.obj
 0002:00001b80       ??_C@_0BE@NFJHIIEO@DDERR_NOFOCUSWINDOW?$AA@ 10050b80     dxerr8:dxerr8.obj
 0002:00001b94       ??_C@_0BA@IAHGDMOK@DDERR_NOTLOADED?$AA@ 10050b94     dxerr8:dxerr8.obj
 0002:00001ba4       ??_C@_0BD@DJOGAOFP@DDERR_NOOPTIMIZEHW?$AA@ 10050ba4     dxerr8:dxerr8.obj
 0002:00001bb8       ??_C@_0BJ@HPBNNCIB@DDERR_INVALIDSURFACETYPE?$AA@ 10050bb8     dxerr8:dxerr8.obj
 0002:00001bd4       ??_C@_0BB@LNEPLBGC@DDERR_NOMIPMAPHW?$AA@ 10050bd4     dxerr8:dxerr8.obj
 0002:00001be8       ??_C@_0BG@GJEKJFBD@DDERR_UNSUPPORTEDMODE?$AA@ 10050be8     dxerr8:dxerr8.obj
 0002:00001c00       ??_C@_0BE@FGMGOELL@DDERR_NOTPALETTIZED?$AA@ 10050c00     dxerr8:dxerr8.obj
 0002:00001c14       ??_C@_0BI@NLHHKHEN@DDERR_IMPLICITLYCREATED?$AA@ 10050c14     dxerr8:dxerr8.obj
 0002:00001c2c       ??_C@_0BA@FGHHLMKB@DDERR_WRONGMODE?$AA@ 10050c2c     dxerr8:dxerr8.obj
 0002:00001c3c       ??_C@_0L@CHFPOEHC@DDERR_NODC?$AA@ 10050c3c     dxerr8:dxerr8.obj
 0002:00001c48       ??_C@_0BD@PBNGJMBK@DDERR_CANTCREATEDC?$AA@ 10050c48     dxerr8:dxerr8.obj
 0002:00001c5c       ??_C@_0BA@KCNFHPNM@DDERR_NOTLOCKED?$AA@ 10050c5c     dxerr8:dxerr8.obj
 0002:00001c6c       ??_C@_0BE@LNBDBNLL@DDERR_CANTDUPLICATE?$AA@ 10050c6c     dxerr8:dxerr8.obj
 0002:00001c80       ??_C@_0BD@FOFDLEGO@DDERR_NOTFLIPPABLE?$AA@ 10050c80     dxerr8:dxerr8.obj
 0002:00001c94       ??_C@_0BO@GMCKLDPA@DDERR_EXCLUSIVEMODEALREADYSET?$AA@ 10050c94     dxerr8:dxerr8.obj
 0002:00001cb4       ??_C@_0BJ@LGNAEONK@DDERR_NOTAOVERLAYSURFACE?$AA@ 10050cb4     dxerr8:dxerr8.obj
 0002:00001cd0       ??_C@_0BG@OMJGFIHE@DDERR_INVALIDPOSITION?$AA@ 10050cd0     dxerr8:dxerr8.obj
 0002:00001ce8       ??_C@_0BE@JKKEKLOE@DDERR_NOOVERLAYDEST?$AA@ 10050ce8     dxerr8:dxerr8.obj
 0002:00001cfc       ??_C@_0BI@CLLMFLGN@DDERR_OVERLAYNOTVISIBLE?$AA@ 10050cfc     dxerr8:dxerr8.obj
 0002:00001d14       ??_C@_0BB@BPILLDBG@DDERR_NODDROPSHW?$AA@ 10050d14     dxerr8:dxerr8.obj
 0002:00001d28       ??_C@_0O@NKGDNEG@DDERR_NOBLTHW?$AA@ 10050d28     dxerr8:dxerr8.obj
 0002:00001d38       ??_C@_0BG@HLNKGEOE@DDERR_BLTFASTCANTCLIP?$AA@ 10050d38     dxerr8:dxerr8.obj
 0002:00001d50       ??_C@_0BC@GEADEPGN@DDERR_NOPALETTEHW?$AA@ 10050d50     dxerr8:dxerr8.obj
 0002:00001d64       ??_C@_0BI@KBKHCNLK@DDERR_NOPALETTEATTACHED?$AA@ 10050d64     dxerr8:dxerr8.obj
 0002:00001d7c       ??_C@_0BF@LGLNHCHJ@DDERR_HWNDALREADYSET?$AA@ 10050d7c     dxerr8:dxerr8.obj
 0002:00001d94       ??_C@_0BF@MAFLBECE@DDERR_HWNDSUBCLASSED?$AA@ 10050d94     dxerr8:dxerr8.obj
 0002:00001dac       ??_C@_0N@EOPEBNEI@DDERR_NOHWND?$AA@ 10050dac     dxerr8:dxerr8.obj
 0002:00001dbc       ??_C@_0BI@BGMBBEJL@DDERR_NOCLIPPERATTACHED?$AA@ 10050dbc     dxerr8:dxerr8.obj
 0002:00001dd4       ??_C@_0BJ@BOEHMDDM@DDERR_CLIPPERISUSINGHWND?$AA@ 10050dd4     dxerr8:dxerr8.obj
 0002:00001df0       ??_C@_0BF@BDDJLJGA@DDERR_REGIONTOOSMALL?$AA@ 10050df0     dxerr8:dxerr8.obj
 0002:00001e08       ??_C@_0BC@DCFOAKAL@DDERR_NOEMULATION?$AA@ 10050e08     dxerr8:dxerr8.obj
 0002:00001e1c       ??_C@_0CC@FKFBEMJC@DDERR_PRIMARYSURFACEALREADYEXIST@ 10050e1c     dxerr8:dxerr8.obj
 0002:00001e40       ??_C@_0BF@NOEHEIDL@DDERR_NODIRECTDRAWHW?$AA@ 10050e40     dxerr8:dxerr8.obj
 0002:00001e58       ??_C@_0BP@CFDPGCFK@DDERR_DIRECTDRAWALREADYCREATED?$AA@ 10050e58     dxerr8:dxerr8.obj
 0002:00001e78       ??_C@_0BM@LMDGBJFD@DDERR_INVALIDDIRECTDRAWGUID?$AA@ 10050e78     dxerr8:dxerr8.obj
 0002:00001e94       ??_C@_0N@MAIIIAKF@DDERR_XALIGN?$AA@ 10050e94     dxerr8:dxerr8.obj
 0002:00001ea4       ??_C@_0BN@BHNGJHFA@DDERR_DDSCAPSCOMPLEXREQUIRED?$AA@ 10050ea4     dxerr8:dxerr8.obj
 0002:00001ec4       ??_C@_0BG@PNJKHKJC@DDERR_WASSTILLDRAWING?$AA@ 10050ec4     dxerr8:dxerr8.obj
 0002:00001edc       ??_C@_0BO@CKEGAAHC@DDERR_VERTICALBLANKINPROGRESS?$AA@ 10050edc     dxerr8:dxerr8.obj
 0002:00001efc       ??_C@_0BE@BCDLBAEK@DDERR_INVALIDSTREAM?$AA@ 10050efc     dxerr8:dxerr8.obj
 0002:00001f10       ??_C@_0BG@OHPHKFL@DDERR_UNSUPPORTEDMASK?$AA@ 10050f10     dxerr8:dxerr8.obj
 0002:00001f28       ??_C@_0BB@IBDADILM@DDERR_TOOBIGSIZE?$AA@ 10050f28     dxerr8:dxerr8.obj
 0002:00001f3c       ??_C@_0BC@MMEFKBGP@DDERR_TOOBIGWIDTH?$AA@ 10050f3c     dxerr8:dxerr8.obj
 0002:00001f50       ??_C@_0BI@GGBGCOID@DDERR_UNSUPPORTEDFORMAT?$AA@ 10050f50     dxerr8:dxerr8.obj
 0002:00001f68       ??_C@_0BD@FPHOLBKE@DDERR_TOOBIGHEIGHT?$AA@ 10050f68     dxerr8:dxerr8.obj
 0002:00001f7c       ??_C@_0BG@IADNDEGE@DDERR_CANTLOCKSURFACE?$AA@ 10050f7c     dxerr8:dxerr8.obj
 0002:00001f94       ??_C@_0BI@KAHOANAA@DDERR_SURFACEISOBSCURED?$AA@ 10050f94     dxerr8:dxerr8.obj
 0002:00001fac       ??_C@_0BC@OOFFFAGE@DDERR_SURFACELOST?$AA@ 10050fac     dxerr8:dxerr8.obj
 0002:00001fc0       ??_C@_0BJ@DMNBOKFJ@DDERR_SURFACENOTATTACHED?$AA@ 10050fc0     dxerr8:dxerr8.obj
 0002:00001fdc       ??_C@_0BC@NLGPCHLD@DDERR_SURFACEBUSY?$AA@ 10050fdc     dxerr8:dxerr8.obj
 0002:00001ff0       ??_C@_0BC@CEBGFCJL@DDERR_PALETTEBUSY?$AA@ 10050ff0     dxerr8:dxerr8.obj
 0002:00002004       ??_C@_0BF@HOAOBBGM@DDERR_COLORKEYNOTSET?$AA@ 10051004     dxerr8:dxerr8.obj
 0002:0000201c       ??_C@_0BN@DLNFLDJF@DDERR_SURFACEALREADYATTACHED?$AA@ 1005101c     dxerr8:dxerr8.obj
 0002:0000203c       ??_C@_0BO@HOHOGLO@DDERR_SURFACEALREADYDEPENDENT?$AA@ 1005103c     dxerr8:dxerr8.obj
 0002:0000205c       ??_C@_0CD@JNABKIAN@DDERR_OVERLAYCOLORKEYONLYONEACTI@ 1005105c     dxerr8:dxerr8.obj
 0002:00002080       ??_C@_0BD@IFBPLCFK@DDERR_NOZOVERLAYHW?$AA@ 10051080     dxerr8:dxerr8.obj
 0002:00002094       ??_C@_0BA@BCMNJCDB@DDERR_OUTOFCAPS?$AA@ 10051094     dxerr8:dxerr8.obj
 0002:000020a4       ??_C@_0BI@GJDGNNKD@D3DERR_OUTOFVIDEOMEMORY?$AA@ 100510a4     dxerr8:dxerr8.obj
 0002:000020bc       ??_C@_0BG@EDDFCCOG@DDERR_OVERLAYCANTCLIP?$AA@ 100510bc     dxerr8:dxerr8.obj
 0002:000020d4       ??_C@_0BC@MGOAKBHI@DDERR_NOZBUFFERHW?$AA@ 100510d4     dxerr8:dxerr8.obj
 0002:000020e8       ??_C@_0BD@FHDGHNGM@DDERR_NOT8BITCOLOR?$AA@ 100510e8     dxerr8:dxerr8.obj
 0002:000020fc       ??_C@_0BC@ENEADALF@DDERR_NOTEXTUREHW?$AA@ 100510fc     dxerr8:dxerr8.obj
 0002:00002110       ??_C@_0BA@PAPKELJP@DDERR_NOVSYNCHW?$AA@ 10051110     dxerr8:dxerr8.obj
 0002:00002120       ??_C@_0BI@IKKPPDMJ@DDERR_NOT4BITCOLORINDEX?$AA@ 10051120     dxerr8:dxerr8.obj
 0002:00002138       ??_C@_0BD@ICAOCHBG@DDERR_NORASTEROPHW?$AA@ 10051138     dxerr8:dxerr8.obj
 0002:0000214c       ??_C@_0BD@NEIDAAKN@DDERR_NOROTATIONHW?$AA@ 1005114c     dxerr8:dxerr8.obj
 0002:00002160       ??_C@_0BC@CAPIEDAG@DDERR_NOSTRETCHHW?$AA@ 10051160     dxerr8:dxerr8.obj
 0002:00002174       ??_C@_0BD@ENAKJNOC@DDERR_NOT4BITCOLOR?$AA@ 10051174     dxerr8:dxerr8.obj
 0002:00002188       ??_C@_0BH@CPKIKHCK@DDERR_OVERLAPPINGRECTS?$AA@ 10051188     dxerr8:dxerr8.obj
 0002:000021a0       ??_C@_0BB@MNGJGGOP@DDERR_NOMIRRORHW?$AA@ 100511a0     dxerr8:dxerr8.obj
 0002:000021b4       ??_C@_0P@IIGPDCF@DDERR_NOTFOUND?$AA@ 100511b4     dxerr8:dxerr8.obj
 0002:000021c4       ??_C@_0BC@JKHLHDPI@DDERR_NOOVERLAYHW?$AA@ 100511c4     dxerr8:dxerr8.obj
 0002:000021d8       ??_C@_0M@IIGNACND@DDERR_NOGDI?$AA@ 100511d8     dxerr8:dxerr8.obj
 0002:000021e4       ??_C@_0BD@BAAPAKEL@DDERR_NOCOLORKEYHW?$AA@ 100511e4     dxerr8:dxerr8.obj
 0002:000021f8       ??_C@_0BK@BCHEFLBM@DDERR_NODIRECTDRAWSUPPORT?$AA@ 100511f8     dxerr8:dxerr8.obj
 0002:00002214       ??_C@_0BG@DHFIFBBC@DDERR_NOEXCLUSIVEMODE?$AA@ 10051214     dxerr8:dxerr8.obj
 0002:0000222c       ??_C@_0P@IEKAGFBG@DDERR_NOFLIPHW?$AA@ 1005122c     dxerr8:dxerr8.obj
 0002:0000223c       ??_C@_0BB@GIFHLHNH@DDERR_NOCOLORKEY?$AA@ 1005123c     dxerr8:dxerr8.obj
 0002:00002250       ??_C@_0BB@JOLMGPDK@DDERR_NOCLIPLIST?$AA@ 10051250     dxerr8:dxerr8.obj
 0002:00002264       ??_C@_0BE@PDOMLOPD@DDERR_NOCOLORCONVHW?$AA@ 10051264     dxerr8:dxerr8.obj
 0002:00002278       ??_C@_0BM@PMEMMDPI@DDERR_NOCOOPERATIVELEVELSET?$AA@ 10051278     dxerr8:dxerr8.obj
 0002:00002294       ??_C@_0BE@GMBJAIDG@DDERR_NOSURFACELEFT?$AA@ 10051294     dxerr8:dxerr8.obj
 0002:000022a8       ??_C@_0BF@MAGKOGBC@DDERR_LOCKEDSURFACES?$AA@ 100512a8     dxerr8:dxerr8.obj
 0002:000022c0       ??_C@_0L@DJKAAMGA@DDERR_NO3D?$AA@ 100512c0     dxerr8:dxerr8.obj
 0002:000022cc       ??_C@_0BA@BFFEPDGJ@DDERR_NOALPHAHW?$AA@ 100512cc     dxerr8:dxerr8.obj
 0002:000022dc       ??_C@_0BH@HOBBEKCG@DDERR_NOSTEREOHARDWARE?$AA@ 100512dc     dxerr8:dxerr8.obj
 0002:000022f4       ??_C@_0BC@LAEFCIAI@DDERR_INVALIDRECT?$AA@ 100512f4     dxerr8:dxerr8.obj
 0002:00002308       ??_C@_0BG@OFKCMNHM@DDERR_INVALIDCLIPLIST?$AA@ 10051308     dxerr8:dxerr8.obj
 0002:00002320       ??_C@_0BC@GLNOPNKK@DDERR_INVALIDMODE?$AA@ 10051320     dxerr8:dxerr8.obj
 0002:00002334       ??_C@_0BE@KPNOKGED@DDERR_INVALIDOBJECT?$AA@ 10051334     dxerr8:dxerr8.obj
 0002:00002348       ??_C@_0BJ@PEGADMFO@DDERR_INVALIDPIXELFORMAT?$AA@ 10051348     dxerr8:dxerr8.obj
 0002:00002364       ??_C@_0BC@DDIGIKID@DDERR_INVALIDCAPS?$AA@ 10051364     dxerr8:dxerr8.obj
 0002:00002378       ??_C@_0BI@CPFFLGJD@DDERR_CURRENTLYNOTAVAIL?$AA@ 10051378     dxerr8:dxerr8.obj
 0002:00002390       ??_C@_0BA@MEDIIHJ@DDERR_EXCEPTION?$AA@ 10051390     dxerr8:dxerr8.obj
 0002:000023a0       ??_C@_0BC@FNNCOGNH@DDERR_HEIGHTALIGN?$AA@ 100513a0     dxerr8:dxerr8.obj
 0002:000023b4       ??_C@_0BK@HJOPGIGH@DDERR_INCOMPATIBLEPRIMARY?$AA@ 100513b4     dxerr8:dxerr8.obj
 0002:000023d0       ??_C@_0BK@FMONFDPK@DDERR_CANNOTDETACHSURFACE?$AA@ 100513d0     dxerr8:dxerr8.obj
 0002:000023ec       ??_C@_0BC@FINOPAKH@DPNERR_USERCANCEL?$AA@ 100513ec     dxerr8:dxerr8.obj
 0002:00002400       ??_C@_0BJ@LAEIKKJF@DDERR_ALREADYINITIALIZED?$AA@ 10051400     dxerr8:dxerr8.obj
 0002:0000241c       ??_C@_0BK@LBNPECMI@DDERR_CANNOTATTACHSURFACE?$AA@ 1005141c     dxerr8:dxerr8.obj
 0002:00002438       ??_C@_0BF@DOBJPDGJ@DPNERR_UNINITIALIZED?$AA@ 10051438     dxerr8:dxerr8.obj
 0002:00002450       ??_C@_0BE@CBDNEDEE@DPNERR_SENDTOOLARGE?$AA@ 10051450     dxerr8:dxerr8.obj
 0002:00002464       ??_C@_0BD@NJJFBJEM@DPNERR_SESSIONFULL?$AA@ 10051464     dxerr8:dxerr8.obj
 0002:00002478       ??_C@_0BB@KAPJEHCC@DPNERR_TABLEFULL?$AA@ 10051478     dxerr8:dxerr8.obj
 0002:0000248c       ??_C@_0BA@EMBOJDKM@DPNERR_TIMEDOUT?$AA@ 1005148c     dxerr8:dxerr8.obj
 0002:0000249c       ??_C@_0BK@HMCDDEA@DPNERR_PLAYERNOTREACHABLE?$AA@ 1005149c     dxerr8:dxerr8.obj
 0002:000024b8       ??_C@_0P@JCEBAEKD@DPNERR_NOTHOST?$AA@ 100514b8     dxerr8:dxerr8.obj
 0002:000024c8       ??_C@_0BA@CKPPFAHD@DPNERR_NOTREADY?$AA@ 100514c8     dxerr8:dxerr8.obj
 0002:000024d8       ??_C@_0BF@GMKPMBLG@DPNERR_NOTREGISTERED?$AA@ 100514d8     dxerr8:dxerr8.obj
 0002:000024f0       ??_C@_0BC@LDJOCFJG@DPNERR_PLAYERLOST?$AA@ 100514f0     dxerr8:dxerr8.obj
 0002:00002504       ??_C@_0BC@MBAALCPD@DPNERR_NOTALLOWED?$AA@ 10051504     dxerr8:dxerr8.obj
 0002:00002518       ??_C@_0BE@GJMILOIE@DPNERR_NOCONNECTION?$AA@ 10051518     dxerr8:dxerr8.obj
 0002:0000252c       ??_C@_0BE@CNFECHFP@DPNERR_NOHOSTPLAYER?$AA@ 1005152c     dxerr8:dxerr8.obj
 0002:00002540       ??_C@_0BP@DIHBIEIB@DPNERR_NOMOREADDRESSCOMPONENTS?$AA@ 10051540     dxerr8:dxerr8.obj
 0002:00002560       ??_C@_0BC@PPHDBNNC@DPNERR_NORESPONSE?$AA@ 10051560     dxerr8:dxerr8.obj
 0002:00002574       ??_C@_0O@EHDOENHE@DPNERR_NOCAPS?$AA@ 10051574     dxerr8:dxerr8.obj
 0002:00002584       ??_C@_0BF@NCKJEMAB@DPNERR_INVALIDSTRING?$AA@ 10051584     dxerr8:dxerr8.obj
 0002:0000259c       ??_C@_0BC@HFKLLDBM@DPNERR_INVALIDURL?$AA@ 1005159c     dxerr8:dxerr8.obj
 0002:000025b0       ??_C@_0BG@CJPCIEGN@DPNERR_INVALIDVERSION?$AA@ 100515b0     dxerr8:dxerr8.obj
 0002:000025c8       ??_C@_0BH@GPBAJNPJ@DPNERR_INVALIDPRIORITY?$AA@ 100515c8     dxerr8:dxerr8.obj
 0002:000025e0       ??_C@_0BI@GPKHJHEM@DPNERR_INVALIDINTERFACE?$AA@ 100515e0     dxerr8:dxerr8.obj
 0002:000025f8       ??_C@_0BF@NECJOKAH@DPNERR_INVALIDOBJECT?$AA@ 100515f8     dxerr8:dxerr8.obj
 0002:00002610       ??_C@_0BH@DMPEGKFD@DPNERR_INVALIDPASSWORD?$AA@ 10051610     dxerr8:dxerr8.obj
 0002:00002628       ??_C@_0BF@EAHNGFFC@DPNERR_INVALIDPLAYER?$AA@ 10051628     dxerr8:dxerr8.obj
 0002:00002640       ??_C@_0BH@KLFBEBCM@DPNERR_INVALIDINSTANCE?$AA@ 10051640     dxerr8:dxerr8.obj
 0002:00002658       ??_C@_0BE@PIKENOBJ@DPNERR_INVALIDFLAGS?$AA@ 10051658     dxerr8:dxerr8.obj
 0002:0000266c       ??_C@_0BE@DIHIHHLB@DPNERR_INVALIDGROUP?$AA@ 1005166c     dxerr8:dxerr8.obj
 0002:00002680       ??_C@_0BF@ICKDADKP@DPNERR_INVALIDHANDLE?$AA@ 10051680     dxerr8:dxerr8.obj
 0002:00002698       ??_C@_0BK@KGGBCBLD@DPNERR_INVALIDHOSTADDRESS?$AA@ 10051698     dxerr8:dxerr8.obj
 0002:000026b4       ??_C@_0BH@NGLGEPF@DPNERR_INVALIDENDPOINT?$AA@ 100516b4     dxerr8:dxerr8.obj
 0002:000026cc       ??_C@_0BM@PNDMJPGH@DPNERR_INVALIDADDRESSFORMAT?$AA@ 100516cc     dxerr8:dxerr8.obj
 0002:000026e8       ??_C@_0BK@JDKALINN@DPNERR_INVALIDAPPLICATION?$AA@ 100516e8     dxerr8:dxerr8.obj
 0002:00002704       ??_C@_0BG@KKBANHJD@DPNERR_INVALIDCOMMAND?$AA@ 10051704     dxerr8:dxerr8.obj
 0002:0000271c       ??_C@_0BM@ENKIENFF@DPNERR_INVALIDDEVICEADDRESS?$AA@ 1005171c     dxerr8:dxerr8.obj
 0002:00002738       ??_C@_0BJ@GBCONKGB@DPNERR_INCOMPLETEADDRESS?$AA@ 10051738     dxerr8:dxerr8.obj
 0002:00002754       ??_C@_0BB@FCEAHPKF@DPNERR_EXCEPTION?$AA@ 10051754     dxerr8:dxerr8.obj
 0002:00002768       ??_C@_0BF@LLPEJIPC@DPNERR_GROUPNOTEMPTY?$AA@ 10051768     dxerr8:dxerr8.obj
 0002:00002780       ??_C@_0P@LMEBGJHC@DPNERR_HOSTING?$AA@ 10051780     dxerr8:dxerr8.obj
 0002:00002790       ??_C@_0BO@ECKDDIED@DPNERR_HOSTREJECTEDCONNECTION?$AA@ 10051790     dxerr8:dxerr8.obj
 0002:000027b0       ??_C@_0BN@EFOCFNJB@DPNERR_HOSTTERMINATEDSESSION?$AA@ 100517b0     dxerr8:dxerr8.obj
 0002:000027d0       ??_C@_0BM@EIHGJBIO@DPNERR_ENUMRESPONSETOOLARGE?$AA@ 100517d0     dxerr8:dxerr8.obj
 0002:000027ec       ??_C@_0BC@LOOBOGC@DPNERR_CONVERSION?$AA@ 100517ec     dxerr8:dxerr8.obj
 0002:00002800       ??_C@_0BE@EBDPIPLC@DPNERR_DATATOOLARGE?$AA@ 10051800     dxerr8:dxerr8.obj
 0002:00002814       ??_C@_0BE@DNALEKLA@DPNERR_DOESNOTEXIST?$AA@ 10051814     dxerr8:dxerr8.obj
 0002:00002828       ??_C@_0BI@MEDCKCFA@DPNERR_DUPLICATECOMMAND?$AA@ 10051828     dxerr8:dxerr8.obj
 0002:00002840       ??_C@_0BM@IIDPGHKJ@DPNERR_ENDPOINTNOTRECEIVING?$AA@ 10051840     dxerr8:dxerr8.obj
 0002:0000285c       ??_C@_0BJ@HDEJJFCD@DPNERR_ENUMQUERYTOOLARGE?$AA@ 1005185c     dxerr8:dxerr8.obj
 0002:00002878       ??_C@_0BG@JIPIFPJP@DPNERR_CONNECTIONLOST?$AA@ 10051878     dxerr8:dxerr8.obj
 0002:00002890       ??_C@_0BE@ENNHAOFP@DPNERR_CANNOTCANCEL?$AA@ 10051890     dxerr8:dxerr8.obj
 0002:000028a4       ??_C@_0BH@IACFFNBF@DPNERR_CANTCREATEGROUP?$AA@ 100518a4     dxerr8:dxerr8.obj
 0002:000028bc       ??_C@_0BI@JBHOFPIJ@DPNERR_CANTCREATEPLAYER?$AA@ 100518bc     dxerr8:dxerr8.obj
 0002:000028d4       ??_C@_0BN@CMDOMJBH@DPNERR_CANTLAUNCHAPPLICATION?$AA@ 100518d4     dxerr8:dxerr8.obj
 0002:000028f4       ??_C@_0BC@OBKOIKM@DPNERR_CONNECTING?$AA@ 100518f4     dxerr8:dxerr8.obj
 0002:00002908       ??_C@_0BG@DABMBHJA@DPNERR_BUFFERTOOSMALL?$AA@ 10051908     dxerr8:dxerr8.obj
 0002:00002920       ??_C@_0BC@KBFKNKOL@DPNERR_ADDRESSING?$AA@ 10051920     dxerr8:dxerr8.obj
 0002:00002934       ??_C@_0BG@GJMEAEJI@DPNERR_ALREADYCLOSING?$AA@ 10051934     dxerr8:dxerr8.obj
 0002:0000294c       ??_C@_0BI@GCGBFFAL@DPNERR_ALREADYCONNECTED?$AA@ 1005194c     dxerr8:dxerr8.obj
 0002:00002964       ??_C@_0BM@GIHIILB@DPNERR_ALREADYDISCONNECTING?$AA@ 10051964     dxerr8:dxerr8.obj
 0002:00002980       ??_C@_0BK@LALJHGPB@DPNERR_ALREADYINITIALIZED?$AA@ 10051980     dxerr8:dxerr8.obj
 0002:0000299c       ??_C@_0BJ@FGMICGKI@DPNERR_ALREADYREGISTERED?$AA@ 1005199c     dxerr8:dxerr8.obj
 0002:000029b8       ??_C@_0P@LMIGBHLJ@DPNERR_ABORTED?$AA@ 100519b8     dxerr8:dxerr8.obj
 0002:000029c8       ??_C@_0BD@MHHBCHMG@DVERR_LOCKEDBUFFER?$AA@ 100519c8     dxerr8:dxerr8.obj
 0002:000029dc       ??_C@_0BE@DCLOFBIA@DVERR_INVALIDBUFFER?$AA@ 100519dc     dxerr8:dxerr8.obj
 0002:000029f0       ??_C@_0BI@DKEIMNBG@DVERR_NORECVOLAVAILABLE?$AA@ 100519f0     dxerr8:dxerr8.obj
 0002:00002a08       ??_C@_0P@HLJOKPDO@DVERR_USERBACK?$AA@ 10051a08     dxerr8:dxerr8.obj
 0002:00002a18       ??_C@_0BI@JEFEEAGN@DVERR_TRANSPORTNOPLAYER?$AA@ 10051a18     dxerr8:dxerr8.obj
 0002:00002a30       ??_C@_0BJ@BMPMFNLE@DVERR_TRANSPORTNOSESSION?$AA@ 10051a30     dxerr8:dxerr8.obj
 0002:00002a4c       ??_C@_0BH@PBPDIEAB@DVERR_TRANSPORTNOTINIT?$AA@ 10051a4c     dxerr8:dxerr8.obj
 0002:00002a64       ??_C@_0BB@OJOKLHDB@DVERR_NOCALLBACK?$AA@ 10051a64     dxerr8:dxerr8.obj
 0002:00002a78       ??_C@_0BC@BPGONKEL@DVERR_NOTRANSPORT?$AA@ 10051a78     dxerr8:dxerr8.obj
 0002:00002a8c       ??_C@_0BC@IFIDLBDO@DVERR_INITIALIZED?$AA@ 10051a8c     dxerr8:dxerr8.obj
 0002:00002aa0       ??_C@_0BK@LHIAIFHC@DVERR_INCOMPATIBLEVERSION?$AA@ 10051aa0     dxerr8:dxerr8.obj
 0002:00002abc       ??_C@_0P@HELBCDMK@DVERR_RUNSETUP?$AA@ 10051abc     dxerr8:dxerr8.obj
 0002:00002acc       ??_C@_0BB@LGGCHGFC@DVERR_USERCANCEL?$AA@ 10051acc     dxerr8:dxerr8.obj
 0002:00002ae0       ??_C@_0BA@BHNOAHAA@DVERR_SENDERROR?$AA@ 10051ae0     dxerr8:dxerr8.obj
 0002:00002af0       ??_C@_0BK@OKHEDAMB@DVERR_PLAYBACKSYSTEMERROR?$AA@ 10051af0     dxerr8:dxerr8.obj
 0002:00002b0c       ??_C@_0BI@MGBAGBEL@DVERR_RECORDSYSTEMERROR?$AA@ 10051b0c     dxerr8:dxerr8.obj
 0002:00002b24       ??_C@_0BE@GLDFBJNB@DVERR_INVALIDDEVICE?$AA@ 10051b24     dxerr8:dxerr8.obj
 0002:00002b38       ??_C@_0BB@HDBFLPOD@DVERR_NOTHOSTING?$AA@ 10051b38     dxerr8:dxerr8.obj
 0002:00002b4c       ??_C@_0O@GLLEMLIM@DVERR_HOSTING?$AA@ 10051b4c     dxerr8:dxerr8.obj
 0002:00002b5c       ??_C@_0BC@HCHDEKLA@DVERR_NOTBUFFERED?$AA@ 10051b5c     dxerr8:dxerr8.obj
 0002:00002b70       ??_C@_0BG@EAEAIDFP@DVERR_ALREADYBUFFERED?$AA@ 10051b70     dxerr8:dxerr8.obj
 0002:00002b88       ??_C@_0BA@KKIHFGGL@DVERR_NO3DSOUND?$AA@ 10051b88     dxerr8:dxerr8.obj
 0002:00002b98       ??_C@_0BF@LAPFGNMN@DVERR_CONNECTABORTED?$AA@ 10051b98     dxerr8:dxerr8.obj
 0002:00002bb0       ??_C@_0O@BDNLFFNE@DVERR_TIMEOUT?$AA@ 10051bb0     dxerr8:dxerr8.obj
 0002:00002bc0       ??_C@_0BH@IGNHONFD@DVERR_SOUNDINITFAILURE?$AA@ 10051bc0     dxerr8:dxerr8.obj
 0002:00002bd8       ??_C@_0BF@EMDGEANI@DVERR_ALREADYPENDING?$AA@ 10051bd8     dxerr8:dxerr8.obj
 0002:00002bf0       ??_C@_0BO@OLECNBHN@DVERR_COMPRESSIONNOTSUPPORTED?$AA@ 10051bf0     dxerr8:dxerr8.obj
 0002:00002c10       ??_C@_0BH@GFJOOMHC@DVERR_TRANSPORTNOTHOST?$AA@ 10051c10     dxerr8:dxerr8.obj
 0002:00002c28       ??_C@_0BE@NFHBEJFI@DVERR_INVALIDTARGET?$AA@ 10051c28     dxerr8:dxerr8.obj
 0002:00002c3c       ??_C@_0BB@CPLMDEAG@DVERR_NOTALLOWED?$AA@ 10051c3c     dxerr8:dxerr8.obj
 0002:00002c50       ??_C@_0BA@GIMKICNH@DVERR_CONNECTED?$AA@ 10051c50     dxerr8:dxerr8.obj
 0002:00002c60       ??_C@_0BD@NNMHFIDL@DVERR_NOTCONNECTED?$AA@ 10051c60     dxerr8:dxerr8.obj
 0002:00002c74       ??_C@_0BG@BNBMKIMM@DVERR_CONNECTABORTING?$AA@ 10051c74     dxerr8:dxerr8.obj
 0002:00002c8c       ??_C@_0BF@BBEOIDBJ@DVERR_NOTINITIALIZED?$AA@ 10051c8c     dxerr8:dxerr8.obj
 0002:00002ca4       ??_C@_0BE@JOKCHCBA@DVERR_INVALIDHANDLE?$AA@ 10051ca4     dxerr8:dxerr8.obj
 0002:00002cb8       ??_C@_0BC@PENJHABH@DVERR_SESSIONLOST?$AA@ 10051cb8     dxerr8:dxerr8.obj
 0002:00002ccc       ??_C@_0BF@GPLNODHK@DVERR_NOVOICESESSION?$AA@ 10051ccc     dxerr8:dxerr8.obj
 0002:00002ce4       ??_C@_0BF@MDDKPAPD@DVERR_CONNECTIONLOST?$AA@ 10051ce4     dxerr8:dxerr8.obj
 0002:00002cfc       ??_C@_0BD@FFGIKKOA@DVERR_INVALIDGROUP?$AA@ 10051cfc     dxerr8:dxerr8.obj
 0002:00002d10       ??_C@_0BA@OAKHKGKH@DVERR_EXCEPTION?$AA@ 10051d10     dxerr8:dxerr8.obj
 0002:00002d20       ??_C@_0BD@JFLEADEI@DVERR_INVALIDFLAGS?$AA@ 10051d20     dxerr8:dxerr8.obj
 0002:00002d34       ??_C@_0BE@MICIJLLI@DVERR_INVALIDOBJECT?$AA@ 10051d34     dxerr8:dxerr8.obj
 0002:00002d48       ??_C@_0BE@FMHMBEON@DVERR_INVALIDPLAYER?$AA@ 10051d48     dxerr8:dxerr8.obj
 0002:00002d5c       ??_C@_0BF@GLNOLIPM@DVERR_BUFFERTOOSMALL?$AA@ 10051d5c     dxerr8:dxerr8.obj
 0002:00002d74       ??_C@_0BN@FFKALFMN@DIERR_BETADIRECTINPUTVERSION?$AA@ 10051d74     dxerr8:dxerr8.obj
 0002:00002d94       ??_C@_0BG@HGPEKEJD@E_PROP_ID_UNSUPPORTED?$AA@ 10051d94     dxerr8:dxerr8.obj
 0002:00002dac       ??_C@_0BH@DEPFBJPD@E_PROP_SET_UNSUPPORTED?$AA@ 10051dac     dxerr8:dxerr8.obj
 0002:00002dc4       ??_C@_0BJ@IKGGGNFD@DIERR_ALREADYINITIALIZED?$AA@ 10051dc4     dxerr8:dxerr8.obj
 0002:00002de0       ??_C@_0BM@FGIBEKPK@DIERR_OLDDIRECTINPUTVERSION?$AA@ 10051de0     dxerr8:dxerr8.obj
 0002:00002dfc       ??_C@_0N@CCOIBCCK@E_INVALIDARG?$AA@ 10051dfc     dxerr8:dxerr8.obj
 0002:00002e0c       ??_C@_0BD@NCNAKIOE@DIERR_BADDRIVERVER?$AA@ 10051e0c     dxerr8:dxerr8.obj
 0002:00002e20       ??_C@_0P@PONCCEIK@DIERR_ACQUIRED?$AA@ 10051e20     dxerr8:dxerr8.obj
 0002:00002e30       ??_C@_0BC@NIPBAIAG@DIERR_NOMOREITEMS?$AA@ 10051e30     dxerr8:dxerr8.obj
 0002:00002e44       ??_C@_0BA@OLDKOKEA@DIERR_INPUTLOST?$AA@ 10051e44     dxerr8:dxerr8.obj
 0002:00002e54       ??_C@_0P@CMCMKPDH@E_ACCESSDENIED?$AA@ 10051e54     dxerr8:dxerr8.obj
 0002:00002e64       ??_C@_08LFCOEIAC@E_HANDLE?$AA@ 10051e64     dxerr8:dxerr8.obj
 0002:00002e70       ??_C@_0BC@MCDCNLAF@DIERR_NOTACQUIRED?$AA@ 10051e70     dxerr8:dxerr8.obj
 0002:00002e84       ??_C@_0O@MNIAMCLP@E_OUTOFMEMORY?$AA@ 10051e84     dxerr8:dxerr8.obj
 0002:00002e94       ??_C@_0BF@INBHFIBN@DIERR_NOTINITIALIZED?$AA@ 10051e94     dxerr8:dxerr8.obj
 0002:00002eac       ??_C@_0P@LPHMIDHO@DIERR_NOTFOUND?$AA@ 10051eac     dxerr8:dxerr8.obj
 0002:00002ebc       ??_C@_0BB@JAIADLFC@DIERR_DRIVERLAST?$AA@ 10051ebc     dxerr8:dxerr8.obj
 0002:00002ed0       ??_C@_0BM@ODLCPGJ@DIERR_INVALIDCLASSINSTALLER?$AA@ 10051ed0     dxerr8:dxerr8.obj
 0002:00002eec       ??_C@_0BA@MGMIIMPG@DIERR_CANCELLED?$AA@ 10051eec     dxerr8:dxerr8.obj
 0002:00002efc       ??_C@_0N@GKPBLIIN@DIERR_BADINF?$AA@ 10051efc     dxerr8:dxerr8.obj
 0002:00002f0c       ??_C@_0O@GMELENHA@VFW_E_BAD_KEY?$AA@ 10051f0c     dxerr8:dxerr8.obj
 0002:00002f1c       ??_C@_0BE@NDELPNAK@DIERR_DRIVERFIRST?$CL1?$AA@ 10051f1c     dxerr8:dxerr8.obj
 0002:00002f30       ??_C@_0BE@PIGGKOMJ@DIERR_DRIVERFIRST?$CL2?$AA@ 10051f30     dxerr8:dxerr8.obj
 0002:00002f44       ??_C@_0BE@OBHNJPII@DIERR_DRIVERFIRST?$CL3?$AA@ 10051f44     dxerr8:dxerr8.obj
 0002:00002f58       ??_C@_0BE@KODMAJEP@DIERR_DRIVERFIRST?$CL4?$AA@ 10051f58     dxerr8:dxerr8.obj
 0002:00002f6c       ??_C@_0BE@LHCHDIAO@DIERR_DRIVERFIRST?$CL5?$AA@ 10051f6c     dxerr8:dxerr8.obj
 0002:00002f80       ??_C@_0BC@HHDKDBPE@DIERR_DRIVERFIRST?$AA@ 10051f80     dxerr8:dxerr8.obj
 0002:00002f94       ??_C@_0BM@NNIFPAHC@VFW_E_CERTIFICATION_FAILURE?$AA@ 10051f94     dxerr8:dxerr8.obj
 0002:00002fb0       ??_C@_0BK@DLEOACDC@VFW_E_PIN_ALREADY_BLOCKED?$AA@ 10051fb0     dxerr8:dxerr8.obj
 0002:00002fcc       ??_C@_0CJ@BCMCLJOK@VFW_E_PIN_ALREADY_BLOCKED_ON_THI@ 10051fcc     dxerr8:dxerr8.obj
 0002:00002ff8       ??_C@_0CA@CDPJOMLN@VFW_E_DVD_NO_RESUME_INFORMATION?$AA@ 10051ff8     dxerr8:dxerr8.obj
 0002:00003018       ??_C@_0BH@IJIMKFDJ@VFW_E_DVD_INVALID_DISC?$AA@ 10052018     dxerr8:dxerr8.obj
 0002:00003030       ??_C@_0BI@KKADMEGB@VFW_E_DVD_TITLE_UNKNOWN?$AA@ 10052030     dxerr8:dxerr8.obj
 0002:00003048       ??_C@_0BK@DDNGHAFG@VFW_E_DVD_STREAM_DISABLED?$AA@ 10052048     dxerr8:dxerr8.obj
 0002:00003064       ??_C@_0BN@OAGMDDDG@VFW_E_FRAME_STEP_UNSUPPORTED?$AA@ 10052064     dxerr8:dxerr8.obj
 0002:00003084       ??_C@_0BO@JPIIBDEK@VFW_E_DVD_NOT_IN_KARAOKE_MODE?$AA@ 10052084     dxerr8:dxerr8.obj
 0002:000030a4       ??_C@_0BN@BAAHLCIO@VFW_E_DVD_LOW_PARENTAL_LEVEL?$AA@ 100520a4     dxerr8:dxerr8.obj
 0002:000030c4       ??_C@_0BG@KDNDODPL@VFW_E_DVD_NO_GOUP_PGC?$AA@ 100520c4     dxerr8:dxerr8.obj
 0002:000030dc       ??_C@_0BI@NGNHGLBJ@VFW_E_DVD_NO_ATTRIBUTES?$AA@ 100520dc     dxerr8:dxerr8.obj
 0002:000030f4       ??_C@_0BO@ICBJFFBO@VFW_E_DVD_INCOMPATIBLE_REGION?$AA@ 100520f4     dxerr8:dxerr8.obj
 0002:00003114       ??_C@_0BL@GMNHCHMH@VFW_E_DVD_STATE_WRONG_DISC?$AA@ 10052114     dxerr8:dxerr8.obj
 0002:00003130       ??_C@_0BI@KLMHFGAK@VFW_E_DVD_STATE_CORRUPT?$AA@ 10052130     dxerr8:dxerr8.obj
 0002:00003148       ??_C@_0BO@PHDANCHP@VFW_E_DVD_STATE_WRONG_VERSION?$AA@ 10052148     dxerr8:dxerr8.obj
 0002:00003168       ??_C@_0BI@MMOBNABO@VFW_E_DVD_CMD_CANCELLED?$AA@ 10052168     dxerr8:dxerr8.obj
 0002:00003180       ??_C@_0BO@NEMMGMFC@VFW_E_DVD_MENU_DOES_NOT_EXIST?$AA@ 10052180     dxerr8:dxerr8.obj
 0002:000031a0       ??_C@_0BG@IEFOMOGJ@VFW_E_DVD_WRONG_SPEED?$AA@ 100521a0     dxerr8:dxerr8.obj
 0002:000031b8       ??_C@_0BD@PBHCCOPN@VFW_E_TIME_EXPIRED?$AA@ 100521b8     dxerr8:dxerr8.obj
 0002:000031cc       ??_C@_0BG@NKMEBJJM@VFW_E_COPYPROT_FAILED?$AA@ 100521cc     dxerr8:dxerr8.obj
 0002:000031e4       ??_C@_0CB@NOEAGGNN@VFW_E_DDRAW_VERSION_NOT_SUITABLE@ 100521e4     dxerr8:dxerr8.obj
 0002:00003208       ??_C@_0BH@LEJCJLKJ@VFW_E_DVD_DECNOTENOUGH?$AA@ 10052208     dxerr8:dxerr8.obj
 0002:00003220       ??_C@_0BF@BANMGEBA@VFW_E_DVD_RENDERFAIL?$AA@ 10052220     dxerr8:dxerr8.obj
 0002:00003238       ??_C@_0BI@BLOMLHGA@VFW_E_DVD_GRAPHNOTREADY?$AA@ 10052238     dxerr8:dxerr8.obj
 0002:00003250       ??_C@_0BE@DBFAHLLE@VFW_E_DVD_NO_BUTTON?$AA@ 10052250     dxerr8:dxerr8.obj
 0002:00003264       ??_C@_0BI@DMGPOCND@VFW_E_DVD_INVALIDDOMAIN?$AA@ 10052264     dxerr8:dxerr8.obj
 0002:0000327c       ??_C@_0BO@FGEAHLEC@VFW_E_DVD_OPERATION_INHIBITED?$AA@ 1005227c     dxerr8:dxerr8.obj
 0002:0000329c       ??_C@_0BK@HPHNDGD@VFW_E_NO_CAPTURE_HARDWARE?$AA@ 1005229c     dxerr8:dxerr8.obj
 0002:000032b8       ??_C@_0BF@MJINCMOA@VFW_E_NO_VP_HARDWARE?$AA@ 100522b8     dxerr8:dxerr8.obj
 0002:000032d0       ??_C@_0BO@LDFGKIIH@VFW_E_DDRAW_CAPS_NOT_SUITABLE?$AA@ 100522d0     dxerr8:dxerr8.obj
 0002:000032f0       ??_C@_0BM@CNBOCAIB@VFW_E_VP_NEGOTIATION_FAILED?$AA@ 100522f0     dxerr8:dxerr8.obj
 0002:0000330c       ??_C@_0BK@DAFLPDCA@VFW_E_OUT_OF_VIDEO_MEMORY?$AA@ 1005230c     dxerr8:dxerr8.obj
 0002:00003328       ??_C@_0BC@GOAPHMLD@VFW_E_BAD_VIDEOCD?$AA@ 10052328     dxerr8:dxerr8.obj
 0002:0000333c       ??_C@_0BD@MFFGDDNP@VFW_E_NO_TRANSPORT?$AA@ 1005233c     dxerr8:dxerr8.obj
 0002:00003350       ??_C@_0BJ@HOILOBCJ@VFW_E_UNSUPPORTED_STREAM?$AA@ 10052350     dxerr8:dxerr8.obj
 0002:0000336c       ??_C@_0BH@HICENJMB@VFW_E_BUFFER_UNDERFLOW?$AA@ 1005236c     dxerr8:dxerr8.obj
 0002:00003384       ??_C@_0BA@HNOJJLJH@VFW_E_READ_ONLY?$AA@ 10052384     dxerr8:dxerr8.obj
 0002:00003394       ??_C@_0BF@HNPBJLEF@VFW_E_NO_TIME_FORMAT?$AA@ 10052394     dxerr8:dxerr8.obj
 0002:000033ac       ??_C@_0BD@MPCAPLPL@VFW_E_NOT_IN_GRAPH?$AA@ 100523ac     dxerr8:dxerr8.obj
 0002:000033c0       ??_C@_0BL@OBMGGLEA@VFW_E_MPEG_NOT_CONSTRAINED?$AA@ 100523c0     dxerr8:dxerr8.obj
 0002:000033dc       ??_C@_0BI@BBLMEOGN@VFW_E_UNSUPPORTED_VIDEO?$AA@ 100523dc     dxerr8:dxerr8.obj
 0002:000033f4       ??_C@_0BI@KDGFPPKJ@VFW_E_UNSUPPORTED_AUDIO?$AA@ 100523f4     dxerr8:dxerr8.obj
 0002:0000340c       ??_C@_0BN@NCJPHNCK@VFW_E_PROCESSOR_NOT_SUITABLE?$AA@ 1005240c     dxerr8:dxerr8.obj
 0002:0000342c       ??_C@_0L@OHJOEFJB@VFW_E_RPZA?$AA@ 1005242c     dxerr8:dxerr8.obj
 0002:00003438       ??_C@_0BI@DDBOFJIL@VFW_E_NO_AUDIO_HARDWARE?$AA@ 10052438     dxerr8:dxerr8.obj
 0002:00003450       ??_C@_0BG@GPJEEMNG@VFW_E_NO_DECOMPRESSOR?$AA@ 10052450     dxerr8:dxerr8.obj
 0002:00003468       ??_C@_0BE@DAIBEADF@VFW_E_MONO_AUDIO_HW?$AA@ 10052468     dxerr8:dxerr8.obj
 0002:0000347c       ??_C@_0BJ@LFOCANEO@VFW_E_NO_TIME_FORMAT_SET?$AA@ 1005247c     dxerr8:dxerr8.obj
 0002:00003498       ??_C@_0BJ@JAJKDAKJ@VFW_E_MEDIA_TIME_NOT_SET?$AA@ 10052498     dxerr8:dxerr8.obj
 0002:000034b4       ??_C@_0BK@CFOLCFMN@VFW_E_SAMPLE_TIME_NOT_SET?$AA@ 100524b4     dxerr8:dxerr8.obj
 0002:000034d0       ??_C@_0BJ@EOPGPOBF@VFW_E_INVALID_MEDIA_TYPE?$AA@ 100524d0     dxerr8:dxerr8.obj
 0002:000034ec       ??_C@_0BE@MCJAAKHG@VFW_E_INVALID_CLSID?$AA@ 100524ec     dxerr8:dxerr8.obj
 0002:00003500       ??_C@_0BL@OHOFAMHP@VFW_E_INVALID_FILE_VERSION?$AA@ 10052500     dxerr8:dxerr8.obj
 0002:0000351c       ??_C@_0BF@LIMMCJJA@VFW_E_FILE_TOO_SHORT?$AA@ 1005251c     dxerr8:dxerr8.obj
 0002:00003534       ??_C@_0CA@JEMKGDNC@VFW_E_CANNOT_LOAD_SOURCE_FILTER?$AA@ 10052534     dxerr8:dxerr8.obj
 0002:00003554       ??_C@_0BI@CLFACHPL@VFW_E_UNKNOWN_FILE_TYPE?$AA@ 10052554     dxerr8:dxerr8.obj
 0002:0000356c       ??_C@_0BJ@BJDGMMHC@VFW_E_IN_FULLSCREEN_MODE?$AA@ 1005256c     dxerr8:dxerr8.obj
 0002:00003588       ??_C@_0BE@BCGHPIMD@VFW_E_NO_FULLSCREEN?$AA@ 10052588     dxerr8:dxerr8.obj
 0002:0000359c       ??_C@_0BE@GJKIBECJ@VFW_E_NO_ADVISE_SET?$AA@ 1005259c     dxerr8:dxerr8.obj
 0002:000035b0       ??_C@_0BJ@KMLOJK@VFW_E_NO_MODEX_AVAILABLE?$AA@ 100525b0     dxerr8:dxerr8.obj
 0002:000035cc       ??_C@_0BJ@LPGDEGNH@VFW_E_ADVISE_ALREADY_SET?$AA@ 100525cc     dxerr8:dxerr8.obj
 0002:000035e8       ??_C@_0BJ@OKIGDCBF@VFW_E_CORRUPT_GRAPH_FILE?$AA@ 100525e8     dxerr8:dxerr8.obj
 0002:00003604       ??_C@_0BI@GPPBGAKJ@VFW_E_ALREADY_CANCELLED?$AA@ 10052604     dxerr8:dxerr8.obj
 0002:0000361c       ??_C@_0BK@LPDCLOFH@VFW_E_TIME_ALREADY_PASSED?$AA@ 1005261c     dxerr8:dxerr8.obj
 0002:00003638       ??_C@_0BK@IEMLJJJO@VFW_E_NOT_ALLOWED_TO_SAVE?$AA@ 10052638     dxerr8:dxerr8.obj
 0002:00003654       ??_C@_0BF@GEAGMPMP@VFW_E_CIRCULAR_GRAPH?$AA@ 10052654     dxerr8:dxerr8.obj
 0002:0000366c       ??_C@_0BI@DOMAIDNN@VFW_E_ENUM_OUT_OF_RANGE?$AA@ 1005266c     dxerr8:dxerr8.obj
 0002:00003684       ??_C@_0BK@BNODBBLP@VFW_E_INVALID_FILE_FORMAT?$AA@ 10052684     dxerr8:dxerr8.obj
 0002:000036a0       ??_C@_0O@MOMFKPDK@VFW_E_TIMEOUT?$AA@ 100526a0     dxerr8:dxerr8.obj
 0002:000036b0       ??_C@_0BF@BKGLDEDD@VFW_E_DUPLICATE_NAME?$AA@ 100526b0     dxerr8:dxerr8.obj
 0002:000036c8       ??_C@_0BK@JOLCHIBD@VFW_E_SAMPLE_REJECTED_EOS?$AA@ 100526c8     dxerr8:dxerr8.obj
 0002:000036e4       ??_C@_0BG@DDHBJCKP@VFW_E_SAMPLE_REJECTED?$AA@ 100526e4     dxerr8:dxerr8.obj
 0002:000036fc       ??_C@_0BI@KPLMBC@VFW_E_TYPE_NOT_ACCEPTED?$AA@ 100526fc     dxerr8:dxerr8.obj
 0002:00003714       ??_C@_0BD@PFIGGKOB@VFW_E_INVALID_RECT?$AA@ 10052714     dxerr8:dxerr8.obj
 0002:00003728       ??_C@_0BL@DDCJJGHF@VFW_E_START_TIME_AFTER_END?$AA@ 10052728     dxerr8:dxerr8.obj
 0002:00003744       ??_C@_0BC@JJBKAOIH@VFW_E_WRONG_STATE?$AA@ 10052744     dxerr8:dxerr8.obj
 0002:00003758       ??_C@_0BC@OKDMOOKH@VFW_E_NOT_RUNNING?$AA@ 10052758     dxerr8:dxerr8.obj
 0002:0000376c       ??_C@_0BB@EIHPCDCM@VFW_E_NOT_PAUSED?$AA@ 1005276c     dxerr8:dxerr8.obj
 0002:00003780       ??_C@_0BC@JOAELLPM@VFW_E_NOT_STOPPED?$AA@ 10052780     dxerr8:dxerr8.obj
 0002:00003794       ??_C@_0BE@DFHGDACI@VFW_E_STATE_CHANGED?$AA@ 10052794     dxerr8:dxerr8.obj
 0002:000037a8       ??_C@_0BG@EEHKBFKL@VFW_E_TOO_MANY_COLORS?$AA@ 100527a8     dxerr8:dxerr8.obj
 0002:000037c0       ??_C@_0BJ@CPAHIKED@VFW_E_NO_DISPLAY_PALETTE?$AA@ 100527c0     dxerr8:dxerr8.obj
 0002:000037dc       ??_C@_0BL@INGPKHGD@VFW_E_NO_PALETTE_AVAILABLE?$AA@ 100527dc     dxerr8:dxerr8.obj
 0002:000037f8       ??_C@_0BJ@CDNKKCFJ@VFW_E_NO_COLOR_KEY_FOUND?$AA@ 100527f8     dxerr8:dxerr8.obj
 0002:00003814       ??_C@_0BE@EDIOFLOF@VFW_E_COLOR_KEY_SET?$AA@ 10052814     dxerr8:dxerr8.obj
 0002:00003828       ??_C@_0BC@FFLFKHPK@VFW_E_PALETTE_SET?$AA@ 10052828     dxerr8:dxerr8.obj
 0002:0000383c       ??_C@_0BM@FHOFKLC@VFW_E_NOT_SAMPLE_CONNECTION?$AA@ 1005283c     dxerr8:dxerr8.obj
 0002:00003858       ??_C@_0BN@NPBFKNEI@VFW_E_NOT_OVERLAY_CONNECTION?$AA@ 10052858     dxerr8:dxerr8.obj
 0002:00003878       ??_C@_0BH@JBCLIEGL@VFW_E_NO_COLOR_KEY_SET?$AA@ 10052878     dxerr8:dxerr8.obj
 0002:00003890       ??_C@_0BG@CEJJCDGD@VFW_E_CHANGING_FORMAT?$AA@ 10052890     dxerr8:dxerr8.obj
 0002:000038a8       ??_C@_0BE@CMFAKLGM@VFW_E_CANNOT_RENDER?$AA@ 100528a8     dxerr8:dxerr8.obj
 0002:000038bc       ??_C@_0BF@NJMKFKJF@VFW_E_CANNOT_CONNECT?$AA@ 100528bc     dxerr8:dxerr8.obj
 0002:000038d4       ??_C@_0BA@NLPOLMKL@VFW_E_NOT_FOUND?$AA@ 100528d4     dxerr8:dxerr8.obj
 0002:000038e4       ??_C@_0BD@OBLAMPLE@VFW_E_NO_INTERFACE?$AA@ 100528e4     dxerr8:dxerr8.obj
 0002:000038f8       ??_C@_0O@BJJCGLIC@VFW_E_NO_SINK?$AA@ 100528f8     dxerr8:dxerr8.obj
 0002:00003908       ??_C@_0P@GNLLFNJP@VFW_E_NO_CLOCK?$AA@ 10052908     dxerr8:dxerr8.obj
 0002:00003918       ??_C@_0BB@HPPDJBNE@VFW_E_SIZENOTSET?$AA@ 10052918     dxerr8:dxerr8.obj
 0002:0000392c       ??_C@_0BE@GCKJICFC@VFW_E_NOT_COMMITTED?$AA@ 1005292c     dxerr8:dxerr8.obj
 0002:00003940       ??_C@_0BK@FHIBDPKM@VFW_E_BUFFERS_OUTSTANDING?$AA@ 10052940     dxerr8:dxerr8.obj
 0002:0000395c       ??_C@_0BI@MLHMKEMN@VFW_E_ALREADY_COMMITTED?$AA@ 1005295c     dxerr8:dxerr8.obj
 0002:00003974       ??_C@_0P@OJABNGMD@VFW_E_BADALIGN?$AA@ 10052974     dxerr8:dxerr8.obj
 0002:00003984       ??_C@_0BG@ICILILNP@VFW_E_BUFFER_OVERFLOW?$AA@ 10052984     dxerr8:dxerr8.obj
 0002:0000399c       ??_C@_0BE@KNDHGKPB@VFW_E_BUFFER_NOTSET?$AA@ 1005299c     dxerr8:dxerr8.obj
 0002:000039b0       ??_C@_0CI@MDMADEMF@DIERR_MAPFILEFAIL?5?$CG?5VFW_E_RUNTIM@ 100529b0     dxerr8:dxerr8.obj
 0002:000039d8       ??_C@_0CG@OJDPHGDL@DIERR_REPORTFULL?5?$CG?5VFW_E_NO_ALLO@ 100529d8     dxerr8:dxerr8.obj
 0002:00003a00       ??_C@_0CG@OGPLADKL@DIERR_UNPLUGGED?5?$CG?5VFW_E_NOT_CONN@ 10052a00     dxerr8:dxerr8.obj
 0002:00003a28       ??_C@_0CO@CGAIBIEI@DIERR_EFFECTPLAYING?5?$CG?5VFW_E_INVA@ 10052a28     dxerr8:dxerr8.obj
 0002:00003a58       ??_C@_0CO@OJPNBAHC@DIERR_NOTBUFFERED?5?$CG?5VFW_E_NO_ACC@ 10052a58     dxerr8:dxerr8.obj
 0002:00003a88       ??_C@_0EA@CCGBKIAC@DIERR_HASEFFECTS?5?$CG?5VFW_E_ALREADY@ 10052a88     dxerr8:dxerr8.obj
 0002:00003ac8       ??_C@_0EL@FLOGNCHB@DIERR_NOTEXCLUSIVEACQUIRED?5?$CG?5VFW@ 10052ac8     dxerr8:dxerr8.obj
 0002:00003b14       ??_C@_0DO@OLFCDAHH@DIERR_INCOMPLETEEFFECT?5?$CG?5VFW_E_N@ 10052b14     dxerr8:dxerr8.obj
 0002:00003b58       ??_C@_0EC@LCKJKBC@DIERR_NOTDOWNLOADED?5?$CG?5VFW_E_ENUM@ 10052b58     dxerr8:dxerr8.obj
 0002:00003b9c       ??_C@_0BI@LGCIFNPE@CO_E_ALREADYINITIALIZED?$AA@ 10052b9c     dxerr8:dxerr8.obj
 0002:00003bb4       ??_C@_0DB@JHHNFLGF@DIERR_INSUFFICIENTPRIVS?5?$CG?5VFW_E_@ 10052bb4     dxerr8:dxerr8.obj
 0002:00003be8       ??_C@_0ED@EKCFBKHI@DIERR_DEVICEFULL?5?$CG?5VFW_E_INVALID@ 10052be8     dxerr8:dxerr8.obj
 0002:00003c2c       ??_C@_0DG@FHAKOIEJ@DIERR_MOREDATA?5?$CG?5VFW_E_NEED_OWNE@ 10052c2c     dxerr8:dxerr8.obj
 0002:00003c64       ??_C@_0BE@MLLGNOMG@CO_E_NOTINITIALIZED?$AA@ 10052c64     dxerr8:dxerr8.obj
 0002:00003c78       ??_C@_06FOOEOEIK@E_FAIL?$AA@ 10052c78     dxerr8:dxerr8.obj
 0002:00003c80       ??_C@_0N@EAKCLLNI@E_UNEXPECTED?$AA@ 10052c80     dxerr8:dxerr8.obj
 0002:00003c90       ??_C@_0BG@MIEMJEDC@CLASS_E_NOAGGREGATION?$AA@ 10052c90     dxerr8:dxerr8.obj
 0002:00003ca8       ??_C@_0BE@IEPPEKPI@REGDB_E_CLASSNOTREG?$AA@ 10052ca8     dxerr8:dxerr8.obj
 0002:00003cbc       ??_C@_07LKJCINEE@E_ABORT?$AA@ 10052cbc     dxerr8:dxerr8.obj
 0002:00003cc4       ??_C@_09DBBJIHPI@E_PENDING?$AA@ 10052cc4     dxerr8:dxerr8.obj
 0002:00003cd0       ??_C@_09NMKLNOAF@E_NOTIMPL?$AA@ 10052cd0     dxerr8:dxerr8.obj
 0002:00003cdc       ??_C@_0O@KAGJJEKO@E_NOINTERFACE?$AA@ 10052cdc     dxerr8:dxerr8.obj
 0002:00003cec       ??_C@_09FLEPHGBI@E_POINTER?$AA@ 10052cec     dxerr8:dxerr8.obj
 0002:00003cf8       ??_C@_1CG@EEMIGJEA@?$AAD?$AAM?$AAU?$AAS?$AA_?$AAS?$AA_?$AAD?$AAO?$AAW?$AAN?$AA_?$AAO?$AAC?$AAT?$AAA?$AAV?$AAE?$AA?$AA@ 10052cf8     dxerr8:dxerr8.obj
 0002:00003d20       ??_C@_1CO@BDCKFJIP@?$AAD?$AAM?$AAU?$AAS?$AA_?$AAS?$AA_?$AAN?$AAO?$AAB?$AAU?$AAF?$AAF?$AAE?$AAR?$AAC?$AAO?$AAN?$AAT?$AAR@ 10052d20     dxerr8:dxerr8.obj
 0002:00003d50       ??_C@_1DC@GBDPNAGC@?$AAD?$AAM?$AAU?$AAS?$AA_?$AAS?$AA_?$AAG?$AAA?$AAR?$AAB?$AAA?$AAG?$AAE?$AA_?$AAC?$AAO?$AAL?$AAL?$AAE@ 10052d50     dxerr8:dxerr8.obj
 0002:00003d84       ??_C@_1BA@LEPJIIOK@?$AAU?$AAn?$AAk?$AAn?$AAo?$AAw?$AAn?$AA?$AA@ 10052d84     dxerr8:dxerr8.obj
 0002:00003d94       ??_C@_1CC@HPIKPLCL@?$AAD?$AAM?$AAU?$AAS?$AA_?$AAS?$AA_?$AAU?$AAP?$AA_?$AAO?$AAC?$AAT?$AAA?$AAV?$AAE?$AA?$AA@ 10052d94     dxerr8:dxerr8.obj
 0002:00003db8       ??_C@_1BG@OBOJCLMH@?$AAD?$AAM?$AAU?$AAS?$AA_?$AAS?$AA_?$AAE?$AAN?$AAD?$AA?$AA@ 10052db8     dxerr8:dxerr8.obj
 0002:00003dd0       ??_C@_1DA@IOHEMNIN@?$AAD?$AAM?$AAU?$AAS?$AA_?$AAS?$AA_?$AAS?$AAT?$AAR?$AAI?$AAN?$AAG?$AA_?$AAT?$AAR?$AAU?$AAN?$AAC?$AAA@ 10052dd0     dxerr8:dxerr8.obj
 0002:00003e00       ??_C@_1CC@GNOACNNM@?$AAD?$AAM?$AAU?$AAS?$AA_?$AAS?$AA_?$AAL?$AAA?$AAS?$AAT?$AA_?$AAT?$AAO?$AAO?$AAL?$AA?$AA@ 10052e00     dxerr8:dxerr8.obj
 0002:00003e24       ??_C@_1CE@JEBACBIC@?$AAD?$AAM?$AAU?$AAS?$AA_?$AAS?$AA_?$AAO?$AAV?$AAE?$AAR?$AA_?$AAC?$AAH?$AAO?$AAR?$AAD?$AA?$AA@ 10052e24     dxerr8:dxerr8.obj
 0002:00003e48       ??_C@_1BI@IPLCLNON@?$AAD?$AAM?$AAU?$AAS?$AA_?$AAS?$AA_?$AAF?$AAR?$AAE?$AAE?$AA?$AA@ 10052e48     dxerr8:dxerr8.obj
 0002:00003e60       ??_C@_1CG@FJOKGMJ@?$AAD?$AAM?$AAU?$AAS?$AA_?$AAS?$AA_?$AAP?$AAA?$AAR?$AAT?$AAI?$AAA?$AAL?$AAL?$AAO?$AAA?$AAD?$AA?$AA@ 10052e60     dxerr8:dxerr8.obj
 0002:00003e88       ??_C@_1CO@GJEBFCHA@?$AAD?$AAM?$AAU?$AAS?$AA_?$AAS?$AA_?$AAP?$AAA?$AAR?$AAT?$AAI?$AAA?$AAL?$AAD?$AAO?$AAW?$AAN?$AAL?$AAO@ 10052e88     dxerr8:dxerr8.obj
 0002:00003eb8       ??_C@_1BO@JHLCFAEJ@?$AAD?$AAM?$AAU?$AAS?$AA_?$AAS?$AA_?$AAR?$AAE?$AAQ?$AAU?$AAE?$AAU?$AAE?$AA?$AA@ 10052eb8     dxerr8:dxerr8.obj
 0002:00003ed8       ??_C@_1BM@JOPGMGJL@?$AAD?$AAS?$AA_?$AAI?$AAN?$AAC?$AAO?$AAM?$AAP?$AAL?$AAE?$AAT?$AAE?$AA?$AA@ 10052ed8     dxerr8:dxerr8.obj
 0002:00003ef4       ??_C@_1BM@PMDHGCDE@?$AAD?$AAV?$AA_?$AAF?$AAU?$AAL?$AAL?$AAD?$AAU?$AAP?$AAL?$AAE?$AAX?$AA?$AA@ 10052ef4     dxerr8:dxerr8.obj
 0002:00003f10       ??_C@_1BM@GNBNOEOE@?$AAD?$AAV?$AA_?$AAH?$AAA?$AAL?$AAF?$AAD?$AAU?$AAP?$AAL?$AAE?$AAX?$AA?$AA@ 10052f10     dxerr8:dxerr8.obj
 0002:00003f2c       ??_C@_1BG@LEHGKALM@?$AAD?$AAV?$AA_?$AAP?$AAE?$AAN?$AAD?$AAI?$AAN?$AAG?$AA?$AA@ 10052f2c     dxerr8:dxerr8.obj
 0002:00003f44       ??_C@_1CK@DOHBEOJH@?$AAD?$AAS?$AA_?$AAN?$AAO?$AA_?$AAV?$AAI?$AAR?$AAT?$AAU?$AAA?$AAL?$AAI?$AAZ?$AAA?$AAT?$AAI?$AAO?$AAN@ 10052f44     dxerr8:dxerr8.obj
 0002:00003f70       ??_C@_1CO@CMDPLMMJ@?$AAV?$AAF?$AAW?$AA_?$AAS?$AA_?$AAD?$AAV?$AAD?$AA_?$AAN?$AAO?$AAT?$AA_?$AAA?$AAC?$AAC?$AAU?$AAR?$AAA@ 10052f70     dxerr8:dxerr8.obj
 0002:00003fa0       ??_C@_1CG@OMACGLKP@?$AAV?$AAF?$AAW?$AA_?$AAS?$AA_?$AAN?$AAO?$AAP?$AAR?$AAE?$AAV?$AAI?$AAE?$AAW?$AAP?$AAI?$AAN?$AA?$AA@ 10052fa0     dxerr8:dxerr8.obj
 0002:00003fc8       ??_C@_1DK@KNNKOGGD@?$AAV?$AAF?$AAW?$AA_?$AAS?$AA_?$AAD?$AAV?$AAD?$AA_?$AAN?$AAO?$AAN?$AA_?$AAO?$AAN?$AAE?$AA_?$AAS?$AAE@ 10052fc8     dxerr8:dxerr8.obj
 0002:00004008       ??_C@_1FC@PMFAKGHB@?$AAV?$AAF?$AAW?$AA_?$AAS?$AA_?$AAD?$AAV?$AAD?$AA_?$AAC?$AAH?$AAA?$AAN?$AAN?$AAE?$AAL?$AA_?$AAC?$AAO@ 10053008     dxerr8:dxerr8.obj
 0002:0000405c       ??_C@_1CG@EFMKAALF@?$AAV?$AAF?$AAW?$AA_?$AAS?$AA_?$AAN?$AAO?$AA_?$AAS?$AAT?$AAO?$AAP?$AA_?$AAT?$AAI?$AAM?$AAE?$AA?$AA@ 1005305c     dxerr8:dxerr8.obj
 0002:00004084       ??_C@_1CA@KPKCPIHF@?$AAV?$AAF?$AAW?$AA_?$AAS?$AA_?$AAE?$AAS?$AAT?$AAI?$AAM?$AAA?$AAT?$AAE?$AAD?$AA?$AA@ 10053084     dxerr8:dxerr8.obj
 0002:000040a4       ??_C@_1BO@NKOCMEOH@?$AAV?$AAF?$AAW?$AA_?$AAS?$AA_?$AAR?$AAE?$AAS?$AAE?$AAR?$AAV?$AAE?$AAD?$AA?$AA@ 100530a4     dxerr8:dxerr8.obj
 0002:000040c4       ??_C@_1CC@MHFKBMFJ@?$AAV?$AAF?$AAW?$AA_?$AAS?$AA_?$AAS?$AAT?$AAR?$AAE?$AAA?$AAM?$AA_?$AAO?$AAF?$AAF?$AA?$AA@ 100530c4     dxerr8:dxerr8.obj
 0002:000040e8       ??_C@_1BO@PDBIFODM@?$AAV?$AAF?$AAW?$AA_?$AAS?$AA_?$AAC?$AAA?$AAN?$AAT?$AA_?$AAC?$AAU?$AAE?$AA?$AA@ 100530e8     dxerr8:dxerr8.obj
 0002:00004108       ??_C@_1BG@LHAJFDNJ@?$AAV?$AAF?$AAW?$AA_?$AAS?$AA_?$AAR?$AAP?$AAZ?$AAA?$AA?$AA@ 10053108     dxerr8:dxerr8.obj
 0002:00004120       ??_C@_1DE@BKCLAOO@?$AAV?$AAF?$AAW?$AA_?$AAS?$AA_?$AAR?$AAE?$AAS?$AAO?$AAU?$AAR?$AAC?$AAE?$AA_?$AAN?$AAO?$AAT?$AA_?$AAN@ 10053120     dxerr8:dxerr8.obj
 0002:00004154       ??_C@_1DC@FLJKBDGG@?$AAV?$AAF?$AAW?$AA_?$AAS?$AA_?$AAM?$AAE?$AAD?$AAI?$AAA?$AA_?$AAT?$AAY?$AAP?$AAE?$AA_?$AAI?$AAG?$AAN@ 10053154     dxerr8:dxerr8.obj
 0002:00004188       ??_C@_1DC@LGCEJKBK@?$AAV?$AAF?$AAW?$AA_?$AAS?$AA_?$AAV?$AAI?$AAD?$AAE?$AAO?$AA_?$AAN?$AAO?$AAT?$AA_?$AAR?$AAE?$AAN?$AAD@ 10053188     dxerr8:dxerr8.obj
 0002:000041bc       ??_C@_1DC@COOBDBMA@?$AAV?$AAF?$AAW?$AA_?$AAS?$AA_?$AAA?$AAU?$AAD?$AAI?$AAO?$AA_?$AAN?$AAO?$AAT?$AA_?$AAR?$AAE?$AAN?$AAD@ 100531bc     dxerr8:dxerr8.obj
 0002:000041f0       ??_C@_1DG@KCBPMPHO@?$AAV?$AAF?$AAW?$AA_?$AAS?$AA_?$AAC?$AAO?$AAN?$AAN?$AAE?$AAC?$AAT?$AAI?$AAO?$AAN?$AAS?$AA_?$AAD?$AAE@ 100531f0     dxerr8:dxerr8.obj
 0002:00004228       ??_C@_1CK@CCHPPLGC@?$AAV?$AAF?$AAW?$AA_?$AAS?$AA_?$AAD?$AAU?$AAP?$AAL?$AAI?$AAC?$AAA?$AAT?$AAE?$AA_?$AAN?$AAA?$AAM?$AAE@ 10053228     dxerr8:dxerr8.obj
 0002:00004254       ??_C@_1DC@MECLCNK@?$AAV?$AAF?$AAW?$AA_?$AAS?$AA_?$AAS?$AAT?$AAA?$AAT?$AAE?$AA_?$AAI?$AAN?$AAT?$AAE?$AAR?$AAM?$AAE?$AAD@ 10053254     dxerr8:dxerr8.obj
 0002:00004288       ??_C@_1CK@OJCHIEMM@?$AAV?$AAF?$AAW?$AA_?$AAS?$AA_?$AAP?$AAA?$AAR?$AAT?$AAI?$AAA?$AAL?$AA_?$AAR?$AAE?$AAN?$AAD?$AAE?$AAR@ 10053288     dxerr8:dxerr8.obj
 0002:000042b4       ??_C@_1DA@JHMMDOHD@?$AAV?$AAF?$AAW?$AA_?$AAS?$AA_?$AAS?$AAO?$AAM?$AAE?$AA_?$AAD?$AAA?$AAT?$AAA?$AA_?$AAI?$AAG?$AAN?$AAO@ 100532b4     dxerr8:dxerr8.obj
 0002:000042e4       ??_C@_1CI@MONMLGAO@?$AAV?$AAF?$AAW?$AA_?$AAS?$AA_?$AAN?$AAO?$AA_?$AAM?$AAO?$AAR?$AAE?$AA_?$AAI?$AAT?$AAE?$AAM?$AAS?$AA?$AA@ 100532e4     dxerr8:dxerr8.obj
 0002:0000430c       ??_C@_1CI@HLCOLGPP@?$AAE?$AAR?$AAR?$AAO?$AAR?$AA_?$AAI?$AAN?$AAV?$AAA?$AAL?$AAI?$AAD?$AA_?$AAB?$AAL?$AAO?$AAC?$AAK?$AA?$AA@ 1005330c     dxerr8:dxerr8.obj
 0002:00004334       ??_C@_1CM@OLHDPCCJ@?$AAE?$AAR?$AAR?$AAO?$AAR?$AA_?$AAB?$AAA?$AAD?$AA_?$AAE?$AAN?$AAV?$AAI?$AAR?$AAO?$AAN?$AAM?$AAE?$AAN@ 10053334     dxerr8:dxerr8.obj
 0002:00004360       ??_C@_1CC@EMPILMKG@?$AAE?$AAR?$AAR?$AAO?$AAR?$AA_?$AAB?$AAA?$AAD?$AA_?$AAF?$AAO?$AAR?$AAM?$AAA?$AAT?$AA?$AA@ 10053360     dxerr8:dxerr8.obj
 0002:00004384       ??_C@_1CE@NHKPDAFD@?$AAE?$AAR?$AAR?$AAO?$AAR?$AA_?$AAO?$AAU?$AAT?$AAO?$AAF?$AAM?$AAE?$AAM?$AAO?$AAR?$AAY?$AA?$AA@ 10053384     dxerr8:dxerr8.obj
 0002:000043a8       ??_C@_1DA@BGKJMAME@?$AAE?$AAR?$AAR?$AAO?$AAR?$AA_?$AAN?$AAO?$AAT?$AA_?$AAE?$AAN?$AAO?$AAU?$AAG?$AAH?$AA_?$AAM?$AAE?$AAM@ 100533a8     dxerr8:dxerr8.obj
 0002:000043d8       ??_C@_1CK@JJMPIDMB@?$AAE?$AAR?$AAR?$AAO?$AAR?$AA_?$AAP?$AAA?$AAT?$AAH?$AA_?$AAN?$AAO?$AAT?$AA_?$AAF?$AAO?$AAU?$AAN?$AAD@ 100533d8     dxerr8:dxerr8.obj
 0002:00004404       ??_C@_1DE@IDFDKEHA@?$AAE?$AAR?$AAR?$AAO?$AAR?$AA_?$AAT?$AAO?$AAO?$AA_?$AAM?$AAA?$AAN?$AAY?$AA_?$AAO?$AAP?$AAE?$AAN?$AA_@ 10053404     dxerr8:dxerr8.obj
 0002:00004438       ??_C@_1CI@CIPJMHOI@?$AAE?$AAR?$AAR?$AAO?$AAR?$AA_?$AAA?$AAC?$AAC?$AAE?$AAS?$AAS?$AA_?$AAD?$AAE?$AAN?$AAI?$AAE?$AAD?$AA?$AA@ 10053438     dxerr8:dxerr8.obj
 0002:00004460       ??_C@_1CK@KJHGLBAA@?$AAE?$AAR?$AAR?$AAO?$AAR?$AA_?$AAI?$AAN?$AAV?$AAA?$AAL?$AAI?$AAD?$AA_?$AAH?$AAA?$AAN?$AAD?$AAL?$AAE@ 10053460     dxerr8:dxerr8.obj
 0002:0000448c       ??_C@_1CK@KIJLKMBJ@?$AAE?$AAR?$AAR?$AAO?$AAR?$AA_?$AAF?$AAI?$AAL?$AAE?$AA_?$AAN?$AAO?$AAT?$AA_?$AAF?$AAO?$AAU?$AAN?$AAD@ 1005348c     dxerr8:dxerr8.obj
 0002:000044b8       ??_C@_1BA@HFIOMMCN@?$AAS?$AA_?$AAF?$AAA?$AAL?$AAS?$AAE?$AA?$AA@ 100534b8     dxerr8:dxerr8.obj
 0002:000044c8       ??_C@_19HAELCMCN@?$AAS?$AA_?$AAO?$AAK?$AA?$AA@ 100534c8     dxerr8:dxerr8.obj
 0002:000044d8       ??_C@_1EA@LOGAIFNK@?$AAD?$AAM?$AAU?$AAS?$AA_?$AAE?$AA_?$AAI?$AAN?$AAV?$AAA?$AAL?$AAI?$AAD?$AA_?$AAC?$AAO?$AAN?$AAT?$AAA@ 100534d8     dxerr8:dxerr8.obj
 0002:00004518       ??_C@_1EE@CGALEODD@?$AAD?$AAM?$AAU?$AAS?$AA_?$AAE?$AA_?$AAA?$AAU?$AAD?$AAI?$AAO?$AAP?$AAA?$AAT?$AAH?$AA_?$AAN?$AAO?$AAG@ 10053518     dxerr8:dxerr8.obj
 0002:0000455c       ??_C@_1CI@JBDKINML@?$AAD?$AAM?$AAU?$AAS?$AA_?$AAE?$AA_?$AAI?$AAN?$AAV?$AAA?$AAL?$AAI?$AAD?$AAC?$AAH?$AAU?$AAN?$AAK?$AA?$AA@ 1005355c     dxerr8:dxerr8.obj
 0002:00004584       ??_C@_1CI@HHNNJKKC@?$AAD?$AAM?$AAU?$AAS?$AA_?$AAE?$AA_?$AAN?$AAO?$AA_?$AAA?$AAU?$AAD?$AAI?$AAO?$AAP?$AAA?$AAT?$AAH?$AA?$AA@ 10053584     dxerr8:dxerr8.obj
 0002:000045ac       ??_C@_1DA@GFBDOCEI@?$AAD?$AAM?$AAU?$AAS?$AA_?$AAE?$AA_?$AAA?$AAU?$AAD?$AAI?$AAO?$AAP?$AAA?$AAT?$AAH?$AA_?$AAN?$AAO?$AAP@ 100535ac     dxerr8:dxerr8.obj
 0002:000045dc       ??_C@_1DE@OHEIBGDH@?$AAD?$AAM?$AAU?$AAS?$AA_?$AAE?$AA_?$AAA?$AAU?$AAD?$AAI?$AAO?$AAP?$AAA?$AAT?$AAH?$AA_?$AAN?$AAO?$AAB@ 100535dc     dxerr8:dxerr8.obj
 0002:00004610       ??_C@_1DE@IFLNLMGP@?$AAD?$AAM?$AAU?$AAS?$AA_?$AAE?$AA_?$AAA?$AAU?$AAD?$AAI?$AAO?$AAP?$AAA?$AAT?$AAH?$AA_?$AAI?$AAN?$AAA@ 10053610     dxerr8:dxerr8.obj
 0002:00004644       ??_C@_1DG@OMMIFHKC@?$AAD?$AAM?$AAU?$AAS?$AA_?$AAE?$AA_?$AAN?$AAO?$AA_?$AAA?$AAU?$AAD?$AAI?$AAO?$AAP?$AAA?$AAT?$AAH?$AA_@ 10053644     dxerr8:dxerr8.obj
 0002:0000467c       ??_C@_1DC@KDFNJAFN@?$AAD?$AAM?$AAU?$AAS?$AA_?$AAE?$AA_?$AAA?$AAU?$AAD?$AAI?$AAO?$AAP?$AAA?$AAT?$AAH?$AAS?$AA_?$AAI?$AAN@ 1005367c     dxerr8:dxerr8.obj
 0002:000046b0       ??_C@_1DI@NGOOHNCN@?$AAD?$AAM?$AAU?$AAS?$AA_?$AAE?$AA_?$AAA?$AAU?$AAD?$AAI?$AAO?$AAP?$AAA?$AAT?$AAH?$AAS?$AA_?$AAN?$AAO@ 100536b0     dxerr8:dxerr8.obj
 0002:000046e8       ??_C@_1EM@PPEEEPLK@?$AAD?$AAM?$AAU?$AAS?$AA_?$AAE?$AA_?$AAA?$AAU?$AAD?$AAI?$AAO?$AAV?$AAB?$AAS?$AAC?$AAR?$AAI?$AAP?$AAT@ 100536e8     dxerr8:dxerr8.obj
 0002:00004738       ??_C@_1EE@CJCAGCI@?$AAD?$AAM?$AAU?$AAS?$AA_?$AAE?$AA_?$AAA?$AAU?$AAD?$AAI?$AAO?$AAV?$AAB?$AAS?$AAC?$AAR?$AAI?$AAP?$AAT@ 10053738     dxerr8:dxerr8.obj
 0002:00004780       ??_C@_1EC@DPEJJFPA@?$AAD?$AAM?$AAU?$AAS?$AA_?$AAE?$AA_?$AAA?$AAU?$AAD?$AAI?$AAO?$AAV?$AAB?$AAS?$AAC?$AAR?$AAI?$AAP?$AAT@ 10053780     dxerr8:dxerr8.obj
 0002:000047c8       ??_C@_1EC@LDKMFKIH@?$AAD?$AAM?$AAU?$AAS?$AA_?$AAE?$AA_?$AAI?$AAN?$AAV?$AAA?$AAL?$AAI?$AAD?$AA_?$AAP?$AAA?$AAR?$AAA?$AAM@ 100537c8     dxerr8:dxerr8.obj
 0002:0000480c       ??_C@_1DG@BNLCFOKL@?$AAD?$AAM?$AAU?$AAS?$AA_?$AAE?$AA_?$AAI?$AAN?$AAV?$AAA?$AAL?$AAI?$AAD?$AA_?$AAL?$AAY?$AAR?$AAI?$AAC@ 1005380c     dxerr8:dxerr8.obj
 0002:00004848       ??_C@_1EG@EAJKEIME@?$AAD?$AAM?$AAU?$AAS?$AA_?$AAE?$AA_?$AAI?$AAN?$AAV?$AAA?$AAL?$AAI?$AAD?$AA_?$AAS?$AAE?$AAG?$AAM?$AAE@ 10053848     dxerr8:dxerr8.obj
 0002:00004890       ??_C@_1EE@BKLCCHDC@?$AAD?$AAM?$AAU?$AAS?$AA_?$AAE?$AA_?$AAS?$AAC?$AAR?$AAI?$AAP?$AAT?$AA_?$AAV?$AAA?$AAL?$AAU?$AAE?$AA_@ 10053890     dxerr8:dxerr8.obj
 0002:000048d4       ??_C@_1DM@IDEMOHBF@?$AAD?$AAM?$AAU?$AAS?$AA_?$AAE?$AA_?$AAS?$AAC?$AAR?$AAI?$AAP?$AAT?$AA_?$AAN?$AAO?$AAT?$AA_?$AAA?$AA_@ 100538d4     dxerr8:dxerr8.obj
 0002:00004910       ??_C@_1DO@CPFBOPNG@?$AAD?$AAM?$AAU?$AAS?$AA_?$AAE?$AA_?$AAS?$AAC?$AAR?$AAI?$AAP?$AAT?$AA_?$AAC?$AAO?$AAN?$AAT?$AAE?$AAN@ 10053910     dxerr8:dxerr8.obj
 0002:00004950       ??_C@_1EA@NODJGBMC@?$AAD?$AAM?$AAU?$AAS?$AA_?$AAE?$AA_?$AAS?$AAC?$AAR?$AAI?$AAP?$AAT?$AA_?$AAR?$AAO?$AAU?$AAT?$AAI?$AAN@ 10053950     dxerr8:dxerr8.obj
 0002:00004990       ??_C@_1EC@PGLGENMG@?$AAD?$AAM?$AAU?$AAS?$AA_?$AAE?$AA_?$AAS?$AAC?$AAR?$AAI?$AAP?$AAT?$AA_?$AAV?$AAA?$AAR?$AAI?$AAA?$AAB@ 10053990     dxerr8:dxerr8.obj
 0002:000049d4       ??_C@_1DG@BFAKKPDC@?$AAD?$AAM?$AAU?$AAS?$AA_?$AAE?$AA_?$AAI?$AAN?$AAV?$AAA?$AAL?$AAI?$AAD?$AA_?$AAS?$AAC?$AAR?$AAI?$AAP@ 100539d4     dxerr8:dxerr8.obj
 0002:00004a0c       ??_C@_1DG@PPOLECFO@?$AAD?$AAM?$AAU?$AAS?$AA_?$AAE?$AA_?$AAS?$AAC?$AAR?$AAI?$AAP?$AAT?$AA_?$AAI?$AAN?$AAV?$AAA?$AAL?$AAI@ 10053a0c     dxerr8:dxerr8.obj
 0002:00004a44       ??_C@_1DO@NDMGKGKP@?$AAD?$AAM?$AAU?$AAS?$AA_?$AAE?$AA_?$AAS?$AAC?$AAR?$AAI?$AAP?$AAT?$AA_?$AAL?$AAO?$AAA?$AAD?$AAS?$AAC@ 10053a44     dxerr8:dxerr8.obj
 0002:00004a88       ??_C@_1EA@MMMHNCMG@?$AAD?$AAM?$AAU?$AAS?$AA_?$AAE?$AA_?$AAS?$AAC?$AAR?$AAI?$AAP?$AAT?$AA_?$AAC?$AAA?$AAN?$AAT?$AAL?$AAO@ 10053a88     dxerr8:dxerr8.obj
 0002:00004ac8       ??_C@_1DM@BLAHGDIL@?$AAD?$AAM?$AAU?$AAS?$AA_?$AAE?$AA_?$AAS?$AAC?$AAR?$AAI?$AAP?$AAT?$AA_?$AAE?$AAR?$AAR?$AAO?$AAR?$AA_@ 10053ac8     dxerr8:dxerr8.obj
 0002:00004b08       ??_C@_1EE@BFLILJBE@?$AAD?$AAM?$AAU?$AAS?$AA_?$AAE?$AA_?$AAS?$AAC?$AAR?$AAI?$AAP?$AAT?$AA_?$AAU?$AAN?$AAS?$AAU?$AAP?$AAP@ 10053b08     dxerr8:dxerr8.obj
 0002:00004b50       ??_C@_1EI@CAPJPJMC@?$AAD?$AAM?$AAU?$AAS?$AA_?$AAE?$AA_?$AAS?$AAC?$AAR?$AAI?$AAP?$AAT?$AA_?$AAL?$AAA?$AAN?$AAG?$AAU?$AAA@ 10053b50     dxerr8:dxerr8.obj
 0002:00004b98       ??_C@_1CE@GGAAHMHD@?$AAD?$AAM?$AAU?$AAS?$AA_?$AAE?$AA_?$AAN?$AAO?$AAT?$AA_?$AAL?$AAO?$AAA?$AAD?$AAE?$AAD?$AA?$AA@ 10053b98     dxerr8:dxerr8.obj
 0002:00004bbc       ??_C@_1DE@LALNGPOE@?$AAD?$AAM?$AAU?$AAS?$AA_?$AAE?$AA_?$AAD?$AAE?$AAS?$AAC?$AAE?$AAN?$AAD?$AA_?$AAC?$AAH?$AAU?$AAN?$AAK@ 10053bbc     dxerr8:dxerr8.obj
 0002:00004bf0       ??_C@_1CM@DPHJAMHD@?$AAD?$AAM?$AAU?$AAS?$AA_?$AAE?$AA_?$AAC?$AAA?$AAN?$AAN?$AAO?$AAT?$AA_?$AAC?$AAO?$AAN?$AAV?$AAE?$AAR@ 10053bf0     dxerr8:dxerr8.obj
 0002:00004c1c       ??_C@_1DA@PKPDBMDM@?$AAD?$AAM?$AAU?$AAS?$AA_?$AAE?$AA_?$AAC?$AAA?$AAN?$AAN?$AAO?$AAT?$AA_?$AAO?$AAP?$AAE?$AAN?$AA_?$AAP@ 10053c1c     dxerr8:dxerr8.obj
 0002:00004c4c       ??_C@_1CG@CKGJDFLC@?$AAD?$AAM?$AAU?$AAS?$AA_?$AAE?$AA_?$AAC?$AAA?$AAN?$AAN?$AAO?$AAT?$AA_?$AAF?$AAR?$AAE?$AAE?$AA?$AA@ 10053c4c     dxerr8:dxerr8.obj
 0002:00004c74       ??_C@_1CI@IGFAHJCE@?$AAD?$AAM?$AAU?$AAS?$AA_?$AAE?$AA_?$AAA?$AAL?$AAR?$AAE?$AAA?$AAD?$AAY?$AA_?$AAS?$AAE?$AAN?$AAT?$AA?$AA@ 10053c74     dxerr8:dxerr8.obj
 0002:00004c9c       ??_C@_1DC@MCCDKKNA@?$AAD?$AAM?$AAU?$AAS?$AA_?$AAE?$AA_?$AAL?$AAO?$AAA?$AAD?$AAE?$AAR?$AA_?$AAN?$AAO?$AAF?$AAI?$AAL?$AAE@ 10053c9c     dxerr8:dxerr8.obj
 0002:00004cd0       ??_C@_1CG@PFHDMJDO@?$AAD?$AAM?$AAU?$AAS?$AA_?$AAE?$AA_?$AAI?$AAN?$AAV?$AAA?$AAL?$AAI?$AAD?$AAF?$AAI?$AAL?$AAE?$AA?$AA@ 10053cd0     dxerr8:dxerr8.obj
 0002:00004cf8       ??_C@_1CM@GAGJHDPC@?$AAD?$AAM?$AAU?$AAS?$AA_?$AAE?$AA_?$AAA?$AAL?$AAR?$AAE?$AAA?$AAD?$AAY?$AA_?$AAE?$AAX?$AAI?$AAS?$AAT@ 10053cf8     dxerr8:dxerr8.obj
 0002:00004d24       ??_C@_1CI@EMLNKPBF@?$AAD?$AAM?$AAU?$AAS?$AA_?$AAE?$AA_?$AAO?$AAU?$AAT?$AA_?$AAO?$AAF?$AA_?$AAR?$AAA?$AAN?$AAG?$AAE?$AA?$AA@ 10053d24     dxerr8:dxerr8.obj
 0002:00004d4c       ??_C@_1DG@JPNAKFIL@?$AAD?$AAM?$AAU?$AAS?$AA_?$AAE?$AA_?$AAS?$AAE?$AAG?$AAM?$AAE?$AAN?$AAT?$AA_?$AAI?$AAN?$AAI?$AAT?$AA_@ 10053d4c     dxerr8:dxerr8.obj
 0002:00004d84       ??_C@_1DK@JAKAEHLI@?$AAD?$AAM?$AAU?$AAS?$AA_?$AAE?$AA_?$AAL?$AAO?$AAA?$AAD?$AAE?$AAR?$AA_?$AAO?$AAB?$AAJ?$AAE?$AAC?$AAT@ 10053d84     dxerr8:dxerr8.obj
 0002:00004dc0       ??_C@_1DA@DAMMPMHB@?$AAD?$AAM?$AAU?$AAS?$AA_?$AAE?$AA_?$AAL?$AAO?$AAA?$AAD?$AAE?$AAR?$AA_?$AAN?$AAO?$AAC?$AAL?$AAA?$AAS@ 10053dc0     dxerr8:dxerr8.obj
 0002:00004df0       ??_C@_1CM@OFNENAGF@?$AAD?$AAM?$AAU?$AAS?$AA_?$AAE?$AA_?$AAL?$AAO?$AAA?$AAD?$AAE?$AAR?$AA_?$AAB?$AAA?$AAD?$AAP?$AAA?$AAT@ 10053df0     dxerr8:dxerr8.obj
 0002:00004e1c       ??_C@_1DC@LPMMFCAB@?$AAD?$AAM?$AAU?$AAS?$AA_?$AAE?$AA_?$AAL?$AAO?$AAA?$AAD?$AAE?$AAR?$AA_?$AAF?$AAA?$AAI?$AAL?$AAE?$AAD@ 10053e1c     dxerr8:dxerr8.obj
 0002:00004e50       ??_C@_1EC@JMCKODPA@?$AAD?$AAM?$AAU?$AAS?$AA_?$AAE?$AA_?$AAL?$AAO?$AAA?$AAD?$AAE?$AAR?$AA_?$AAF?$AAO?$AAR?$AAM?$AAA?$AAT@ 10053e50     dxerr8:dxerr8.obj
 0002:00004e94       ??_C@_1DG@MPCOFEBE@?$AAD?$AAM?$AAU?$AAS?$AA_?$AAE?$AA_?$AAL?$AAO?$AAA?$AAD?$AAE?$AAR?$AA_?$AAF?$AAA?$AAI?$AAL?$AAE?$AAD@ 10053e94     dxerr8:dxerr8.obj
 0002:00004ecc       ??_C@_1CO@MFIIEJPK@?$AAD?$AAM?$AAU?$AAS?$AA_?$AAE?$AA_?$AAN?$AAO?$AA_?$AAM?$AAA?$AAS?$AAT?$AAE?$AAR?$AA_?$AAC?$AAL?$AAO@ 10053ecc     dxerr8:dxerr8.obj
 0002:00004f00       ??_C@_1EE@HIJIHCJO@?$AAD?$AAM?$AAU?$AAS?$AA_?$AAE?$AA_?$AAT?$AAR?$AAA?$AAC?$AAK?$AA_?$AAN?$AAO?$AA_?$AAC?$AAL?$AAO?$AAC@ 10053f00     dxerr8:dxerr8.obj
 0002:00004f44       ??_C@_1CO@JNMDJELL@?$AAD?$AAM?$AAU?$AAS?$AA_?$AAE?$AA_?$AAT?$AAR?$AAA?$AAC?$AAK?$AA_?$AAN?$AAO?$AAT?$AA_?$AAF?$AAO?$AAU@ 10053f44     dxerr8:dxerr8.obj
 0002:00004f74       ??_C@_1CC@IDKMJNN@?$AAD?$AAM?$AAU?$AAS?$AA_?$AAE?$AA_?$AAT?$AAI?$AAM?$AAE?$AA_?$AAP?$AAA?$AAS?$AAT?$AA?$AA@ 10053f74     dxerr8:dxerr8.obj
 0002:00004f98       ??_C@_1DA@ECNHHMP@?$AAD?$AAM?$AAU?$AAS?$AA_?$AAE?$AA_?$AAT?$AAY?$AAP?$AAE?$AA_?$AAU?$AAN?$AAS?$AAU?$AAP?$AAP?$AAO?$AAR@ 10053f98     dxerr8:dxerr8.obj
 0002:00004fc8       ??_C@_1CK@NDCGOPCL@?$AAD?$AAM?$AAU?$AAS?$AA_?$AAE?$AA_?$AAT?$AAY?$AAP?$AAE?$AA_?$AAD?$AAI?$AAS?$AAA?$AAB?$AAL?$AAE?$AAD@ 10053fc8     dxerr8:dxerr8.obj
 0002:00004ff4       ??_C@_1CA@DBOLKOIE@?$AAD?$AAM?$AAU?$AAS?$AA_?$AAE?$AA_?$AAN?$AAO?$AAT?$AA_?$AAI?$AAN?$AAI?$AAT?$AA?$AA@ 10053ff4     dxerr8:dxerr8.obj
 0002:00005014       ??_C@_1DC@CFCECPCP@?$AAD?$AAM?$AAU?$AAS?$AA_?$AAE?$AA_?$AAA?$AAL?$AAL?$AA_?$AAT?$AAR?$AAA?$AAC?$AAK?$AAS?$AA_?$AAF?$AAA@ 10054014     dxerr8:dxerr8.obj
 0002:00005048       ??_C@_1DA@HJAOLIDM@?$AAD?$AAM?$AAU?$AAS?$AA_?$AAE?$AA_?$AAA?$AAL?$AAL?$AA_?$AAT?$AAO?$AAO?$AAL?$AAS?$AA_?$AAF?$AAA?$AAI@ 10054048     dxerr8:dxerr8.obj
 0002:00005078       ??_C@_1DA@DKIJEOGB@?$AAD?$AAM?$AAU?$AAS?$AA_?$AAE?$AA_?$AAI?$AAN?$AAV?$AAA?$AAL?$AAI?$AAD?$AA_?$AAT?$AAO?$AAO?$AAL?$AA_@ 10054078     dxerr8:dxerr8.obj
 0002:000050a8       ??_C@_1DC@GPNEKCKE@?$AAD?$AAM?$AAU?$AAS?$AA_?$AAE?$AA_?$AAI?$AAN?$AAV?$AAA?$AAL?$AAI?$AAD?$AA_?$AAT?$AAR?$AAA?$AAC?$AAK@ 100540a8     dxerr8:dxerr8.obj
 0002:000050dc       ??_C@_1DK@EAMGIJNH@?$AAD?$AAM?$AAU?$AAS?$AA_?$AAE?$AA_?$AAT?$AAO?$AAO?$AAL?$AA_?$AAH?$AAD?$AAR?$AA_?$AAN?$AAO?$AAT?$AA_@ 100540dc     dxerr8:dxerr8.obj
 0002:00005118       ??_C@_1DM@LLGFPCOO@?$AAD?$AAM?$AAU?$AAS?$AA_?$AAE?$AA_?$AAT?$AAR?$AAA?$AAC?$AAK?$AA_?$AAH?$AAD?$AAR?$AA_?$AAN?$AAO?$AAT@ 10054118     dxerr8:dxerr8.obj
 0002:00005154       ??_C@_1CI@CPJIJCPI@?$AAD?$AAM?$AAU?$AAS?$AA_?$AAE?$AA_?$AAI?$AAN?$AAV?$AAA?$AAL?$AAI?$AAD?$AA_?$AAB?$AAA?$AAN?$AAD?$AA?$AA@ 10054154     dxerr8:dxerr8.obj
 0002:0000517c       ??_C@_1CM@KGDIBNMC@?$AAD?$AAM?$AAU?$AAS?$AA_?$AAE?$AA_?$AAA?$AAL?$AAR?$AAE?$AAA?$AAD?$AAY?$AA_?$AAI?$AAN?$AAI?$AAT?$AAE@ 1005417c     dxerr8:dxerr8.obj
 0002:000051a8       ??_C@_1DE@NCJKMKNN@?$AAD?$AAM?$AAU?$AAS?$AA_?$AAE?$AA_?$AAU?$AAN?$AAS?$AAU?$AAP?$AAP?$AAO?$AAR?$AAT?$AAE?$AAD?$AA_?$AAS@ 100541a8     dxerr8:dxerr8.obj
 0002:000051dc       ??_C@_1CK@MLBAGCJO@?$AAD?$AAM?$AAU?$AAS?$AA_?$AAE?$AA_?$AAI?$AAN?$AAV?$AAA?$AAL?$AAI?$AAD?$AA_?$AAE?$AAV?$AAE?$AAN?$AAT@ 100541dc     dxerr8:dxerr8.obj
 0002:00005208       ??_C@_1DE@JDHBOICM@?$AAD?$AAM?$AAU?$AAS?$AA_?$AAE?$AA_?$AAD?$AAS?$AAO?$AAU?$AAN?$AAD?$AA_?$AAA?$AAL?$AAR?$AAE?$AAA?$AAD@ 10054208     dxerr8:dxerr8.obj
 0002:0000523c       ??_C@_1CK@EPDCJHMH@?$AAD?$AAM?$AAU?$AAS?$AA_?$AAE?$AA_?$AAS?$AAY?$AAN?$AAT?$AAH?$AAI?$AAN?$AAA?$AAC?$AAT?$AAI?$AAV?$AAE@ 1005423c     dxerr8:dxerr8.obj
 0002:00005268       ??_C@_1DM@DNBABMEF@?$AAD?$AAM?$AAU?$AAS?$AA_?$AAE?$AA_?$AAW?$AAA?$AAV?$AAE?$AAF?$AAO?$AAR?$AAM?$AAA?$AAT?$AAN?$AAO?$AAT@ 10054268     dxerr8:dxerr8.obj
 0002:000052a4       ??_C@_1CK@PAMNOKEB@?$AAD?$AAM?$AAU?$AAS?$AA_?$AAE?$AA_?$AAI?$AAN?$AAV?$AAA?$AAL?$AAI?$AAD?$AAB?$AAU?$AAF?$AAF?$AAE?$AAR@ 100542a4     dxerr8:dxerr8.obj
 0002:000052d0       ??_C@_1DC@HLEPGJHI@?$AAD?$AAM?$AAU?$AAS?$AA_?$AAE?$AA_?$AAA?$AAL?$AAR?$AAE?$AAA?$AAD?$AAY?$AA_?$AAA?$AAC?$AAT?$AAI?$AAV@ 100542d0     dxerr8:dxerr8.obj
 0002:00005304       ??_C@_1CM@MAJDGLPJ@?$AAD?$AAM?$AAU?$AAS?$AA_?$AAE?$AA_?$AAD?$AAS?$AAO?$AAU?$AAN?$AAD?$AA_?$AAN?$AAO?$AAT?$AA_?$AAS?$AAE@ 10054304     dxerr8:dxerr8.obj
 0002:00005330       ??_C@_1CO@MGFIMFNN@?$AAD?$AAM?$AAU?$AAS?$AA_?$AAE?$AA_?$AAP?$AAO?$AAR?$AAT?$AA_?$AAN?$AAO?$AAT?$AA_?$AAR?$AAE?$AAN?$AAD@ 10054330     dxerr8:dxerr8.obj
 0002:00005360       ??_C@_1DA@JMINENAP@?$AAD?$AAM?$AAU?$AAS?$AA_?$AAE?$AA_?$AAP?$AAO?$AAR?$AAT?$AA_?$AAN?$AAO?$AAT?$AA_?$AAC?$AAA?$AAP?$AAT@ 10054360     dxerr8:dxerr8.obj
 0002:00005390       ??_C@_1CG@IICDBHKL@?$AAD?$AAM?$AAU?$AAS?$AA_?$AAE?$AA_?$AAB?$AAU?$AAF?$AAF?$AAE?$AAR?$AA_?$AAF?$AAU?$AAL?$AAL?$AA?$AA@ 10054390     dxerr8:dxerr8.obj
 0002:000053b8       ??_C@_1CI@PPFDJPJA@?$AAD?$AAM?$AAU?$AAS?$AA_?$AAE?$AA_?$AAB?$AAU?$AAF?$AAF?$AAE?$AAR?$AA_?$AAE?$AAM?$AAP?$AAT?$AAY?$AA?$AA@ 100543b8     dxerr8:dxerr8.obj
 0002:000053e0       ??_C@_1CO@JABMJCNE@?$AAD?$AAM?$AAU?$AAS?$AA_?$AAE?$AA_?$AAD?$AAM?$AAU?$AAS?$AAI?$AAC?$AA_?$AAR?$AAE?$AAL?$AAE?$AAA?$AAS@ 100543e0     dxerr8:dxerr8.obj
 0002:00005410       ??_C@_1CE@GDBCMEAG@?$AAD?$AAM?$AAU?$AAS?$AA_?$AAE?$AA_?$AAC?$AAA?$AAN?$AAN?$AAO?$AAT?$AAR?$AAE?$AAA?$AAD?$AA?$AA@ 10054410     dxerr8:dxerr8.obj
 0002:00005434       ??_C@_1CG@OIKCLJMN@?$AAD?$AAM?$AAU?$AAS?$AA_?$AAE?$AA_?$AAS?$AAY?$AAN?$AAT?$AAH?$AAA?$AAC?$AAT?$AAI?$AAV?$AAE?$AA?$AA@ 10054434     dxerr8:dxerr8.obj
 0002:0000545c       ??_C@_1DE@INAOJMMJ@?$AAD?$AAM?$AAU?$AAS?$AA_?$AAE?$AA_?$AAS?$AAY?$AAN?$AAT?$AAH?$AAN?$AAO?$AAT?$AAC?$AAO?$AAN?$AAF?$AAI@ 1005445c     dxerr8:dxerr8.obj
 0002:00005490       ??_C@_1CK@MGJKNLMF@?$AAD?$AAM?$AAU?$AAS?$AA_?$AAE?$AA_?$AAA?$AAL?$AAR?$AAE?$AAA?$AAD?$AAY?$AAC?$AAL?$AAO?$AAS?$AAE?$AAD@ 10054490     dxerr8:dxerr8.obj
 0002:000054bc       ??_C@_1CG@PIDAJEM@?$AAD?$AAM?$AAU?$AAS?$AA_?$AAE?$AA_?$AAA?$AAL?$AAR?$AAE?$AAA?$AAD?$AAY?$AAO?$AAP?$AAE?$AAN?$AA?$AA@ 100544bc     dxerr8:dxerr8.obj
 0002:000054e4       ??_C@_1CG@POEJAAMD@?$AAD?$AAM?$AAU?$AAS?$AA_?$AAE?$AA_?$AAN?$AAO?$AAS?$AAY?$AAN?$AAT?$AAH?$AAS?$AAI?$AAN?$AAK?$AA?$AA@ 100544e4     dxerr8:dxerr8.obj
 0002:0000550c       ??_C@_1CO@BAEFKCPK@?$AAD?$AAM?$AAU?$AAS?$AA_?$AAE?$AA_?$AAU?$AAN?$AAK?$AAN?$AAO?$AAW?$AAN?$AAD?$AAO?$AAW?$AAN?$AAL?$AAO@ 1005450c     dxerr8:dxerr8.obj
 0002:0000553c       ??_C@_1CM@NIDPKBIN@?$AAD?$AAM?$AAU?$AAS?$AA_?$AAE?$AA_?$AAB?$AAA?$AAD?$AAO?$AAF?$AAF?$AAS?$AAE?$AAT?$AAT?$AAA?$AAB?$AAL@ 1005453c     dxerr8:dxerr8.obj
 0002:00005568       ??_C@_1BO@JOEMOBLJ@?$AAD?$AAM?$AAU?$AAS?$AA_?$AAE?$AA_?$AAB?$AAA?$AAD?$AAW?$AAA?$AAV?$AAE?$AA?$AA@ 10054568     dxerr8:dxerr8.obj
 0002:00005588       ??_C@_1BM@NPNDJJCP@?$AAD?$AAM?$AAU?$AAS?$AA_?$AAE?$AA_?$AAN?$AAO?$AAT?$AAP?$AAC?$AAM?$AA?$AA@ 10054588     dxerr8:dxerr8.obj
 0002:000055a4       ??_C@_1CM@KOIBNHDN@?$AAD?$AAM?$AAU?$AAS?$AA_?$AAE?$AA_?$AAN?$AAO?$AAA?$AAR?$AAT?$AAI?$AAC?$AAU?$AAL?$AAA?$AAT?$AAI?$AAO@ 100545a4     dxerr8:dxerr8.obj
 0002:000055d0       ??_C@_1CG@LBNBLJIB@?$AAD?$AAM?$AAU?$AAS?$AA_?$AAE?$AA_?$AAB?$AAA?$AAD?$AAW?$AAA?$AAV?$AAE?$AAL?$AAI?$AAN?$AAK?$AA?$AA@ 100545d0     dxerr8:dxerr8.obj
 0002:000055f8       ??_C@_1CK@CCPLHIME@?$AAD?$AAM?$AAU?$AAS?$AA_?$AAE?$AA_?$AAB?$AAA?$AAD?$AAI?$AAN?$AAS?$AAT?$AAR?$AAU?$AAM?$AAE?$AAN?$AAT@ 100545f8     dxerr8:dxerr8.obj
 0002:00005624       ??_C@_1CO@COONMIBP@?$AAD?$AAM?$AAU?$AAS?$AA_?$AAE?$AA_?$AAB?$AAA?$AAD?$AAA?$AAR?$AAT?$AAI?$AAC?$AAU?$AAL?$AAA?$AAT?$AAI@ 10054624     dxerr8:dxerr8.obj
 0002:00005654       ??_C@_1BO@FLNDOJIM@?$AAD?$AAM?$AAU?$AAS?$AA_?$AAE?$AA_?$AAN?$AAO?$AAT?$AAM?$AAO?$AAN?$AAO?$AA?$AA@ 10054654     dxerr8:dxerr8.obj
 0002:00005674       ??_C@_1CO@OHJNGMNM@?$AAD?$AAM?$AAU?$AAS?$AA_?$AAE?$AA_?$AAG?$AAE?$AAT?$AA_?$AAU?$AAN?$AAS?$AAU?$AAP?$AAP?$AAO?$AAR?$AAT@ 10054674     dxerr8:dxerr8.obj
 0002:000056a4       ??_C@_1CO@ILEOBIBP@?$AAD?$AAM?$AAU?$AAS?$AA_?$AAE?$AA_?$AAS?$AAE?$AAT?$AA_?$AAU?$AAN?$AAS?$AAU?$AAP?$AAP?$AAO?$AAR?$AAT@ 100546a4     dxerr8:dxerr8.obj
 0002:000056d4       ??_C@_1DA@GCGCGLDE@?$AAD?$AAM?$AAU?$AAS?$AA_?$AAE?$AA_?$AAU?$AAN?$AAK?$AAN?$AAO?$AAW?$AAN?$AA_?$AAP?$AAR?$AAO?$AAP?$AAE@ 100546d4     dxerr8:dxerr8.obj
 0002:00005704       ??_C@_1DE@NDPLNNGF@?$AAD?$AAM?$AAU?$AAS?$AA_?$AAE?$AA_?$AAA?$AAL?$AAR?$AAE?$AAA?$AAD?$AAY?$AA_?$AAD?$AAO?$AAW?$AAN?$AAL@ 10054704     dxerr8:dxerr8.obj
 0002:00005738       ??_C@_1DM@IALDHPN@?$AAD?$AAM?$AAU?$AAS?$AA_?$AAE?$AA_?$AAN?$AAO?$AAT?$AA_?$AAD?$AAO?$AAW?$AAN?$AAL?$AAO?$AAA?$AAD?$AAE@ 10054738     dxerr8:dxerr8.obj
 0002:00005774       ??_C@_1DE@MMOBMADE@?$AAD?$AAM?$AAU?$AAS?$AA_?$AAE?$AA_?$AAI?$AAN?$AAV?$AAA?$AAL?$AAI?$AAD?$AA_?$AAD?$AAO?$AAW?$AAN?$AAL@ 10054774     dxerr8:dxerr8.obj
 0002:000057a8       ??_C@_1CK@OLIALOFE@?$AAD?$AAM?$AAU?$AAS?$AA_?$AAE?$AA_?$AAC?$AAH?$AAU?$AAN?$AAK?$AAN?$AAO?$AAT?$AAF?$AAO?$AAU?$AAN?$AAD@ 100547a8     dxerr8:dxerr8.obj
 0002:000057d4       ??_C@_1CG@OLHLJOJN@?$AAD?$AAM?$AAU?$AAS?$AA_?$AAE?$AA_?$AAC?$AAA?$AAN?$AAN?$AAO?$AAT?$AAW?$AAR?$AAI?$AAT?$AAE?$AA?$AA@ 100547d4     dxerr8:dxerr8.obj
 0002:000057fc       ??_C@_1CE@EPCCPNHI@?$AAD?$AAM?$AAU?$AAS?$AA_?$AAE?$AA_?$AAC?$AAA?$AAN?$AAN?$AAO?$AAT?$AAS?$AAE?$AAE?$AAK?$AA?$AA@ 100547fc     dxerr8:dxerr8.obj
 0002:00005820       ??_C@_1CI@HECICFKD@?$AAD?$AAM?$AAU?$AAS?$AA_?$AAE?$AA_?$AAI?$AAN?$AAV?$AAA?$AAL?$AAI?$AAD?$AAP?$AAA?$AAT?$AAC?$AAH?$AA?$AA@ 10054820     dxerr8:dxerr8.obj
 0002:00005848       ??_C@_1CE@DIHPMHPG@?$AAD?$AAM?$AAU?$AAS?$AA_?$AAE?$AA_?$AAI?$AAN?$AAV?$AAA?$AAL?$AAI?$AAD?$AAP?$AAO?$AAS?$AA?$AA@ 10054848     dxerr8:dxerr8.obj
 0002:0000586c       ??_C@_1CK@OKCEEIID@?$AAD?$AAS?$AAE?$AAR?$AAR?$AA_?$AAO?$AAB?$AAJ?$AAE?$AAC?$AAT?$AAN?$AAO?$AAT?$AAF?$AAO?$AAU?$AAN?$AAD@ 1005486c     dxerr8:dxerr8.obj
 0002:00005898       ??_C@_1CM@NGFCEOBP@?$AAD?$AAM?$AAU?$AAS?$AA_?$AAE?$AA_?$AAA?$AAL?$AAR?$AAE?$AAA?$AAD?$AAY?$AA_?$AAL?$AAO?$AAA?$AAD?$AAE@ 10054898     dxerr8:dxerr8.obj
 0002:000058c4       ??_C@_1CK@CNIBMFIF@?$AAD?$AAM?$AAU?$AAS?$AA_?$AAE?$AA_?$AAI?$AAN?$AAV?$AAA?$AAL?$AAI?$AAD?$AAO?$AAF?$AAF?$AAS?$AAE?$AAT@ 100548c4     dxerr8:dxerr8.obj
 0002:000058f0       ??_C@_1CE@KJNDCLMF@?$AAD?$AAM?$AAU?$AAS?$AA_?$AAE?$AA_?$AAN?$AAO?$AAT?$AAA?$AAD?$AAL?$AAS?$AAC?$AAO?$AAL?$AA?$AA@ 100548f0     dxerr8:dxerr8.obj
 0002:00005914       ??_C@_1DE@HNOONALG@?$AAD?$AAM?$AAU?$AAS?$AA_?$AAE?$AA_?$AAB?$AAU?$AAF?$AAF?$AAE?$AAR?$AAN?$AAO?$AAT?$AAA?$AAV?$AAA?$AAI@ 10054914     dxerr8:dxerr8.obj
 0002:00005948       ??_C@_1CI@IBANAOMJ@?$AAD?$AAM?$AAU?$AAS?$AA_?$AAE?$AA_?$AAB?$AAU?$AAF?$AAF?$AAE?$AAR?$AAN?$AAO?$AAT?$AAS?$AAE?$AAT?$AA?$AA@ 10054948     dxerr8:dxerr8.obj
 0002:00005970       ??_C@_1DE@ONHOJHAC@?$AAD?$AAM?$AAU?$AAS?$AA_?$AAE?$AA_?$AAI?$AAN?$AAS?$AAU?$AAF?$AAF?$AAI?$AAC?$AAI?$AAE?$AAN?$AAT?$AAB@ 10054970     dxerr8:dxerr8.obj
 0002:000059a4       ??_C@_1CK@DLNLJBNJ@?$AAD?$AAM?$AAU?$AAS?$AA_?$AAE?$AA_?$AAD?$AAE?$AAV?$AAI?$AAC?$AAE?$AA_?$AAI?$AAN?$AA_?$AAU?$AAS?$AAE@ 100549a4     dxerr8:dxerr8.obj
 0002:000059d0       ??_C@_1CE@OFFJFHOK@?$AAD?$AAM?$AAU?$AAS?$AA_?$AAE?$AA_?$AAP?$AAO?$AAR?$AAT?$AAS?$AA_?$AAO?$AAP?$AAE?$AAN?$AA?$AA@ 100549d0     dxerr8:dxerr8.obj
 0002:000059f4       ??_C@_1CK@OLIACKBA@?$AAD?$AAM?$AAU?$AAS?$AA_?$AAE?$AA_?$AAD?$AAR?$AAI?$AAV?$AAE?$AAR?$AA_?$AAF?$AAA?$AAI?$AAL?$AAE?$AAD@ 100549f4     dxerr8:dxerr8.obj
 0002:00005a20       ??_C@_1DA@JDGMOKLM@?$AAD?$AAS?$AAE?$AAR?$AAR?$AA_?$AAB?$AAA?$AAD?$AAS?$AAE?$AAN?$AAD?$AAB?$AAU?$AAF?$AAF?$AAE?$AAR?$AAG@ 10054a20     dxerr8:dxerr8.obj
 0002:00005a50       ??_C@_1CK@CEPJKMME@?$AAD?$AAS?$AAE?$AAR?$AAR?$AA_?$AAB?$AAU?$AAF?$AAF?$AAE?$AAR?$AAT?$AAO?$AAO?$AAS?$AAM?$AAA?$AAL?$AAL@ 10054a50     dxerr8:dxerr8.obj
 0002:00005a7c       ??_C@_1CG@BFELFHCD@?$AAD?$AAS?$AAE?$AAR?$AAR?$AA_?$AAD?$AAS?$AA8?$AA_?$AAR?$AAE?$AAQ?$AAU?$AAI?$AAR?$AAE?$AAD?$AA?$AA@ 10054a7c     dxerr8:dxerr8.obj
 0002:00005aa4       ??_C@_1BO@NNCAJLBB@?$AAD?$AAS?$AAE?$AAR?$AAR?$AA_?$AAS?$AAE?$AAN?$AAD?$AAL?$AAO?$AAO?$AAP?$AA?$AA@ 10054aa4     dxerr8:dxerr8.obj
 0002:00005ac4       ??_C@_1CI@DPBGAGCM@?$AAD?$AAS?$AAE?$AAR?$AAR?$AA_?$AAU?$AAN?$AAI?$AAN?$AAI?$AAT?$AAI?$AAA?$AAL?$AAI?$AAZ?$AAE?$AAD?$AA?$AA@ 10054ac4     dxerr8:dxerr8.obj
 0002:00005aec       ??_C@_1BO@ELMGCKOA@?$AAD?$AAS?$AAE?$AAR?$AAR?$AA_?$AAN?$AAO?$AAD?$AAR?$AAI?$AAV?$AAE?$AAR?$AA?$AA@ 10054aec     dxerr8:dxerr8.obj
 0002:00005b0c       ??_C@_1DC@NHAHCMHG@?$AAD?$AAS?$AAE?$AAR?$AAR?$AA_?$AAA?$AAL?$AAR?$AAE?$AAA?$AAD?$AAY?$AAI?$AAN?$AAI?$AAT?$AAI?$AAA?$AAL@ 10054b0c     dxerr8:dxerr8.obj
 0002:00005b40       ??_C@_1CC@GNFIKJB@?$AAD?$AAS?$AAE?$AAR?$AAR?$AA_?$AAB?$AAU?$AAF?$AAF?$AAE?$AAR?$AAL?$AAO?$AAS?$AAT?$AA?$AA@ 10054b40     dxerr8:dxerr8.obj
 0002:00005b64       ??_C@_1CM@DALAIINB@?$AAD?$AAS?$AAE?$AAR?$AAR?$AA_?$AAO?$AAT?$AAH?$AAE?$AAR?$AAA?$AAP?$AAP?$AAH?$AAA?$AAS?$AAP?$AAR?$AAI@ 10054b64     dxerr8:dxerr8.obj
 0002:00005b90       ??_C@_1CA@MENOBLAG@?$AAD?$AAS?$AAE?$AAR?$AAR?$AA_?$AAB?$AAA?$AAD?$AAF?$AAO?$AAR?$AAM?$AAA?$AAT?$AA?$AA@ 10054b90     dxerr8:dxerr8.obj
 0002:00005bb0       ??_C@_1CK@LNALMENG@?$AAD?$AAS?$AAE?$AAR?$AAR?$AA_?$AAC?$AAO?$AAN?$AAT?$AAR?$AAO?$AAL?$AAU?$AAN?$AAA?$AAV?$AAA?$AAI?$AAL@ 10054bb0     dxerr8:dxerr8.obj
 0002:00005bdc       ??_C@_1CE@CPBIOMGM@?$AAD?$AAS?$AAE?$AAR?$AAR?$AA_?$AAI?$AAN?$AAV?$AAA?$AAL?$AAI?$AAD?$AAC?$AAA?$AAL?$AAL?$AA?$AA@ 10054bdc     dxerr8:dxerr8.obj
 0002:00005c00       ??_C@_1CM@LGMLGOJ@?$AAD?$AAS?$AAE?$AAR?$AAR?$AA_?$AAP?$AAR?$AAI?$AAO?$AAL?$AAE?$AAV?$AAE?$AAL?$AAN?$AAE?$AAE?$AAD?$AAE@ 10054c00     dxerr8:dxerr8.obj
 0002:00005c2c       ??_C@_1CA@CEHGLBML@?$AAD?$AAS?$AAE?$AAR?$AAR?$AA_?$AAA?$AAL?$AAL?$AAO?$AAC?$AAA?$AAT?$AAE?$AAD?$AA?$AA@ 10054c2c     dxerr8:dxerr8.obj
 0002:00005c4c       ??_C@_1CO@JKEGPNEE@?$AAD?$AA3?$AAD?$AAX?$AAE?$AAR?$AAR?$AA_?$AAC?$AAA?$AAN?$AAN?$AAO?$AAT?$AAA?$AAT?$AAT?$AAR?$AAS?$AAO@ 10054c4c     dxerr8:dxerr8.obj
 0002:00005c7c       ??_C@_1DK@HFCCMMJ@?$AAD?$AA3?$AAD?$AAX?$AAE?$AAR?$AAR?$AA_?$AAS?$AAK?$AAI?$AAN?$AAN?$AAI?$AAN?$AAG?$AAN?$AAO?$AAT?$AAS@ 10054c7c     dxerr8:dxerr8.obj
 0002:00005cb8       ??_C@_1DE@HFKIDJAF@?$AAD?$AA3?$AAD?$AAX?$AAE?$AAR?$AAR?$AA_?$AAT?$AAO?$AAO?$AAM?$AAA?$AAN?$AAY?$AAI?$AAN?$AAF?$AAL?$AAU@ 10054cb8     dxerr8:dxerr8.obj
 0002:00005cec       ??_C@_1CI@DMCFAPMF@?$AAD?$AA3?$AAD?$AAX?$AAE?$AAR?$AAR?$AA_?$AAI?$AAN?$AAV?$AAA?$AAL?$AAI?$AAD?$AAD?$AAA?$AAT?$AAA?$AA?$AA@ 10054cec     dxerr8:dxerr8.obj
 0002:00005d14       ??_C@_1CI@CEHHFFMH@?$AAD?$AA3?$AAD?$AAX?$AAE?$AAR?$AAR?$AA_?$AAI?$AAN?$AAV?$AAA?$AAL?$AAI?$AAD?$AAM?$AAE?$AAS?$AAH?$AA?$AA@ 10054d14     dxerr8:dxerr8.obj
 0002:00005d3c       ??_C@_1CG@HAGDFHCJ@?$AAD?$AA3?$AAD?$AAE?$AAR?$AAR?$AA_?$AAI?$AAN?$AAV?$AAA?$AAL?$AAI?$AAD?$AAC?$AAA?$AAL?$AAL?$AA?$AA@ 10054d3c     dxerr8:dxerr8.obj
 0002:00005d64       ??_C@_1DC@NGLHOKDC@?$AAD?$AA3?$AAD?$AAE?$AAR?$AAR?$AA_?$AAD?$AAR?$AAI?$AAV?$AAE?$AAR?$AAI?$AAN?$AAV?$AAA?$AAL?$AAI?$AAD@ 10054d64     dxerr8:dxerr8.obj
 0002:00005d98       ??_C@_1EA@BJKKILJC@?$AAD?$AA3?$AAD?$AAX?$AAE?$AAR?$AAR?$AA_?$AAC?$AAA?$AAN?$AAN?$AAO?$AAT?$AAM?$AAO?$AAD?$AAI?$AAF?$AAY@ 10054d98     dxerr8:dxerr8.obj
 0002:00005dd8       ??_C@_1CK@JBLNMPOO@?$AAD?$AA3?$AAD?$AAE?$AAR?$AAR?$AA_?$AAI?$AAN?$AAV?$AAA?$AAL?$AAI?$AAD?$AAD?$AAE?$AAV?$AAI?$AAC?$AAE@ 10054dd8     dxerr8:dxerr8.obj
 0002:00005e04       ??_C@_1CA@HAHGONIE@?$AAD?$AA3?$AAD?$AAE?$AAR?$AAR?$AA_?$AAM?$AAO?$AAR?$AAE?$AAD?$AAA?$AAT?$AAA?$AA?$AA@ 10054e04     dxerr8:dxerr8.obj
 0002:00005e24       ??_C@_1CE@DGNIILNO@?$AAD?$AA3?$AAD?$AAE?$AAR?$AAR?$AA_?$AAD?$AAE?$AAV?$AAI?$AAC?$AAE?$AAL?$AAO?$AAS?$AAT?$AA?$AA@ 10054e24     dxerr8:dxerr8.obj
 0002:00005e48       ??_C@_1CM@HOGOFGAK@?$AAD?$AA3?$AAD?$AAE?$AAR?$AAR?$AA_?$AAD?$AAE?$AAV?$AAI?$AAC?$AAE?$AAN?$AAO?$AAT?$AAR?$AAE?$AAS?$AAE@ 10054e48     dxerr8:dxerr8.obj
 0002:00005e74       ??_C@_1CI@PFOEKPJB@?$AAD?$AA3?$AAD?$AAE?$AAR?$AAR?$AA_?$AAN?$AAO?$AAT?$AAA?$AAV?$AAA?$AAI?$AAL?$AAA?$AAB?$AAL?$AAE?$AA?$AA@ 10054e74     dxerr8:dxerr8.obj
 0002:00005e9c       ??_C@_1CA@IACOLMEJ@?$AAD?$AA3?$AAD?$AAE?$AAR?$AAR?$AA_?$AAN?$AAO?$AAT?$AAF?$AAO?$AAU?$AAN?$AAD?$AA?$AA@ 10054e9c     dxerr8:dxerr8.obj
 0002:00005ebc       ??_C@_1DG@EHHOCAKG@?$AAD?$AA3?$AAD?$AAE?$AAR?$AAR?$AA_?$AAD?$AAR?$AAI?$AAV?$AAE?$AAR?$AAI?$AAN?$AAT?$AAE?$AAR?$AAN?$AAA@ 10054ebc     dxerr8:dxerr8.obj
 0002:00005ef8       ??_C@_1EC@MGAJIFPP@?$AAD?$AA3?$AAD?$AAE?$AAR?$AAR?$AA_?$AAC?$AAO?$AAN?$AAF?$AAL?$AAI?$AAC?$AAT?$AAI?$AAN?$AAG?$AAT?$AAE@ 10054ef8     dxerr8:dxerr8.obj
 0002:00005f40       ??_C@_1EA@GPKJFDKO@?$AAD?$AA3?$AAD?$AAE?$AAR?$AAR?$AA_?$AAU?$AAN?$AAS?$AAU?$AAP?$AAP?$AAO?$AAR?$AAT?$AAE?$AAD?$AAT?$AAE@ 10054f40     dxerr8:dxerr8.obj
 0002:00005f80       ??_C@_1DM@JIAEPAOO@?$AAD?$AA3?$AAD?$AAE?$AAR?$AAR?$AA_?$AAC?$AAO?$AAN?$AAF?$AAL?$AAI?$AAC?$AAT?$AAI?$AAN?$AAG?$AAR?$AAE@ 10054f80     dxerr8:dxerr8.obj
 0002:00005fbc       ??_C@_1DM@FKHHENMH@?$AAD?$AA3?$AAD?$AAE?$AAR?$AAR?$AA_?$AAU?$AAN?$AAS?$AAU?$AAP?$AAP?$AAO?$AAR?$AAT?$AAE?$AAD?$AAF?$AAA@ 10054fbc     dxerr8:dxerr8.obj
 0002:00005ff8       ??_C@_1EA@BEJICMPE@?$AAD?$AA3?$AAD?$AAE?$AAR?$AAR?$AA_?$AAC?$AAO?$AAN?$AAF?$AAL?$AAI?$AAC?$AAT?$AAI?$AAN?$AAG?$AAT?$AAE@ 10054ff8     dxerr8:dxerr8.obj
 0002:00006038       ??_C@_1DC@JENCABHA@?$AAD?$AA3?$AAD?$AAE?$AAR?$AAR?$AA_?$AAT?$AAO?$AAO?$AAM?$AAA?$AAN?$AAY?$AAO?$AAP?$AAE?$AAR?$AAA?$AAT@ 10055038     dxerr8:dxerr8.obj
 0002:0000606c       ??_C@_1DG@NCMIFFGE@?$AAD?$AA3?$AAD?$AAE?$AAR?$AAR?$AA_?$AAU?$AAN?$AAS?$AAU?$AAP?$AAP?$AAO?$AAR?$AAT?$AAE?$AAD?$AAA?$AAL@ 1005506c     dxerr8:dxerr8.obj
 0002:000060a8       ??_C@_1EC@IGODJIJA@?$AAD?$AA3?$AAD?$AAE?$AAR?$AAR?$AA_?$AAU?$AAN?$AAS?$AAU?$AAP?$AAP?$AAO?$AAR?$AAT?$AAE?$AAD?$AAA?$AAL@ 100550a8     dxerr8:dxerr8.obj
 0002:000060ec       ??_C@_1DG@KJCPEDA@?$AAD?$AA3?$AAD?$AAE?$AAR?$AAR?$AA_?$AAU?$AAN?$AAS?$AAU?$AAP?$AAP?$AAO?$AAR?$AAT?$AAE?$AAD?$AAC?$AAO@ 100550ec     dxerr8:dxerr8.obj
 0002:00006128       ??_C@_1EC@IIIEGJML@?$AAD?$AA3?$AAD?$AAE?$AAR?$AAR?$AA_?$AAU?$AAN?$AAS?$AAU?$AAP?$AAP?$AAO?$AAR?$AAT?$AAE?$AAD?$AAC?$AAO@ 10055128     dxerr8:dxerr8.obj
 0002:0000616c       ??_C@_1DE@LBFCLECF@?$AAD?$AA3?$AAD?$AAE?$AAR?$AAR?$AA_?$AAW?$AAR?$AAO?$AAN?$AAG?$AAT?$AAE?$AAX?$AAT?$AAU?$AAR?$AAE?$AAF@ 1005516c     dxerr8:dxerr8.obj
 0002:000061a0       ??_C@_1CK@MEGFCODJ@?$AAD?$AAX?$AAF?$AAI?$AAL?$AAE?$AAE?$AAR?$AAR?$AA_?$AAN?$AAO?$AAI?$AAN?$AAT?$AAE?$AAR?$AAN?$AAE?$AAT@ 100551a0     dxerr8:dxerr8.obj
 0002:000061cc       ??_C@_1CO@OGGDKMGI@?$AAD?$AAX?$AAF?$AAI?$AAL?$AAE?$AAE?$AAR?$AAR?$AA_?$AAB?$AAA?$AAD?$AAC?$AAA?$AAC?$AAH?$AAE?$AAF?$AAI@ 100551cc     dxerr8:dxerr8.obj
 0002:000061fc       ??_C@_1CK@MFLKLGII@?$AAD?$AAX?$AAF?$AAI?$AAL?$AAE?$AAE?$AAR?$AAR?$AA_?$AAN?$AAO?$AAM?$AAO?$AAR?$AAE?$AAD?$AAA?$AAT?$AAA@ 100551fc     dxerr8:dxerr8.obj
 0002:00006228       ??_C@_1DM@MJLCEEJC@?$AAD?$AAX?$AAF?$AAI?$AAL?$AAE?$AAE?$AAR?$AAR?$AA_?$AAN?$AAO?$AAM?$AAO?$AAR?$AAE?$AAS?$AAT?$AAR?$AAE@ 10055228     dxerr8:dxerr8.obj
 0002:00006264       ??_C@_1DA@BPKFBOKH@?$AAD?$AAX?$AAF?$AAI?$AAL?$AAE?$AAE?$AAR?$AAR?$AA_?$AAB?$AAA?$AAD?$AAI?$AAN?$AAT?$AAR?$AAI?$AAN?$AAS@ 10055264     dxerr8:dxerr8.obj
 0002:00006294       ??_C@_1DA@KLACCOAJ@?$AAD?$AAX?$AAF?$AAI?$AAL?$AAE?$AAE?$AAR?$AAR?$AA_?$AAN?$AAO?$AAM?$AAO?$AAR?$AAE?$AAO?$AAB?$AAJ?$AAE@ 10055294     dxerr8:dxerr8.obj
 0002:000062c4       ??_C@_1DA@DDNCMDME@?$AAD?$AAX?$AAF?$AAI?$AAL?$AAE?$AAE?$AAR?$AAR?$AA_?$AAI?$AAN?$AAT?$AAE?$AAR?$AAN?$AAA?$AAL?$AAE?$AAR@ 100552c4     dxerr8:dxerr8.obj
 0002:000062f4       ??_C@_1DG@JMFKDEGN@?$AAD?$AAX?$AAF?$AAI?$AAL?$AAE?$AAE?$AAR?$AAR?$AA_?$AAB?$AAA?$AAD?$AAD?$AAA?$AAT?$AAA?$AAR?$AAE?$AAF@ 100552f4     dxerr8:dxerr8.obj
 0002:0000632c       ??_C@_1CO@BDILAAIG@?$AAD?$AAX?$AAF?$AAI?$AAL?$AAE?$AAE?$AAR?$AAR?$AA_?$AAB?$AAA?$AAD?$AAA?$AAR?$AAR?$AAA?$AAY?$AAS?$AAI@ 1005532c     dxerr8:dxerr8.obj
 0002:0000635c       ??_C@_1CK@NPIBINIE@?$AAD?$AAX?$AAF?$AAI?$AAL?$AAE?$AAE?$AAR?$AAR?$AA_?$AAN?$AAO?$AAT?$AAE?$AAM?$AAP?$AAL?$AAA?$AAT?$AAE@ 1005535c     dxerr8:dxerr8.obj
 0002:00006388       ??_C@_1CK@NHJIIFOK@?$AAD?$AAX?$AAF?$AAI?$AAL?$AAE?$AAE?$AAR?$AAR?$AA_?$AAP?$AAA?$AAR?$AAS?$AAE?$AAE?$AAR?$AAR?$AAO?$AAR@ 10055388     dxerr8:dxerr8.obj
 0002:000063b4       ??_C@_1CE@FEMGBKDA@?$AAD?$AAX?$AAF?$AAI?$AAL?$AAE?$AAE?$AAR?$AAR?$AA_?$AAB?$AAA?$AAD?$AAF?$AAI?$AAL?$AAE?$AA?$AA@ 100553b4     dxerr8:dxerr8.obj
 0002:000063d8       ??_C@_1EC@BCINOBBK@?$AAD?$AAX?$AAF?$AAI?$AAL?$AAE?$AAE?$AAR?$AAR?$AA_?$AAB?$AAA?$AAD?$AAF?$AAI?$AAL?$AAE?$AAC?$AAO?$AAM@ 100553d8     dxerr8:dxerr8.obj
 0002:0000641c       ??_C@_1DG@ECLBOEDJ@?$AAD?$AAX?$AAF?$AAI?$AAL?$AAE?$AAE?$AAR?$AAR?$AA_?$AAB?$AAA?$AAD?$AAF?$AAI?$AAL?$AAE?$AAF?$AAL?$AAO@ 1005541c     dxerr8:dxerr8.obj
 0002:00006454       ??_C@_1DC@DNNGNIKL@?$AAD?$AAX?$AAF?$AAI?$AAL?$AAE?$AAE?$AAR?$AAR?$AA_?$AAB?$AAA?$AAD?$AAF?$AAI?$AAL?$AAE?$AAV?$AAE?$AAR@ 10055454     dxerr8:dxerr8.obj
 0002:00006488       ??_C@_1CM@BGJDGKHI@?$AAD?$AAX?$AAF?$AAI?$AAL?$AAE?$AAE?$AAR?$AAR?$AA_?$AAB?$AAA?$AAD?$AAF?$AAI?$AAL?$AAE?$AAT?$AAY?$AAP@ 10055488     dxerr8:dxerr8.obj
 0002:000064b4       ??_C@_1CM@HJEBFFAI@?$AAD?$AAX?$AAF?$AAI?$AAL?$AAE?$AAE?$AAR?$AAR?$AA_?$AAB?$AAA?$AAD?$AAR?$AAE?$AAS?$AAO?$AAU?$AAR?$AAC@ 100554b4     dxerr8:dxerr8.obj
 0002:000064e0       ??_C@_1CM@DKIAEPBN@?$AAD?$AAX?$AAF?$AAI?$AAL?$AAE?$AAE?$AAR?$AAR?$AA_?$AAU?$AAR?$AAL?$AAN?$AAO?$AAT?$AAF?$AAO?$AAU?$AAN@ 100554e0     dxerr8:dxerr8.obj
 0002:0000650c       ??_C@_1DG@PLCOKJPH@?$AAD?$AAX?$AAF?$AAI?$AAL?$AAE?$AAE?$AAR?$AAR?$AA_?$AAR?$AAE?$AAS?$AAO?$AAU?$AAR?$AAC?$AAE?$AAN?$AAO@ 1005550c     dxerr8:dxerr8.obj
 0002:00006544       ??_C@_1CO@GLGLHMAM@?$AAD?$AAX?$AAF?$AAI?$AAL?$AAE?$AAE?$AAR?$AAR?$AA_?$AAF?$AAI?$AAL?$AAE?$AAN?$AAO?$AAT?$AAF?$AAO?$AAU@ 10055544     dxerr8:dxerr8.obj
 0002:00006574       ??_C@_1CK@GMKAGMK@?$AAD?$AAX?$AAF?$AAI?$AAL?$AAE?$AAE?$AAR?$AAR?$AA_?$AAN?$AAO?$AAT?$AAD?$AAO?$AAN?$AAE?$AAY?$AAE?$AAT@ 10055574     dxerr8:dxerr8.obj
 0002:000065a0       ??_C@_1CG@GILGENGM@?$AAD?$AAX?$AAF?$AAI?$AAL?$AAE?$AAE?$AAR?$AAR?$AA_?$AAN?$AAO?$AAT?$AAF?$AAO?$AAU?$AAN?$AAD?$AA?$AA@ 100555a0     dxerr8:dxerr8.obj
 0002:000065c8       ??_C@_1CG@JIKPGNDB@?$AAD?$AAX?$AAF?$AAI?$AAL?$AAE?$AAE?$AAR?$AAR?$AA_?$AAB?$AAA?$AAD?$AAA?$AAL?$AAL?$AAO?$AAC?$AA?$AA@ 100555c8     dxerr8:dxerr8.obj
 0002:000065f0       ??_C@_1DE@DDKMLFJF@?$AAD?$AAX?$AAF?$AAI?$AAL?$AAE?$AAE?$AAR?$AAR?$AA_?$AAB?$AAA?$AAD?$AAS?$AAT?$AAR?$AAE?$AAA?$AAM?$AAH@ 100555f0     dxerr8:dxerr8.obj
 0002:00006624       ??_C@_1CE@HPDCLICO@?$AAD?$AAX?$AAF?$AAI?$AAL?$AAE?$AAE?$AAR?$AAR?$AA_?$AAB?$AAA?$AAD?$AAT?$AAY?$AAP?$AAE?$AA?$AA@ 10055624     dxerr8:dxerr8.obj
 0002:00006648       ??_C@_1CG@JCPHJMND@?$AAD?$AAX?$AAF?$AAI?$AAL?$AAE?$AAE?$AAR?$AAR?$AA_?$AAB?$AAA?$AAD?$AAV?$AAA?$AAL?$AAU?$AAE?$AA?$AA@ 10055648     dxerr8:dxerr8.obj
 0002:00006670       ??_C@_1CI@PEFPABM@?$AAD?$AAX?$AAF?$AAI?$AAL?$AAE?$AAE?$AAR?$AAR?$AA_?$AAB?$AAA?$AAD?$AAO?$AAB?$AAJ?$AAE?$AAC?$AAT?$AA?$AA@ 10055670     dxerr8:dxerr8.obj
 0002:00006698       ??_C@_1DK@OLFAFEHK@?$AAD?$AAD?$AAE?$AAR?$AAR?$AA_?$AAD?$AAE?$AAV?$AAI?$AAC?$AAE?$AAD?$AAO?$AAE?$AAS?$AAN?$AAT?$AAO?$AAW@ 10055698     dxerr8:dxerr8.obj
 0002:000066d4       ??_C@_1CM@DMMFLBEP@?$AAD?$AAD?$AAE?$AAR?$AAR?$AA_?$AAN?$AAO?$AAD?$AAR?$AAI?$AAV?$AAE?$AAR?$AAS?$AAU?$AAP?$AAP?$AAO?$AAR@ 100556d4     dxerr8:dxerr8.obj
 0002:00006700       ??_C@_1DG@MKFNGNPJ@?$AAD?$AAD?$AAE?$AAR?$AAR?$AA_?$AAN?$AAO?$AAM?$AAO?$AAN?$AAI?$AAT?$AAO?$AAR?$AAI?$AAN?$AAF?$AAO?$AAR@ 10055700     dxerr8:dxerr8.obj
 0002:00006738       ??_C@_1CK@CNMMOHMD@?$AAD?$AAD?$AAE?$AAR?$AAR?$AA_?$AAV?$AAI?$AAD?$AAE?$AAO?$AAN?$AAO?$AAT?$AAA?$AAC?$AAT?$AAI?$AAV?$AAE@ 10055738     dxerr8:dxerr8.obj
 0002:00006764       ??_C@_1DA@LKHJBCKP@?$AAD?$AAD?$AAE?$AAR?$AAR?$AA_?$AAD?$AA3?$AAD?$AAN?$AAO?$AAT?$AAI?$AAN?$AAI?$AAT?$AAI?$AAA?$AAL?$AAI@ 10055764     dxerr8:dxerr8.obj
 0002:00006794       ??_C@_1BM@CECBAINB@?$AAD?$AAD?$AAE?$AAR?$AAR?$AA_?$AAN?$AAE?$AAW?$AAM?$AAO?$AAD?$AAE?$AA?$AA@ 10055794     dxerr8:dxerr8.obj
 0002:000067b0       ??_C@_1CG@FLMMINMM@?$AAD?$AAD?$AAE?$AAR?$AAR?$AA_?$AAT?$AAE?$AAS?$AAT?$AAF?$AAI?$AAN?$AAI?$AAS?$AAH?$AAE?$AAD?$AA?$AA@ 100557b0     dxerr8:dxerr8.obj
 0002:000067d8       ??_C@_1BM@EGJPLGJE@?$AAD?$AAD?$AAE?$AAR?$AAR?$AA_?$AAE?$AAX?$AAP?$AAI?$AAR?$AAE?$AAD?$AA?$AA@ 100557d8     dxerr8:dxerr8.obj
 0002:000067f4       ??_C@_1BO@FBEADMGF@?$AAD?$AAD?$AAE?$AAR?$AAR?$AA_?$AAM?$AAO?$AAR?$AAE?$AAD?$AAA?$AAT?$AAA?$AA?$AA@ 100557f4     dxerr8:dxerr8.obj
 0002:00006814       ??_C@_1CI@NBEEJJAI@?$AAD?$AAD?$AAE?$AAR?$AAR?$AA_?$AAN?$AAO?$AAT?$AAP?$AAA?$AAG?$AAE?$AAL?$AAO?$AAC?$AAK?$AAE?$AAD?$AA?$AA@ 10055814     dxerr8:dxerr8.obj
 0002:0000683c       ??_C@_1CK@NFMOJNPC@?$AAD?$AAD?$AAE?$AAR?$AAR?$AA_?$AAC?$AAA?$AAN?$AAT?$AAP?$AAA?$AAG?$AAE?$AAU?$AAN?$AAL?$AAO?$AAC?$AAK@ 1005583c     dxerr8:dxerr8.obj
 0002:00006868       ??_C@_1CG@LBKMEFGI@?$AAD?$AAD?$AAE?$AAR?$AAR?$AA_?$AAC?$AAA?$AAN?$AAT?$AAP?$AAA?$AAG?$AAE?$AAL?$AAO?$AAC?$AAK?$AA?$AA@ 10055868     dxerr8:dxerr8.obj
 0002:00006890       ??_C@_1CO@KBFJJNLC@?$AAD?$AAD?$AAE?$AAR?$AAR?$AA_?$AAN?$AAO?$AAN?$AAO?$AAN?$AAL?$AAO?$AAC?$AAA?$AAL?$AAV?$AAI?$AAD?$AAM@ 10055890     dxerr8:dxerr8.obj
 0002:000068c0       ??_C@_1CO@PFHALEKF@?$AAD?$AAD?$AAE?$AAR?$AAR?$AA_?$AAD?$AAC?$AAA?$AAL?$AAR?$AAE?$AAA?$AAD?$AAY?$AAC?$AAR?$AAE?$AAA?$AAT@ 100558c0     dxerr8:dxerr8.obj
 0002:000068f0       ??_C@_1DE@GNPMJBJL@?$AAD?$AAD?$AAE?$AAR?$AAR?$AA_?$AAN?$AAO?$AAT?$AAO?$AAN?$AAM?$AAI?$AAP?$AAM?$AAA?$AAP?$AAS?$AAU?$AAB@ 100558f0     dxerr8:dxerr8.obj
 0002:00006924       ??_C@_1CI@FPCIIODM@?$AAD?$AAD?$AAE?$AAR?$AAR?$AA_?$AAN?$AAO?$AAF?$AAO?$AAC?$AAU?$AAS?$AAW?$AAI?$AAN?$AAD?$AAO?$AAW?$AA?$AA@ 10055924     dxerr8:dxerr8.obj
 0002:0000694c       ??_C@_1CA@OHEFHBBC@?$AAD?$AAD?$AAE?$AAR?$AAR?$AA_?$AAN?$AAO?$AAT?$AAL?$AAO?$AAA?$AAD?$AAE?$AAD?$AA?$AA@ 1005594c     dxerr8:dxerr8.obj
 0002:0000696c       ??_C@_1CG@HGAHJDDK@?$AAD?$AAD?$AAE?$AAR?$AAR?$AA_?$AAN?$AAO?$AAO?$AAP?$AAT?$AAI?$AAM?$AAI?$AAZ?$AAE?$AAH?$AAW?$AA?$AA@ 1005596c     dxerr8:dxerr8.obj
 0002:00006994       ??_C@_1DC@HOMIGHME@?$AAD?$AAD?$AAE?$AAR?$AAR?$AA_?$AAI?$AAN?$AAV?$AAA?$AAL?$AAI?$AAD?$AAS?$AAU?$AAR?$AAF?$AAA?$AAC?$AAE@ 10055994     dxerr8:dxerr8.obj
 0002:000069c8       ??_C@_1CC@DFEJIJKP@?$AAD?$AAD?$AAE?$AAR?$AAR?$AA_?$AAN?$AAO?$AAM?$AAI?$AAP?$AAM?$AAA?$AAP?$AAH?$AAW?$AA?$AA@ 100559c8     dxerr8:dxerr8.obj
 0002:000069ec       ??_C@_1CM@ICOKEMEE@?$AAD?$AAD?$AAE?$AAR?$AAR?$AA_?$AAU?$AAN?$AAS?$AAU?$AAP?$AAP?$AAO?$AAR?$AAT?$AAE?$AAD?$AAM?$AAO?$AAD@ 100559ec     dxerr8:dxerr8.obj
 0002:00006a18       ??_C@_1CI@KDMBCALC@?$AAD?$AAD?$AAE?$AAR?$AAR?$AA_?$AAN?$AAO?$AAT?$AAP?$AAA?$AAL?$AAE?$AAT?$AAT?$AAI?$AAZ?$AAE?$AAD?$AA?$AA@ 10055a18     dxerr8:dxerr8.obj
 0002:00006a40       ??_C@_1DA@ELPLOHJF@?$AAD?$AAD?$AAE?$AAR?$AAR?$AA_?$AAI?$AAM?$AAP?$AAL?$AAI?$AAC?$AAI?$AAT?$AAL?$AAY?$AAC?$AAR?$AAE?$AAA@ 10055a40     dxerr8:dxerr8.obj
 0002:00006a70       ??_C@_1CA@ENBPELFI@?$AAD?$AAD?$AAE?$AAR?$AAR?$AA_?$AAW?$AAR?$AAO?$AAN?$AAG?$AAM?$AAO?$AAD?$AAE?$AA?$AA@ 10055a70     dxerr8:dxerr8.obj
 0002:00006a90       ??_C@_1BG@EOIONLKB@?$AAD?$AAD?$AAE?$AAR?$AAR?$AA_?$AAN?$AAO?$AAD?$AAC?$AA?$AA@ 10055a90     dxerr8:dxerr8.obj
 0002:00006aa8       ??_C@_1CG@CFAGHECP@?$AAD?$AAD?$AAE?$AAR?$AAR?$AA_?$AAC?$AAA?$AAN?$AAT?$AAC?$AAR?$AAE?$AAA?$AAT?$AAE?$AAD?$AAC?$AA?$AA@ 10055aa8     dxerr8:dxerr8.obj
 0002:00006ad0       ??_C@_1CA@DKJALDID@?$AAD?$AAD?$AAE?$AAR?$AAR?$AA_?$AAN?$AAO?$AAT?$AAL?$AAO?$AAC?$AAK?$AAE?$AAD?$AA?$AA@ 10055ad0     dxerr8:dxerr8.obj
 0002:00006af0       ??_C@_1CI@LMKJPHH@?$AAD?$AAD?$AAE?$AAR?$AAR?$AA_?$AAC?$AAA?$AAN?$AAT?$AAD?$AAU?$AAP?$AAL?$AAI?$AAC?$AAA?$AAT?$AAE?$AA?$AA@ 10055af0     dxerr8:dxerr8.obj
 0002:00006b18       ??_C@_1CG@PGCPKDIB@?$AAD?$AAD?$AAE?$AAR?$AAR?$AA_?$AAN?$AAO?$AAT?$AAF?$AAL?$AAI?$AAP?$AAP?$AAA?$AAB?$AAL?$AAE?$AA?$AA@ 10055b18     dxerr8:dxerr8.obj
 0002:00006b40       ??_C@_1DM@CMAEBMAL@?$AAD?$AAD?$AAE?$AAR?$AAR?$AA_?$AAE?$AAX?$AAC?$AAL?$AAU?$AAS?$AAI?$AAV?$AAE?$AAM?$AAO?$AAD?$AAE?$AAA@ 10055b40     dxerr8:dxerr8.obj
 0002:00006b7c       ??_C@_1DC@JKJLLFOG@?$AAD?$AAD?$AAE?$AAR?$AAR?$AA_?$AAN?$AAO?$AAT?$AAA?$AAO?$AAV?$AAE?$AAR?$AAL?$AAA?$AAY?$AAS?$AAU?$AAR@ 10055b7c     dxerr8:dxerr8.obj
 0002:00006bb0       ??_C@_1CM@GCOCFKMK@?$AAD?$AAD?$AAE?$AAR?$AAR?$AA_?$AAI?$AAN?$AAV?$AAA?$AAL?$AAI?$AAD?$AAP?$AAO?$AAS?$AAI?$AAT?$AAI?$AAO@ 10055bb0     dxerr8:dxerr8.obj
 0002:00006bdc       ??_C@_1CI@CJBNHGEO@?$AAD?$AAD?$AAE?$AAR?$AAR?$AA_?$AAN?$AAO?$AAO?$AAV?$AAE?$AAR?$AAL?$AAA?$AAY?$AAD?$AAE?$AAS?$AAT?$AA?$AA@ 10055bdc     dxerr8:dxerr8.obj
 0002:00006c04       ??_C@_1DA@GHNJEAA@?$AAD?$AAD?$AAE?$AAR?$AAR?$AA_?$AAO?$AAV?$AAE?$AAR?$AAL?$AAA?$AAY?$AAN?$AAO?$AAT?$AAV?$AAI?$AAS?$AAI@ 10055c04     dxerr8:dxerr8.obj
 0002:00006c34       ??_C@_1CC@IPLGGEBM@?$AAD?$AAD?$AAE?$AAR?$AAR?$AA_?$AAN?$AAO?$AAD?$AAD?$AAR?$AAO?$AAP?$AAS?$AAH?$AAW?$AA?$AA@ 10055c34     dxerr8:dxerr8.obj
 0002:00006c58       ??_C@_1BM@CBGMFBIK@?$AAD?$AAD?$AAE?$AAR?$AAR?$AA_?$AAN?$AAO?$AAB?$AAL?$AAT?$AAH?$AAW?$AA?$AA@ 10055c58     dxerr8:dxerr8.obj
 0002:00006c74       ??_C@_1CM@EDNJGILP@?$AAD?$AAD?$AAE?$AAR?$AAR?$AA_?$AAB?$AAL?$AAT?$AAF?$AAA?$AAS?$AAT?$AAC?$AAA?$AAN?$AAT?$AAC?$AAL?$AAI@ 10055c74     dxerr8:dxerr8.obj
 0002:00006ca0       ??_C@_1CE@CMGOPGBN@?$AAD?$AAD?$AAE?$AAR?$AAR?$AA_?$AAN?$AAO?$AAP?$AAA?$AAL?$AAE?$AAT?$AAT?$AAE?$AAH?$AAW?$AA?$AA@ 10055ca0     dxerr8:dxerr8.obj
 0002:00006cc4       ??_C@_1DA@NIJGCGAB@?$AAD?$AAD?$AAE?$AAR?$AAR?$AA_?$AAN?$AAO?$AAP?$AAA?$AAL?$AAE?$AAT?$AAT?$AAE?$AAA?$AAT?$AAT?$AAA?$AAC@ 10055cc4     dxerr8:dxerr8.obj
 0002:00006cf4       ??_C@_1CK@KLNPICJB@?$AAD?$AAD?$AAE?$AAR?$AAR?$AA_?$AAH?$AAW?$AAN?$AAD?$AAA?$AAL?$AAR?$AAE?$AAA?$AAD?$AAY?$AAS?$AAE?$AAT@ 10055cf4     dxerr8:dxerr8.obj
 0002:00006d20       ??_C@_1CK@CBFCLCGA@?$AAD?$AAD?$AAE?$AAR?$AAR?$AA_?$AAH?$AAW?$AAN?$AAD?$AAS?$AAU?$AAB?$AAC?$AAL?$AAA?$AAS?$AAS?$AAE?$AAD@ 10055d20     dxerr8:dxerr8.obj
 0002:00006d4c       ??_C@_1BK@IDIGAGMK@?$AAD?$AAD?$AAE?$AAR?$AAR?$AA_?$AAN?$AAO?$AAH?$AAW?$AAN?$AAD?$AA?$AA@ 10055d4c     dxerr8:dxerr8.obj
 0002:00006d68       ??_C@_1DA@EPKHOOEO@?$AAD?$AAD?$AAE?$AAR?$AAR?$AA_?$AAN?$AAO?$AAC?$AAL?$AAI?$AAP?$AAP?$AAE?$AAR?$AAA?$AAT?$AAT?$AAA?$AAC@ 10055d68     dxerr8:dxerr8.obj
 0002:00006d98       ??_C@_1DC@LKHGPJGI@?$AAD?$AAD?$AAE?$AAR?$AAR?$AA_?$AAC?$AAL?$AAI?$AAP?$AAP?$AAE?$AAR?$AAI?$AAS?$AAU?$AAS?$AAI?$AAN?$AAG@ 10055d98     dxerr8:dxerr8.obj
 0002:00006dcc       ??_C@_1CK@OBHLGFKP@?$AAD?$AAD?$AAE?$AAR?$AAR?$AA_?$AAR?$AAE?$AAG?$AAI?$AAO?$AAN?$AAT?$AAO?$AAO?$AAS?$AAM?$AAA?$AAL?$AAL@ 10055dcc     dxerr8:dxerr8.obj
 0002:00006df8       ??_C@_1CE@JNNBJMCD@?$AAD?$AAD?$AAE?$AAR?$AAR?$AA_?$AAN?$AAO?$AAE?$AAM?$AAU?$AAL?$AAA?$AAT?$AAI?$AAO?$AAN?$AA?$AA@ 10055df8     dxerr8:dxerr8.obj
 0002:00006e20       ??_C@_1EE@OKGLONDB@?$AAD?$AAD?$AAE?$AAR?$AAR?$AA_?$AAP?$AAR?$AAI?$AAM?$AAA?$AAR?$AAY?$AAS?$AAU?$AAR?$AAF?$AAA?$AAC?$AAE@ 10055e20     dxerr8:dxerr8.obj
 0002:00006e64       ??_C@_1CK@NGDDEKCI@?$AAD?$AAD?$AAE?$AAR?$AAR?$AA_?$AAN?$AAO?$AAD?$AAI?$AAR?$AAE?$AAC?$AAT?$AAD?$AAR?$AAA?$AAW?$AAH?$AAW@ 10055e64     dxerr8:dxerr8.obj
 0002:00006e90       ??_C@_1DO@KFPMCKHG@?$AAD?$AAD?$AAE?$AAR?$AAR?$AA_?$AAD?$AAI?$AAR?$AAE?$AAC?$AAT?$AAD?$AAR?$AAA?$AAW?$AAA?$AAL?$AAR?$AAE@ 10055e90     dxerr8:dxerr8.obj
 0002:00006ed0       ??_C@_1DI@FGHKOMKF@?$AAD?$AAD?$AAE?$AAR?$AAR?$AA_?$AAI?$AAN?$AAV?$AAA?$AAL?$AAI?$AAD?$AAD?$AAI?$AAR?$AAE?$AAC?$AAT?$AAD@ 10055ed0     dxerr8:dxerr8.obj
 0002:00006f08       ??_C@_1BK@NMKPJAMB@?$AAD?$AAD?$AAE?$AAR?$AAR?$AA_?$AAX?$AAA?$AAL?$AAI?$AAG?$AAN?$AA?$AA@ 10055f08     dxerr8:dxerr8.obj
 0002:00006f24       ??_C@_1DK@OAKPKEMI@?$AAD?$AAD?$AAE?$AAR?$AAR?$AA_?$AAD?$AAD?$AAS?$AAC?$AAA?$AAP?$AAS?$AAC?$AAO?$AAM?$AAP?$AAL?$AAE?$AAX@ 10055f24     dxerr8:dxerr8.obj
 0002:00006f60       ??_C@_1CM@HOJCJCDF@?$AAD?$AAD?$AAE?$AAR?$AAR?$AA_?$AAW?$AAA?$AAS?$AAS?$AAT?$AAI?$AAL?$AAL?$AAD?$AAR?$AAA?$AAW?$AAI?$AAN@ 10055f60     dxerr8:dxerr8.obj
 0002:00006f8c       ??_C@_1DM@HFPEKJA@?$AAD?$AAD?$AAE?$AAR?$AAR?$AA_?$AAV?$AAE?$AAR?$AAT?$AAI?$AAC?$AAA?$AAL?$AAB?$AAL?$AAA?$AAN?$AAK?$AAI@ 10055f8c     dxerr8:dxerr8.obj
 0002:00006fc8       ??_C@_1CI@CCHDJPOH@?$AAD?$AAD?$AAE?$AAR?$AAR?$AA_?$AAI?$AAN?$AAV?$AAA?$AAL?$AAI?$AAD?$AAS?$AAT?$AAR?$AAE?$AAA?$AAM?$AA?$AA@ 10055fc8     dxerr8:dxerr8.obj
 0002:00006ff0       ??_C@_1CM@GJGMBLGG@?$AAD?$AAD?$AAE?$AAR?$AAR?$AA_?$AAU?$AAN?$AAS?$AAU?$AAP?$AAP?$AAO?$AAR?$AAT?$AAE?$AAD?$AAM?$AAA?$AAS@ 10055ff0     dxerr8:dxerr8.obj
 0002:0000701c       ??_C@_1CC@ICNAAAEM@?$AAD?$AAD?$AAE?$AAR?$AAR?$AA_?$AAT?$AAO?$AAO?$AAB?$AAI?$AAG?$AAS?$AAI?$AAZ?$AAE?$AA?$AA@ 1005601c     dxerr8:dxerr8.obj
 0002:00007040       ??_C@_1CE@KANBDLFD@?$AAD?$AAD?$AAE?$AAR?$AAR?$AA_?$AAT?$AAO?$AAO?$AAB?$AAI?$AAG?$AAW?$AAI?$AAD?$AAT?$AAH?$AA?$AA@ 10056040     dxerr8:dxerr8.obj
 0002:00007064       ??_C@_1DA@PMNHNCGP@?$AAD?$AAD?$AAE?$AAR?$AAR?$AA_?$AAU?$AAN?$AAS?$AAU?$AAP?$AAP?$AAO?$AAR?$AAT?$AAE?$AAD?$AAF?$AAO?$AAR@ 10056064     dxerr8:dxerr8.obj
 0002:00007094       ??_C@_1CG@FGBEKHPE@?$AAD?$AAD?$AAE?$AAR?$AAR?$AA_?$AAT?$AAO?$AAO?$AAB?$AAI?$AAG?$AAH?$AAE?$AAI?$AAG?$AAH?$AAT?$AA?$AA@ 10056094     dxerr8:dxerr8.obj
 0002:000070bc       ??_C@_1CM@JBLNLHNG@?$AAD?$AAD?$AAE?$AAR?$AAR?$AA_?$AAC?$AAA?$AAN?$AAT?$AAL?$AAO?$AAC?$AAK?$AAS?$AAU?$AAR?$AAF?$AAA?$AAC@ 100560bc     dxerr8:dxerr8.obj
 0002:000070e8       ??_C@_1DA@OMECMPNJ@?$AAD?$AAD?$AAE?$AAR?$AAR?$AA_?$AAS?$AAU?$AAR?$AAF?$AAA?$AAC?$AAE?$AAI?$AAS?$AAO?$AAB?$AAS?$AAC?$AAU@ 100560e8     dxerr8:dxerr8.obj
 0002:00007118       ??_C@_1CE@MEAHLPNB@?$AAD?$AAD?$AAE?$AAR?$AAR?$AA_?$AAS?$AAU?$AAR?$AAF?$AAA?$AAC?$AAE?$AAL?$AAO?$AAS?$AAT?$AA?$AA@ 10056118     dxerr8:dxerr8.obj
 0002:0000713c       ??_C@_1DC@GDMFDDKO@?$AAD?$AAD?$AAE?$AAR?$AAR?$AA_?$AAS?$AAU?$AAR?$AAF?$AAA?$AAC?$AAE?$AAN?$AAO?$AAT?$AAA?$AAT?$AAT?$AAA@ 1005613c     dxerr8:dxerr8.obj
 0002:00007170       ??_C@_1CE@MFNPHKFM@?$AAD?$AAD?$AAE?$AAR?$AAR?$AA_?$AAS?$AAU?$AAR?$AAF?$AAA?$AAC?$AAE?$AAB?$AAU?$AAS?$AAY?$AA?$AA@ 10056170     dxerr8:dxerr8.obj
 0002:00007194       ??_C@_1CE@OECOECDB@?$AAD?$AAD?$AAE?$AAR?$AAR?$AA_?$AAP?$AAA?$AAL?$AAE?$AAT?$AAT?$AAE?$AAB?$AAU?$AAS?$AAY?$AA?$AA@ 10056194     dxerr8:dxerr8.obj
 0002:000071b8       ??_C@_1CK@HDBKDPLJ@?$AAD?$AAD?$AAE?$AAR?$AAR?$AA_?$AAC?$AAO?$AAL?$AAO?$AAR?$AAK?$AAE?$AAY?$AAN?$AAO?$AAT?$AAS?$AAE?$AAT@ 100561b8     dxerr8:dxerr8.obj
 0002:000071e4       ??_C@_1DK@CJIIPNKA@?$AAD?$AAD?$AAE?$AAR?$AAR?$AA_?$AAS?$AAU?$AAR?$AAF?$AAA?$AAC?$AAE?$AAA?$AAL?$AAR?$AAE?$AAA?$AAD?$AAY@ 100561e4     dxerr8:dxerr8.obj
 0002:00007220       ??_C@_1DM@CLIKLIEJ@?$AAD?$AAD?$AAE?$AAR?$AAR?$AA_?$AAS?$AAU?$AAR?$AAF?$AAA?$AAC?$AAE?$AAA?$AAL?$AAR?$AAE?$AAA?$AAD?$AAY@ 10056220     dxerr8:dxerr8.obj
 0002:00007260       ??_C@_1EG@BHNJECLP@?$AAD?$AAD?$AAE?$AAR?$AAR?$AA_?$AAO?$AAV?$AAE?$AAR?$AAL?$AAA?$AAY?$AAC?$AAO?$AAL?$AAO?$AAR?$AAK?$AAE@ 10056260     dxerr8:dxerr8.obj
 0002:000072a8       ??_C@_1CG@PGAJOMAF@?$AAD?$AAD?$AAE?$AAR?$AAR?$AA_?$AAN?$AAO?$AAZ?$AAO?$AAV?$AAE?$AAR?$AAL?$AAA?$AAY?$AAH?$AAW?$AA?$AA@ 100562a8     dxerr8:dxerr8.obj
 0002:000072d0       ??_C@_1CA@INAMOONO@?$AAD?$AAD?$AAE?$AAR?$AAR?$AA_?$AAO?$AAU?$AAT?$AAO?$AAF?$AAC?$AAA?$AAP?$AAS?$AA?$AA@ 100562d0     dxerr8:dxerr8.obj
 0002:000072f0       ??_C@_1DA@DPHMHFEF@?$AAD?$AA3?$AAD?$AAE?$AAR?$AAR?$AA_?$AAO?$AAU?$AAT?$AAO?$AAF?$AAV?$AAI?$AAD?$AAE?$AAO?$AAM?$AAE?$AAM@ 100562f0     dxerr8:dxerr8.obj
 0002:00007320       ??_C@_1CM@IBDCAELJ@?$AAD?$AAD?$AAE?$AAR?$AAR?$AA_?$AAO?$AAV?$AAE?$AAR?$AAL?$AAA?$AAY?$AAC?$AAA?$AAN?$AAT?$AAC?$AAL?$AAI@ 10056320     dxerr8:dxerr8.obj
 0002:0000734c       ??_C@_1CE@IIPBDPFN@?$AAD?$AAD?$AAE?$AAR?$AAR?$AA_?$AAN?$AAO?$AAZ?$AAB?$AAU?$AAF?$AAF?$AAE?$AAR?$AAH?$AAW?$AA?$AA@ 1005634c     dxerr8:dxerr8.obj
 0002:00007370       ??_C@_1CG@BLALCOEJ@?$AAD?$AAD?$AAE?$AAR?$AAR?$AA_?$AAN?$AAO?$AAT?$AA8?$AAB?$AAI?$AAT?$AAC?$AAO?$AAL?$AAO?$AAR?$AA?$AA@ 10056370     dxerr8:dxerr8.obj
 0002:00007398       ??_C@_1CE@DGDLFJGJ@?$AAD?$AAD?$AAE?$AAR?$AAR?$AA_?$AAN?$AAO?$AAT?$AAE?$AAX?$AAT?$AAU?$AAR?$AAE?$AAH?$AAW?$AA?$AA@ 10056398     dxerr8:dxerr8.obj
 0002:000073bc       ??_C@_1CA@LGBKCNMM@?$AAD?$AAD?$AAE?$AAR?$AAR?$AA_?$AAN?$AAO?$AAV?$AAS?$AAY?$AAN?$AAC?$AAH?$AAW?$AA?$AA@ 100563bc     dxerr8:dxerr8.obj
 0002:000073dc       ??_C@_1DA@IJIPJOP@?$AAD?$AAD?$AAE?$AAR?$AAR?$AA_?$AAN?$AAO?$AAT?$AA4?$AAB?$AAI?$AAT?$AAC?$AAO?$AAL?$AAO?$AAR?$AAI?$AAN@ 100563dc     dxerr8:dxerr8.obj
 0002:0000740c       ??_C@_1CG@BNNHMMFM@?$AAD?$AAD?$AAE?$AAR?$AAR?$AA_?$AAN?$AAO?$AAR?$AAA?$AAS?$AAT?$AAE?$AAR?$AAO?$AAP?$AAH?$AAW?$AA?$AA@ 1005640c     dxerr8:dxerr8.obj
 0002:00007434       ??_C@_1CG@JGHJNJCG@?$AAD?$AAD?$AAE?$AAR?$AAR?$AA_?$AAN?$AAO?$AAR?$AAO?$AAT?$AAA?$AAT?$AAI?$AAO?$AAN?$AAH?$AAW?$AA?$AA@ 10056434     dxerr8:dxerr8.obj
 0002:0000745c       ??_C@_1CE@NBEMMBFN@?$AAD?$AAD?$AAE?$AAR?$AAR?$AA_?$AAN?$AAO?$AAS?$AAT?$AAR?$AAE?$AAT?$AAC?$AAH?$AAH?$AAW?$AA?$AA@ 1005645c     dxerr8:dxerr8.obj
 0002:00007480       ??_C@_1CG@MIDNBDKC@?$AAD?$AAD?$AAE?$AAR?$AAR?$AA_?$AAN?$AAO?$AAT?$AA4?$AAB?$AAI?$AAT?$AAC?$AAO?$AAL?$AAO?$AAR?$AA?$AA@ 10056480     dxerr8:dxerr8.obj
 0002:000074a8       ??_C@_1CO@GGKNDHIF@?$AAD?$AAD?$AAE?$AAR?$AAR?$AA_?$AAO?$AAV?$AAE?$AAR?$AAL?$AAA?$AAP?$AAP?$AAI?$AAN?$AAG?$AAR?$AAE?$AAC@ 100564a8     dxerr8:dxerr8.obj
 0002:000074d8       ??_C@_1CC@PGEHAIEB@?$AAD?$AAD?$AAE?$AAR?$AAR?$AA_?$AAN?$AAO?$AAM?$AAI?$AAR?$AAR?$AAO?$AAR?$AAH?$AAW?$AA?$AA@ 100564d8     dxerr8:dxerr8.obj
 0002:000074fc       ??_C@_1BO@KBBIGNKI@?$AAD?$AAD?$AAE?$AAR?$AAR?$AA_?$AAN?$AAO?$AAT?$AAF?$AAO?$AAU?$AAN?$AAD?$AA?$AA@ 100564fc     dxerr8:dxerr8.obj
 0002:0000751c       ??_C@_1CE@EBDJBGNN@?$AAD?$AAD?$AAE?$AAR?$AAR?$AA_?$AAN?$AAO?$AAO?$AAV?$AAE?$AAR?$AAL?$AAA?$AAY?$AAH?$AAW?$AA?$AA@ 1005651c     dxerr8:dxerr8.obj
 0002:00007540       ??_C@_1BI@NDILOIJG@?$AAD?$AAD?$AAE?$AAR?$AAR?$AA_?$AAN?$AAO?$AAG?$AAD?$AAI?$AA?$AA@ 10056540     dxerr8:dxerr8.obj
 0002:00007558       ??_C@_1CG@EEHDIOMK@?$AAD?$AAD?$AAE?$AAR?$AAR?$AA_?$AAN?$AAO?$AAC?$AAO?$AAL?$AAO?$AAR?$AAK?$AAE?$AAY?$AAH?$AAW?$AA?$AA@ 10056558     dxerr8:dxerr8.obj
 0002:00007580       ??_C@_1DE@PJAOEENO@?$AAD?$AAD?$AAE?$AAR?$AAR?$AA_?$AAN?$AAO?$AAD?$AAI?$AAR?$AAE?$AAC?$AAT?$AAD?$AAR?$AAA?$AAW?$AAS?$AAU@ 10056580     dxerr8:dxerr8.obj
 0002:000075b4       ??_C@_1CM@FCGBICJE@?$AAD?$AAD?$AAE?$AAR?$AAR?$AA_?$AAN?$AAO?$AAE?$AAX?$AAC?$AAL?$AAU?$AAS?$AAI?$AAV?$AAE?$AAM?$AAO?$AAD@ 100565b4     dxerr8:dxerr8.obj
 0002:000075e0       ??_C@_1BO@BNPIBIEH@?$AAD?$AAD?$AAE?$AAR?$AAR?$AA_?$AAN?$AAO?$AAF?$AAL?$AAI?$AAP?$AAH?$AAW?$AA?$AA@ 100565e0     dxerr8:dxerr8.obj
 0002:00007600       ??_C@_1CC@GOIALCGH@?$AAD?$AAD?$AAE?$AAR?$AAR?$AA_?$AAN?$AAO?$AAC?$AAO?$AAL?$AAO?$AAR?$AAK?$AAE?$AAY?$AA?$AA@ 10056600     dxerr8:dxerr8.obj
 0002:00007624       ??_C@_1CC@OBMAJFAI@?$AAD?$AAD?$AAE?$AAR?$AAR?$AA_?$AAN?$AAO?$AAC?$AAL?$AAI?$AAP?$AAL?$AAI?$AAS?$AAT?$AA?$AA@ 10056624     dxerr8:dxerr8.obj
 0002:00007648       ??_C@_1CI@OKGCBNBK@?$AAD?$AAD?$AAE?$AAR?$AAR?$AA_?$AAN?$AAO?$AAC?$AAO?$AAL?$AAO?$AAR?$AAC?$AAO?$AAN?$AAV?$AAH?$AAW?$AA?$AA@ 10056648     dxerr8:dxerr8.obj
 0002:00007670       ??_C@_1DI@MOJHELP@?$AAD?$AAD?$AAE?$AAR?$AAR?$AA_?$AAN?$AAO?$AAC?$AAO?$AAO?$AAP?$AAE?$AAR?$AAA?$AAT?$AAI?$AAV?$AAE?$AAL@ 10056670     dxerr8:dxerr8.obj
 0002:000076a8       ??_C@_1CI@FBHGHFCP@?$AAD?$AAD?$AAE?$AAR?$AAR?$AA_?$AAN?$AAO?$AAS?$AAU?$AAR?$AAF?$AAA?$AAC?$AAE?$AAL?$AAE?$AAF?$AAT?$AA?$AA@ 100566a8     dxerr8:dxerr8.obj
 0002:000076d0       ??_C@_1CK@NMOLKDNO@?$AAD?$AAD?$AAE?$AAR?$AAR?$AA_?$AAL?$AAO?$AAC?$AAK?$AAE?$AAD?$AAS?$AAU?$AAR?$AAF?$AAA?$AAC?$AAE?$AAS@ 100566d0     dxerr8:dxerr8.obj
 0002:000076fc       ??_C@_1BG@MFHONOGB@?$AAD?$AAD?$AAE?$AAR?$AAR?$AA_?$AAN?$AAO?$AA3?$AAD?$AA?$AA@ 100566fc     dxerr8:dxerr8.obj
 0002:00007714       ??_C@_1CA@EPHACOBG@?$AAD?$AAD?$AAE?$AAR?$AAR?$AA_?$AAN?$AAO?$AAA?$AAL?$AAP?$AAH?$AAA?$AAH?$AAW?$AA?$AA@ 10056714     dxerr8:dxerr8.obj
 0002:00007734       ??_C@_1CO@PIBFAMFD@?$AAD?$AAD?$AAE?$AAR?$AAR?$AA_?$AAN?$AAO?$AAS?$AAT?$AAE?$AAR?$AAE?$AAO?$AAH?$AAA?$AAR?$AAD?$AAW?$AAA@ 10056734     dxerr8:dxerr8.obj
 0002:00007764       ??_C@_1CE@NNPMGLME@?$AAD?$AAD?$AAE?$AAR?$AAR?$AA_?$AAI?$AAN?$AAV?$AAA?$AAL?$AAI?$AAD?$AAR?$AAE?$AAC?$AAT?$AA?$AA@ 10056764     dxerr8:dxerr8.obj
 0002:00007788       ??_C@_1CM@NFPCOKNP@?$AAD?$AAD?$AAE?$AAR?$AAR?$AA_?$AAI?$AAN?$AAV?$AAA?$AAL?$AAI?$AAD?$AAC?$AAL?$AAI?$AAP?$AAL?$AAI?$AAS@ 10056788     dxerr8:dxerr8.obj
 0002:000077b4       ??_C@_1CE@GPDJKNCL@?$AAD?$AAD?$AAE?$AAR?$AAR?$AA_?$AAI?$AAN?$AAV?$AAA?$AAL?$AAI?$AAD?$AAM?$AAO?$AAD?$AAE?$AA?$AA@ 100567b4     dxerr8:dxerr8.obj
 0002:000077d8       ??_C@_1CI@NJLBACLI@?$AAD?$AAD?$AAE?$AAR?$AAR?$AA_?$AAI?$AAN?$AAV?$AAA?$AAL?$AAI?$AAD?$AAO?$AAB?$AAJ?$AAE?$AAC?$AAT?$AA?$AA@ 100567d8     dxerr8:dxerr8.obj
 0002:00007800       ??_C@_1DC@GFEOCGPG@?$AAD?$AAD?$AAE?$AAR?$AAR?$AA_?$AAI?$AAN?$AAV?$AAA?$AAL?$AAI?$AAD?$AAP?$AAI?$AAX?$AAE?$AAL?$AAF?$AAO@ 10056800     dxerr8:dxerr8.obj
 0002:00007834       ??_C@_1CE@IJEPMHGE@?$AAD?$AAD?$AAE?$AAR?$AAR?$AA_?$AAI?$AAN?$AAV?$AAA?$AAL?$AAI?$AAD?$AAC?$AAA?$AAP?$AAS?$AA?$AA@ 10056834     dxerr8:dxerr8.obj
 0002:00007858       ??_C@_1DA@DEFCBMHK@?$AAD?$AAD?$AAE?$AAR?$AAR?$AA_?$AAC?$AAU?$AAR?$AAR?$AAE?$AAN?$AAT?$AAL?$AAY?$AAN?$AAO?$AAT?$AAA?$AAV@ 10056858     dxerr8:dxerr8.obj
 0002:00007888       ??_C@_1CA@EFBKGLEP@?$AAD?$AAD?$AAE?$AAR?$AAR?$AA_?$AAE?$AAX?$AAC?$AAE?$AAP?$AAT?$AAI?$AAO?$AAN?$AA?$AA@ 10056888     dxerr8:dxerr8.obj
 0002:000078a8       ??_C@_1CE@BJOAMEHL@?$AAD?$AAD?$AAE?$AAR?$AAR?$AA_?$AAH?$AAE?$AAI?$AAG?$AAH?$AAT?$AAA?$AAL?$AAI?$AAG?$AAN?$AA?$AA@ 100568a8     dxerr8:dxerr8.obj
 0002:000078cc       ??_C@_1DE@BHEBNLNH@?$AAD?$AAD?$AAE?$AAR?$AAR?$AA_?$AAI?$AAN?$AAC?$AAO?$AAM?$AAP?$AAA?$AAT?$AAI?$AAB?$AAL?$AAE?$AAP?$AAR@ 100568cc     dxerr8:dxerr8.obj
 0002:00007900       ??_C@_1DE@NLLJFJKL@?$AAD?$AAD?$AAE?$AAR?$AAR?$AA_?$AAC?$AAA?$AAN?$AAN?$AAO?$AAT?$AAD?$AAE?$AAT?$AAA?$AAC?$AAH?$AAS?$AAU@ 10056900     dxerr8:dxerr8.obj
 0002:00007934       ??_C@_1CE@OPKGPINM@?$AAD?$AAP?$AAN?$AAE?$AAR?$AAR?$AA_?$AAU?$AAS?$AAE?$AAR?$AAC?$AAA?$AAN?$AAC?$AAE?$AAL?$AA?$AA@ 10056934     dxerr8:dxerr8.obj
 0002:00007958       ??_C@_1DC@KOOGLCA@?$AAD?$AAD?$AAE?$AAR?$AAR?$AA_?$AAA?$AAL?$AAR?$AAE?$AAA?$AAD?$AAY?$AAI?$AAN?$AAI?$AAT?$AAI?$AAA?$AAL@ 10056958     dxerr8:dxerr8.obj
 0002:0000798c       ??_C@_1DE@JBJEKNCN@?$AAD?$AAD?$AAE?$AAR?$AAR?$AA_?$AAC?$AAA?$AAN?$AAN?$AAO?$AAT?$AAA?$AAT?$AAT?$AAA?$AAC?$AAH?$AAS?$AAU@ 1005698c     dxerr8:dxerr8.obj
 0002:000079c0       ??_C@_1CK@GHLEOGNG@?$AAD?$AAP?$AAN?$AAE?$AAR?$AAR?$AA_?$AAU?$AAN?$AAI?$AAN?$AAI?$AAT?$AAI?$AAA?$AAL?$AAI?$AAZ?$AAE?$AAD@ 100569c0     dxerr8:dxerr8.obj
 0002:000079ec       ??_C@_1CI@NFDCECML@?$AAD?$AAP?$AAN?$AAE?$AAR?$AAR?$AA_?$AAS?$AAE?$AAN?$AAD?$AAT?$AAO?$AAO?$AAL?$AAA?$AAR?$AAG?$AAE?$AA?$AA@ 100569ec     dxerr8:dxerr8.obj
 0002:00007a14       ??_C@_1CG@KBPCPFN@?$AAD?$AAP?$AAN?$AAE?$AAR?$AAR?$AA_?$AAS?$AAE?$AAS?$AAS?$AAI?$AAO?$AAN?$AAF?$AAU?$AAL?$AAL?$AA?$AA@ 10056a14     dxerr8:dxerr8.obj
 0002:00007a3c       ??_C@_1CC@NGICDDHB@?$AAD?$AAP?$AAN?$AAE?$AAR?$AAR?$AA_?$AAT?$AAA?$AAB?$AAL?$AAE?$AAF?$AAU?$AAL?$AAL?$AA?$AA@ 10056a3c     dxerr8:dxerr8.obj
 0002:00007a60       ??_C@_1CA@MPAMJHLC@?$AAD?$AAP?$AAN?$AAE?$AAR?$AAR?$AA_?$AAT?$AAI?$AAM?$AAE?$AAD?$AAO?$AAU?$AAT?$AA?$AA@ 10056a60     dxerr8:dxerr8.obj
 0002:00007a80       ??_C@_1DE@FPOMDAIC@?$AAD?$AAP?$AAN?$AAE?$AAR?$AAR?$AA_?$AAP?$AAL?$AAA?$AAY?$AAE?$AAR?$AAN?$AAO?$AAT?$AAR?$AAE?$AAA?$AAC@ 10056a80     dxerr8:dxerr8.obj
 0002:00007ab4       ??_C@_1BO@KFAKLJGF@?$AAD?$AAP?$AAN?$AAE?$AAR?$AAR?$AA_?$AAN?$AAO?$AAT?$AAH?$AAO?$AAS?$AAT?$AA?$AA@ 10056ab4     dxerr8:dxerr8.obj
 0002:00007ad4       ??_C@_1CA@NAHHNAHB@?$AAD?$AAP?$AAN?$AAE?$AAR?$AAR?$AA_?$AAN?$AAO?$AAT?$AAR?$AAE?$AAA?$AAD?$AAY?$AA?$AA@ 10056ad4     dxerr8:dxerr8.obj
 0002:00007af4       ??_C@_1CK@MONFBNIN@?$AAD?$AAP?$AAN?$AAE?$AAR?$AAR?$AA_?$AAN?$AAO?$AAT?$AAR?$AAE?$AAG?$AAI?$AAS?$AAT?$AAE?$AAR?$AAE?$AAD@ 10056af4     dxerr8:dxerr8.obj
 0002:00007b20       ??_C@_1CE@PJDJAHJN@?$AAD?$AAP?$AAN?$AAE?$AAR?$AAR?$AA_?$AAP?$AAL?$AAA?$AAY?$AAE?$AAR?$AAL?$AAO?$AAS?$AAT?$AA?$AA@ 10056b20     dxerr8:dxerr8.obj
 0002:00007b44       ??_C@_1CE@OBDIAGJO@?$AAD?$AAP?$AAN?$AAE?$AAR?$AAR?$AA_?$AAN?$AAO?$AAT?$AAA?$AAL?$AAL?$AAO?$AAW?$AAE?$AAD?$AA?$AA@ 10056b44     dxerr8:dxerr8.obj
 0002:00007b68       ??_C@_1CI@MFKHJBBO@?$AAD?$AAP?$AAN?$AAE?$AAR?$AAR?$AA_?$AAN?$AAO?$AAC?$AAO?$AAN?$AAN?$AAE?$AAC?$AAT?$AAI?$AAO?$AAN?$AA?$AA@ 10056b68     dxerr8:dxerr8.obj
 0002:00007b90       ??_C@_1CI@BMONHAKJ@?$AAD?$AAP?$AAN?$AAE?$AAR?$AAR?$AA_?$AAN?$AAO?$AAH?$AAO?$AAS?$AAT?$AAP?$AAL?$AAA?$AAY?$AAE?$AAR?$AA?$AA@ 10056b90     dxerr8:dxerr8.obj
 0002:00007bb8       ??_C@_1DO@DLBOFMGM@?$AAD?$AAP?$AAN?$AAE?$AAR?$AAR?$AA_?$AAN?$AAO?$AAM?$AAO?$AAR?$AAE?$AAA?$AAD?$AAD?$AAR?$AAE?$AAS?$AAS@ 10056bb8     dxerr8:dxerr8.obj
 0002:00007bf8       ??_C@_1CE@MIGHCJI@?$AAD?$AAP?$AAN?$AAE?$AAR?$AAR?$AA_?$AAN?$AAO?$AAR?$AAE?$AAS?$AAP?$AAO?$AAN?$AAS?$AAE?$AA?$AA@ 10056bf8     dxerr8:dxerr8.obj
 0002:00007c1c       ??_C@_1BM@PKGEIOKE@?$AAD?$AAP?$AAN?$AAE?$AAR?$AAR?$AA_?$AAN?$AAO?$AAC?$AAA?$AAP?$AAS?$AA?$AA@ 10056c1c     dxerr8:dxerr8.obj
 0002:00007c38       ??_C@_1CK@BAHPDGKC@?$AAD?$AAP?$AAN?$AAE?$AAR?$AAR?$AA_?$AAI?$AAN?$AAV?$AAA?$AAL?$AAI?$AAD?$AAS?$AAT?$AAR?$AAI?$AAN?$AAG@ 10056c38     dxerr8:dxerr8.obj
 0002:00007c64       ??_C@_1CE@BNFDPJEN@?$AAD?$AAP?$AAN?$AAE?$AAR?$AAR?$AA_?$AAI?$AAN?$AAV?$AAA?$AAL?$AAI?$AAD?$AAU?$AAR?$AAL?$AA?$AA@ 10056c64     dxerr8:dxerr8.obj
 0002:00007c88       ??_C@_1CM@HPLOOONK@?$AAD?$AAP?$AAN?$AAE?$AAR?$AAR?$AA_?$AAI?$AAN?$AAV?$AAA?$AAL?$AAI?$AAD?$AAV?$AAE?$AAR?$AAS?$AAI?$AAO@ 10056c88     dxerr8:dxerr8.obj
 0002:00007cb4       ??_C@_1CO@EDGFCIL@?$AAD?$AAP?$AAN?$AAE?$AAR?$AAR?$AA_?$AAI?$AAN?$AAV?$AAA?$AAL?$AAI?$AAD?$AAP?$AAR?$AAI?$AAO?$AAR?$AAI@ 10056cb4     dxerr8:dxerr8.obj
 0002:00007ce4       ??_C@_1DA@IBLPFNMB@?$AAD?$AAP?$AAN?$AAE?$AAR?$AAR?$AA_?$AAI?$AAN?$AAV?$AAA?$AAL?$AAI?$AAD?$AAI?$AAN?$AAT?$AAE?$AAR?$AAF@ 10056ce4     dxerr8:dxerr8.obj
 0002:00007d14       ??_C@_1CK@CCPJOMAD@?$AAD?$AAP?$AAN?$AAE?$AAR?$AAR?$AA_?$AAI?$AAN?$AAV?$AAA?$AAL?$AAI?$AAD?$AAO?$AAB?$AAJ?$AAE?$AAC?$AAT@ 10056d14     dxerr8:dxerr8.obj
 0002:00007d40       ??_C@_1CO@CCCCDAPB@?$AAD?$AAP?$AAN?$AAE?$AAR?$AAR?$AA_?$AAI?$AAN?$AAV?$AAA?$AAL?$AAI?$AAD?$AAP?$AAA?$AAS?$AAS?$AAW?$AAO@ 10056d40     dxerr8:dxerr8.obj
 0002:00007d70       ??_C@_1CK@NLCINENF@?$AAD?$AAP?$AAN?$AAE?$AAR?$AAR?$AA_?$AAI?$AAN?$AAV?$AAA?$AAL?$AAI?$AAD?$AAP?$AAL?$AAA?$AAY?$AAE?$AAR@ 10056d70     dxerr8:dxerr8.obj
 0002:00007d9c       ??_C@_1CO@JINMLNNL@?$AAD?$AAP?$AAN?$AAE?$AAR?$AAR?$AA_?$AAI?$AAN?$AAV?$AAA?$AAL?$AAI?$AAD?$AAI?$AAN?$AAS?$AAT?$AAA?$AAN@ 10056d9c     dxerr8:dxerr8.obj
 0002:00007dcc       ??_C@_1CI@DDPKKLOP@?$AAD?$AAP?$AAN?$AAE?$AAR?$AAR?$AA_?$AAI?$AAN?$AAV?$AAA?$AAL?$AAI?$AAD?$AAF?$AAL?$AAA?$AAG?$AAS?$AA?$AA@ 10056dcc     dxerr8:dxerr8.obj
 0002:00007df4       ??_C@_1CI@NIBJEIJH@?$AAD?$AAP?$AAN?$AAE?$AAR?$AAR?$AA_?$AAI?$AAN?$AAV?$AAA?$AAL?$AAI?$AAD?$AAG?$AAR?$AAO?$AAU?$AAP?$AA?$AA@ 10056df4     dxerr8:dxerr8.obj
 0002:00007e1c       ??_C@_1CK@OMBILGPI@?$AAD?$AAP?$AAN?$AAE?$AAR?$AAR?$AA_?$AAI?$AAN?$AAV?$AAA?$AAL?$AAI?$AAD?$AAH?$AAA?$AAN?$AAD?$AAL?$AAE@ 10056e1c     dxerr8:dxerr8.obj
 0002:00007e48       ??_C@_1DE@MICDHBNO@?$AAD?$AAP?$AAN?$AAE?$AAR?$AAR?$AA_?$AAI?$AAN?$AAV?$AAA?$AAL?$AAI?$AAD?$AAH?$AAO?$AAS?$AAT?$AAA?$AAD@ 10056e48     dxerr8:dxerr8.obj
 0002:00007e7c       ??_C@_1CO@MEGLHDIM@?$AAD?$AAP?$AAN?$AAE?$AAR?$AAR?$AA_?$AAI?$AAN?$AAV?$AAA?$AAL?$AAI?$AAD?$AAE?$AAN?$AAD?$AAP?$AAO?$AAI@ 10056e7c     dxerr8:dxerr8.obj
 0002:00007eac       ??_C@_1DI@CGEHBPJG@?$AAD?$AAP?$AAN?$AAE?$AAR?$AAR?$AA_?$AAI?$AAN?$AAV?$AAA?$AAL?$AAI?$AAD?$AAA?$AAD?$AAD?$AAR?$AAE?$AAS@ 10056eac     dxerr8:dxerr8.obj
 0002:00007ee4       ??_C@_1DE@HKJGKPKN@?$AAD?$AAP?$AAN?$AAE?$AAR?$AAR?$AA_?$AAI?$AAN?$AAV?$AAA?$AAL?$AAI?$AAD?$AAA?$AAP?$AAP?$AAL?$AAI?$AAC@ 10056ee4     dxerr8:dxerr8.obj
 0002:00007f18       ??_C@_1CM@BBIDMGL@?$AAD?$AAP?$AAN?$AAE?$AAR?$AAR?$AA_?$AAI?$AAN?$AAV?$AAA?$AAL?$AAI?$AAD?$AAC?$AAO?$AAM?$AAM?$AAA?$AAN@ 10056f18     dxerr8:dxerr8.obj
 0002:00007f44       ??_C@_1DI@BMAPEENB@?$AAD?$AAP?$AAN?$AAE?$AAR?$AAR?$AA_?$AAI?$AAN?$AAV?$AAA?$AAL?$AAI?$AAD?$AAD?$AAE?$AAV?$AAI?$AAC?$AAE@ 10056f44     dxerr8:dxerr8.obj
 0002:00007f7c       ??_C@_1DC@BDKDPNNH@?$AAD?$AAP?$AAN?$AAE?$AAR?$AAR?$AA_?$AAI?$AAN?$AAC?$AAO?$AAM?$AAP?$AAL?$AAE?$AAT?$AAE?$AAA?$AAD?$AAD@ 10056f7c     dxerr8:dxerr8.obj
 0002:00007fb0       ??_C@_1CC@DFNENMEO@?$AAD?$AAP?$AAN?$AAE?$AAR?$AAR?$AA_?$AAE?$AAX?$AAC?$AAE?$AAP?$AAT?$AAI?$AAO?$AAN?$AA?$AA@ 10056fb0     dxerr8:dxerr8.obj
 0002:00007fd4       ??_C@_1CK@MJDJICIL@?$AAD?$AAP?$AAN?$AAE?$AAR?$AAR?$AA_?$AAG?$AAR?$AAO?$AAU?$AAP?$AAN?$AAO?$AAT?$AAE?$AAM?$AAP?$AAT?$AAY@ 10056fd4     dxerr8:dxerr8.obj
 0002:00008000       ??_C@_1BO@IEBKLINL@?$AAD?$AAP?$AAN?$AAE?$AAR?$AAR?$AA_?$AAH?$AAO?$AAS?$AAT?$AAI?$AAN?$AAG?$AA?$AA@ 10057000     dxerr8:dxerr8.obj
 0002:00008020       ??_C@_1DM@MHLJBLDL@?$AAD?$AAP?$AAN?$AAE?$AAR?$AAR?$AA_?$AAH?$AAO?$AAS?$AAT?$AAR?$AAE?$AAJ?$AAE?$AAC?$AAT?$AAE?$AAD?$AAC@ 10057020     dxerr8:dxerr8.obj
 0002:0000805c       ??_C@_1DK@JPNHGNM@?$AAD?$AAP?$AAN?$AAE?$AAR?$AAR?$AA_?$AAH?$AAO?$AAS?$AAT?$AAT?$AAE?$AAR?$AAM?$AAI?$AAN?$AAA?$AAT?$AAE@ 1005705c     dxerr8:dxerr8.obj
 0002:00008098       ??_C@_1DI@BKKOGINH@?$AAD?$AAP?$AAN?$AAE?$AAR?$AAR?$AA_?$AAE?$AAN?$AAU?$AAM?$AAR?$AAE?$AAS?$AAP?$AAO?$AAN?$AAS?$AAE?$AAT@ 10057098     dxerr8:dxerr8.obj
 0002:000080d0       ??_C@_1CE@OFPAMIPN@?$AAD?$AAP?$AAN?$AAE?$AAR?$AAR?$AA_?$AAC?$AAO?$AAN?$AAV?$AAE?$AAR?$AAS?$AAI?$AAO?$AAN?$AA?$AA@ 100570d0     dxerr8:dxerr8.obj
 0002:000080f4       ??_C@_1CI@NLMLIJBE@?$AAD?$AAP?$AAN?$AAE?$AAR?$AAR?$AA_?$AAD?$AAA?$AAT?$AAA?$AAT?$AAO?$AAO?$AAL?$AAA?$AAR?$AAG?$AAE?$AA?$AA@ 100570f4     dxerr8:dxerr8.obj
 0002:0000811c       ??_C@_1CI@CPKBEHHN@?$AAD?$AAP?$AAN?$AAE?$AAR?$AAR?$AA_?$AAD?$AAO?$AAE?$AAS?$AAN?$AAO?$AAT?$AAE?$AAX?$AAI?$AAS?$AAT?$AA?$AA@ 1005711c     dxerr8:dxerr8.obj
 0002:00008144       ??_C@_1DA@BBFLDGAC@?$AAD?$AAP?$AAN?$AAE?$AAR?$AAR?$AA_?$AAD?$AAU?$AAP?$AAL?$AAI?$AAC?$AAA?$AAT?$AAE?$AAC?$AAO?$AAM?$AAM@ 10057144     dxerr8:dxerr8.obj
 0002:00008174       ??_C@_1DI@CELKGHOG@?$AAD?$AAP?$AAN?$AAE?$AAR?$AAR?$AA_?$AAE?$AAN?$AAD?$AAP?$AAO?$AAI?$AAN?$AAT?$AAN?$AAO?$AAT?$AAR?$AAE@ 10057174     dxerr8:dxerr8.obj
 0002:000081ac       ??_C@_1DC@HMOIGGMO@?$AAD?$AAP?$AAN?$AAE?$AAR?$AAR?$AA_?$AAE?$AAN?$AAU?$AAM?$AAQ?$AAU?$AAE?$AAR?$AAY?$AAT?$AAO?$AAO?$AAL@ 100571ac     dxerr8:dxerr8.obj
 0002:000081e0       ??_C@_1CM@BNJNINIG@?$AAD?$AAP?$AAN?$AAE?$AAR?$AAR?$AA_?$AAC?$AAO?$AAN?$AAN?$AAE?$AAC?$AAT?$AAI?$AAO?$AAN?$AAL?$AAO?$AAS@ 100571e0     dxerr8:dxerr8.obj
 0002:0000820c       ??_C@_1CI@OLHLAJPN@?$AAD?$AAP?$AAN?$AAE?$AAR?$AAR?$AA_?$AAC?$AAA?$AAN?$AAN?$AAO?$AAT?$AAC?$AAA?$AAN?$AAC?$AAE?$AAL?$AA?$AA@ 1005720c     dxerr8:dxerr8.obj
 0002:00008234       ??_C@_1CO@ECIEIOBC@?$AAD?$AAP?$AAN?$AAE?$AAR?$AAR?$AA_?$AAC?$AAA?$AAN?$AAT?$AAC?$AAR?$AAE?$AAA?$AAT?$AAE?$AAG?$AAR?$AAO@ 10057234     dxerr8:dxerr8.obj
 0002:00008264       ??_C@_1DA@OPNLEFMD@?$AAD?$AAP?$AAN?$AAE?$AAR?$AAR?$AA_?$AAC?$AAA?$AAN?$AAT?$AAC?$AAR?$AAE?$AAA?$AAT?$AAE?$AAP?$AAL?$AAA@ 10057264     dxerr8:dxerr8.obj
 0002:00008294       ??_C@_1DK@NDNLAEIP@?$AAD?$AAP?$AAN?$AAE?$AAR?$AAR?$AA_?$AAC?$AAA?$AAN?$AAT?$AAL?$AAA?$AAU?$AAN?$AAC?$AAH?$AAA?$AAP?$AAP@ 10057294     dxerr8:dxerr8.obj
 0002:000082d0       ??_C@_1CE@LDPBEPOJ@?$AAD?$AAP?$AAN?$AAE?$AAR?$AAR?$AA_?$AAC?$AAO?$AAN?$AAN?$AAE?$AAC?$AAT?$AAI?$AAN?$AAG?$AA?$AA@ 100572d0     dxerr8:dxerr8.obj
 0002:000082f4       ??_C@_1CM@GKKABPCJ@?$AAD?$AAP?$AAN?$AAE?$AAR?$AAR?$AA_?$AAB?$AAU?$AAF?$AAF?$AAE?$AAR?$AAT?$AAO?$AAO?$AAS?$AAM?$AAA?$AAL@ 100572f4     dxerr8:dxerr8.obj
 0002:00008320       ??_C@_1CE@BCJHMDEN@?$AAD?$AAP?$AAN?$AAE?$AAR?$AAR?$AA_?$AAA?$AAD?$AAD?$AAR?$AAE?$AAS?$AAS?$AAI?$AAN?$AAG?$AA?$AA@ 10057320     dxerr8:dxerr8.obj
 0002:00008344       ??_C@_1CM@IIGJCKAL@?$AAD?$AAP?$AAN?$AAE?$AAR?$AAR?$AA_?$AAA?$AAL?$AAR?$AAE?$AAA?$AAD?$AAY?$AAC?$AAL?$AAO?$AAS?$AAI?$AAN@ 10057344     dxerr8:dxerr8.obj
 0002:00008370       ??_C@_1DA@GJACDLED@?$AAD?$AAP?$AAN?$AAE?$AAR?$AAR?$AA_?$AAA?$AAL?$AAR?$AAE?$AAA?$AAD?$AAY?$AAC?$AAO?$AAN?$AAN?$AAE?$AAC@ 10057370     dxerr8:dxerr8.obj
 0002:000083a0       ??_C@_1DI@CPMKDBMM@?$AAD?$AAP?$AAN?$AAE?$AAR?$AAR?$AA_?$AAA?$AAL?$AAR?$AAE?$AAA?$AAD?$AAY?$AAD?$AAI?$AAS?$AAC?$AAO?$AAN@ 100573a0     dxerr8:dxerr8.obj
 0002:000083d8       ??_C@_1DE@BCANPGOM@?$AAD?$AAP?$AAN?$AAE?$AAR?$AAR?$AA_?$AAA?$AAL?$AAR?$AAE?$AAA?$AAD?$AAY?$AAI?$AAN?$AAI?$AAT?$AAI?$AAA@ 100573d8     dxerr8:dxerr8.obj
 0002:0000840c       ??_C@_1DC@BKHEPEF@?$AAD?$AAP?$AAN?$AAE?$AAR?$AAR?$AA_?$AAA?$AAL?$AAR?$AAE?$AAA?$AAD?$AAY?$AAR?$AAE?$AAG?$AAI?$AAS?$AAT@ 1005740c     dxerr8:dxerr8.obj
 0002:00008440       ??_C@_1BO@HFFLGNLD@?$AAD?$AAP?$AAN?$AAE?$AAR?$AAR?$AA_?$AAA?$AAB?$AAO?$AAR?$AAT?$AAE?$AAD?$AA?$AA@ 10057440     dxerr8:dxerr8.obj
 0002:00008460       ??_C@_1CG@OLKKKJHN@?$AAD?$AAV?$AAE?$AAR?$AAR?$AA_?$AAL?$AAO?$AAC?$AAK?$AAE?$AAD?$AAB?$AAU?$AAF?$AAF?$AAE?$AAR?$AA?$AA@ 10057460     dxerr8:dxerr8.obj
 0002:00008488       ??_C@_1CI@EJICDNE@?$AAD?$AAV?$AAE?$AAR?$AAR?$AA_?$AAI?$AAN?$AAV?$AAA?$AAL?$AAI?$AAD?$AAB?$AAU?$AAF?$AAF?$AAE?$AAR?$AA?$AA@ 10057488     dxerr8:dxerr8.obj
 0002:000084b0       ??_C@_1DA@JDAOPCNL@?$AAD?$AAV?$AAE?$AAR?$AAR?$AA_?$AAN?$AAO?$AAR?$AAE?$AAC?$AAV?$AAO?$AAL?$AAA?$AAV?$AAA?$AAI?$AAL?$AAA@ 100574b0     dxerr8:dxerr8.obj
 0002:000084e0       ??_C@_1BO@DGAMDIBC@?$AAD?$AAV?$AAE?$AAR?$AAR?$AA_?$AAU?$AAS?$AAE?$AAR?$AAB?$AAA?$AAC?$AAK?$AA?$AA@ 100574e0     dxerr8:dxerr8.obj
 0002:00008500       ??_C@_1DA@KALMMFKL@?$AAD?$AAV?$AAE?$AAR?$AAR?$AA_?$AAT?$AAR?$AAA?$AAN?$AAS?$AAP?$AAO?$AAR?$AAT?$AAN?$AAO?$AAP?$AAL?$AAA@ 10057500     dxerr8:dxerr8.obj
 0002:00008530       ??_C@_1DC@EFEOHALN@?$AAD?$AAV?$AAE?$AAR?$AAR?$AA_?$AAT?$AAR?$AAA?$AAN?$AAS?$AAP?$AAO?$AAR?$AAT?$AAN?$AAO?$AAS?$AAE?$AAS@ 10057530     dxerr8:dxerr8.obj
 0002:00008564       ??_C@_1CO@BOAPDCBP@?$AAD?$AAV?$AAE?$AAR?$AAR?$AA_?$AAT?$AAR?$AAA?$AAN?$AAS?$AAP?$AAO?$AAR?$AAT?$AAN?$AAO?$AAT?$AAI?$AAN@ 10057564     dxerr8:dxerr8.obj
 0002:00008594       ??_C@_1CC@IGCHBEOJ@?$AAD?$AAV?$AAE?$AAR?$AAR?$AA_?$AAN?$AAO?$AAC?$AAA?$AAL?$AAL?$AAB?$AAA?$AAC?$AAK?$AA?$AA@ 10057594     dxerr8:dxerr8.obj
 0002:000085b8       ??_C@_1CE@NACNIFGL@?$AAD?$AAV?$AAE?$AAR?$AAR?$AA_?$AAN?$AAO?$AAT?$AAR?$AAA?$AAN?$AAS?$AAP?$AAO?$AAR?$AAT?$AA?$AA@ 100575b8     dxerr8:dxerr8.obj
 0002:000085dc       ??_C@_1CE@FENHGODE@?$AAD?$AAV?$AAE?$AAR?$AAR?$AA_?$AAI?$AAN?$AAI?$AAT?$AAI?$AAA?$AAL?$AAI?$AAZ?$AAE?$AAD?$AA?$AA@ 100575dc     dxerr8:dxerr8.obj
 0002:00008600       ??_C@_1DE@FPBODOBO@?$AAD?$AAV?$AAE?$AAR?$AAR?$AA_?$AAI?$AAN?$AAC?$AAO?$AAM?$AAP?$AAA?$AAT?$AAI?$AAB?$AAL?$AAE?$AAV?$AAE@ 10057600     dxerr8:dxerr8.obj
 0002:00008634       ??_C@_1BO@NEDODJDO@?$AAD?$AAV?$AAE?$AAR?$AAR?$AA_?$AAR?$AAU?$AAN?$AAS?$AAE?$AAT?$AAU?$AAP?$AA?$AA@ 10057634     dxerr8:dxerr8.obj
 0002:00008654       ??_C@_1CC@IGCEPMIA@?$AAD?$AAV?$AAE?$AAR?$AAR?$AA_?$AAU?$AAS?$AAE?$AAR?$AAC?$AAA?$AAN?$AAC?$AAE?$AAL?$AA?$AA@ 10057654     dxerr8:dxerr8.obj
 0002:00008678       ??_C@_1CA@MCCELIIA@?$AAD?$AAV?$AAE?$AAR?$AAR?$AA_?$AAS?$AAE?$AAN?$AAD?$AAE?$AAR?$AAR?$AAO?$AAR?$AA?$AA@ 10057678     dxerr8:dxerr8.obj
 0002:00008698       ??_C@_1DE@NCIIMMIP@?$AAD?$AAV?$AAE?$AAR?$AAR?$AA_?$AAP?$AAL?$AAA?$AAY?$AAB?$AAA?$AAC?$AAK?$AAS?$AAY?$AAS?$AAT?$AAE?$AAM@ 10057698     dxerr8:dxerr8.obj
 0002:000086cc       ??_C@_1DA@CHJAOCBJ@?$AAD?$AAV?$AAE?$AAR?$AAR?$AA_?$AAR?$AAE?$AAC?$AAO?$AAR?$AAD?$AAS?$AAY?$AAS?$AAT?$AAE?$AAM?$AAE?$AAR@ 100576cc     dxerr8:dxerr8.obj
 0002:000086fc       ??_C@_1CI@BFFLJKOB@?$AAD?$AAV?$AAE?$AAR?$AAR?$AA_?$AAI?$AAN?$AAV?$AAA?$AAL?$AAI?$AAD?$AAD?$AAE?$AAV?$AAI?$AAC?$AAE?$AA?$AA@ 100576fc     dxerr8:dxerr8.obj
 0002:00008724       ??_C@_1CC@JJCBFNGB@?$AAD?$AAV?$AAE?$AAR?$AAR?$AA_?$AAN?$AAO?$AAT?$AAH?$AAO?$AAS?$AAT?$AAI?$AAN?$AAG?$AA?$AA@ 10057724     dxerr8:dxerr8.obj
 0002:00008748       ??_C@_1BM@PNPNIIO@?$AAD?$AAV?$AAE?$AAR?$AAR?$AA_?$AAH?$AAO?$AAS?$AAT?$AAI?$AAN?$AAG?$AA?$AA@ 10057748     dxerr8:dxerr8.obj
 0002:00008764       ??_C@_1CE@DIJCEFK@?$AAD?$AAV?$AAE?$AAR?$AAR?$AA_?$AAN?$AAO?$AAT?$AAB?$AAU?$AAF?$AAF?$AAE?$AAR?$AAE?$AAD?$AA?$AA@ 10057764     dxerr8:dxerr8.obj
 0002:00008788       ??_C@_1CM@EPMOGNKJ@?$AAD?$AAV?$AAE?$AAR?$AAR?$AA_?$AAA?$AAL?$AAR?$AAE?$AAA?$AAD?$AAY?$AAB?$AAU?$AAF?$AAF?$AAE?$AAR?$AAE@ 10057788     dxerr8:dxerr8.obj
 0002:000087b4       ??_C@_1CA@NFIELBHM@?$AAD?$AAV?$AAE?$AAR?$AAR?$AA_?$AAN?$AAO?$AA3?$AAD?$AAS?$AAO?$AAU?$AAN?$AAD?$AA?$AA@ 100577b4     dxerr8:dxerr8.obj
 0002:000087d4       ??_C@_1CK@OOGNGGLH@?$AAD?$AAV?$AAE?$AAR?$AAR?$AA_?$AAC?$AAO?$AAN?$AAN?$AAE?$AAC?$AAT?$AAA?$AAB?$AAO?$AAR?$AAT?$AAE?$AAD@ 100577d4     dxerr8:dxerr8.obj
 0002:00008800       ??_C@_1BM@HGIPKJPE@?$AAD?$AAV?$AAE?$AAR?$AAR?$AA_?$AAT?$AAI?$AAM?$AAE?$AAO?$AAU?$AAT?$AA?$AA@ 10057800     dxerr8:dxerr8.obj
 0002:0000881c       ??_C@_1CO@OJMPCAKD@?$AAD?$AAV?$AAE?$AAR?$AAR?$AA_?$AAS?$AAO?$AAU?$AAN?$AAD?$AAI?$AAN?$AAI?$AAT?$AAF?$AAA?$AAI?$AAL?$AAU@ 1005781c     dxerr8:dxerr8.obj
 0002:0000884c       ??_C@_1CK@IGJLOLKM@?$AAD?$AAV?$AAE?$AAR?$AAR?$AA_?$AAA?$AAL?$AAR?$AAE?$AAA?$AAD?$AAY?$AAP?$AAE?$AAN?$AAD?$AAI?$AAN?$AAG@ 1005784c     dxerr8:dxerr8.obj
 0002:00008878       ??_C@_1DM@HKEOEIHO@?$AAD?$AAV?$AAE?$AAR?$AAR?$AA_?$AAC?$AAO?$AAM?$AAP?$AAR?$AAE?$AAS?$AAS?$AAI?$AAO?$AAN?$AAN?$AAO?$AAT@ 10057878     dxerr8:dxerr8.obj
 0002:000088b4       ??_C@_1CO@JPCKHIEC@?$AAD?$AAV?$AAE?$AAR?$AAR?$AA_?$AAT?$AAR?$AAA?$AAN?$AAS?$AAP?$AAO?$AAR?$AAT?$AAN?$AAO?$AAT?$AAH?$AAO@ 100578b4     dxerr8:dxerr8.obj
 0002:000088e4       ??_C@_1CI@FCHCPMFN@?$AAD?$AAV?$AAE?$AAR?$AAR?$AA_?$AAI?$AAN?$AAV?$AAA?$AAL?$AAI?$AAD?$AAT?$AAA?$AAR?$AAG?$AAE?$AAT?$AA?$AA@ 100578e4     dxerr8:dxerr8.obj
 0002:0000890c       ??_C@_1CC@IILKACMC@?$AAD?$AAV?$AAE?$AAR?$AAR?$AA_?$AAN?$AAO?$AAT?$AAA?$AAL?$AAL?$AAO?$AAW?$AAE?$AAD?$AA?$AA@ 1005790c     dxerr8:dxerr8.obj
 0002:00008930       ??_C@_1CA@DILKMEMF@?$AAD?$AAV?$AAE?$AAR?$AAR?$AA_?$AAC?$AAO?$AAN?$AAN?$AAE?$AAC?$AAT?$AAE?$AAD?$AA?$AA@ 10057930     dxerr8:dxerr8.obj
 0002:00008950       ??_C@_1CG@MCALLGIC@?$AAD?$AAV?$AAE?$AAR?$AAR?$AA_?$AAN?$AAO?$AAT?$AAC?$AAO?$AAN?$AAN?$AAE?$AAC?$AAT?$AAE?$AAD?$AA?$AA@ 10057950     dxerr8:dxerr8.obj
 0002:00008978       ??_C@_1CM@PPKCEENC@?$AAD?$AAV?$AAE?$AAR?$AAR?$AA_?$AAC?$AAO?$AAN?$AAN?$AAE?$AAC?$AAT?$AAA?$AAB?$AAO?$AAR?$AAT?$AAI?$AAN@ 10057978     dxerr8:dxerr8.obj
 0002:000089a4       ??_C@_1CK@KFNHDGHF@?$AAD?$AAV?$AAE?$AAR?$AAR?$AA_?$AAN?$AAO?$AAT?$AAI?$AAN?$AAI?$AAT?$AAI?$AAA?$AAL?$AAI?$AAZ?$AAE?$AAD@ 100579a4     dxerr8:dxerr8.obj
 0002:000089d0       ??_C@_1CI@GCICFGKL@?$AAD?$AAV?$AAE?$AAR?$AAR?$AA_?$AAI?$AAN?$AAV?$AAA?$AAL?$AAI?$AAD?$AAH?$AAA?$AAN?$AAD?$AAL?$AAE?$AA?$AA@ 100579d0     dxerr8:dxerr8.obj
 0002:000089f8       ??_C@_1CE@IGAIOCIK@?$AAD?$AAV?$AAE?$AAR?$AAR?$AA_?$AAS?$AAE?$AAS?$AAS?$AAI?$AAO?$AAN?$AAL?$AAO?$AAS?$AAT?$AA?$AA@ 100579f8     dxerr8:dxerr8.obj
 0002:00008a1c       ??_C@_1CK@IKLHMGAC@?$AAD?$AAV?$AAE?$AAR?$AAR?$AA_?$AAN?$AAO?$AAV?$AAO?$AAI?$AAC?$AAE?$AAS?$AAE?$AAS?$AAS?$AAI?$AAO?$AAN@ 10057a1c     dxerr8:dxerr8.obj
 0002:00008a48       ??_C@_1CK@CMABOPPD@?$AAD?$AAV?$AAE?$AAR?$AAR?$AA_?$AAC?$AAO?$AAN?$AAN?$AAE?$AAC?$AAT?$AAI?$AAO?$AAN?$AAL?$AAO?$AAS?$AAT@ 10057a48     dxerr8:dxerr8.obj
 0002:00008a74       ??_C@_1CG@GDBAHDGE@?$AAD?$AAV?$AAE?$AAR?$AAR?$AA_?$AAI?$AAN?$AAV?$AAA?$AAL?$AAI?$AAD?$AAG?$AAR?$AAO?$AAU?$AAP?$AA?$AA@ 10057a74     dxerr8:dxerr8.obj
 0002:00008a9c       ??_C@_1CA@ENDHJBFN@?$AAD?$AAV?$AAE?$AAR?$AAR?$AA_?$AAE?$AAX?$AAC?$AAE?$AAP?$AAT?$AAI?$AAO?$AAN?$AA?$AA@ 10057a9c     dxerr8:dxerr8.obj
 0002:00008abc       ??_C@_1CG@IIPDJABM@?$AAD?$AAV?$AAE?$AAR?$AAR?$AA_?$AAI?$AAN?$AAV?$AAA?$AAL?$AAI?$AAD?$AAF?$AAL?$AAA?$AAG?$AAS?$AA?$AA@ 10057abc     dxerr8:dxerr8.obj
 0002:00008ae4       ??_C@_1CI@KMGDAMFA@?$AAD?$AAV?$AAE?$AAR?$AAR?$AA_?$AAI?$AAN?$AAV?$AAA?$AAL?$AAI?$AAD?$AAO?$AAB?$AAJ?$AAE?$AAC?$AAT?$AA?$AA@ 10057ae4     dxerr8:dxerr8.obj
 0002:00008b0c       ??_C@_1CI@FFLCDEIG@?$AAD?$AAV?$AAE?$AAR?$AAR?$AA_?$AAI?$AAN?$AAV?$AAA?$AAL?$AAI?$AAD?$AAP?$AAL?$AAA?$AAY?$AAE?$AAR?$AA?$AA@ 10057b0c     dxerr8:dxerr8.obj
 0002:00008b34       ??_C@_1CK@FLDMHNFM@?$AAD?$AAV?$AAE?$AAR?$AAR?$AA_?$AAB?$AAU?$AAF?$AAF?$AAE?$AAR?$AAT?$AAO?$AAO?$AAS?$AAM?$AAA?$AAL?$AAL@ 10057b34     dxerr8:dxerr8.obj
 0002:00008b60       ??_C@_1DK@CDFEJCAJ@?$AAD?$AAI?$AAE?$AAR?$AAR?$AA_?$AAB?$AAE?$AAT?$AAA?$AAD?$AAI?$AAR?$AAE?$AAC?$AAT?$AAI?$AAN?$AAP?$AAU@ 10057b60     dxerr8:dxerr8.obj
 0002:00008b9c       ??_C@_1CM@JHADGLID@?$AAE?$AA_?$AAP?$AAR?$AAO?$AAP?$AA_?$AAI?$AAD?$AA_?$AAU?$AAN?$AAS?$AAU?$AAP?$AAP?$AAO?$AAR?$AAT?$AAE@ 10057b9c     dxerr8:dxerr8.obj
 0002:00008bc8       ??_C@_1CO@HBBMGNEK@?$AAE?$AA_?$AAP?$AAR?$AAO?$AAP?$AA_?$AAS?$AAE?$AAT?$AA_?$AAU?$AAN?$AAS?$AAU?$AAP?$AAP?$AAO?$AAR?$AAT@ 10057bc8     dxerr8:dxerr8.obj
 0002:00008bf8       ??_C@_1DC@PHGGFECN@?$AAD?$AAI?$AAE?$AAR?$AAR?$AA_?$AAA?$AAL?$AAR?$AAE?$AAA?$AAD?$AAY?$AAI?$AAN?$AAI?$AAT?$AAI?$AAA?$AAL@ 10057bf8     dxerr8:dxerr8.obj
 0002:00008c2c       ??_C@_1DI@GEFHFIAN@?$AAD?$AAI?$AAE?$AAR?$AAR?$AA_?$AAO?$AAL?$AAD?$AAD?$AAI?$AAR?$AAE?$AAC?$AAT?$AAI?$AAN?$AAP?$AAU?$AAT@ 10057c2c     dxerr8:dxerr8.obj
 0002:00008c64       ??_C@_1BK@ECOGKCGK@?$AAE?$AA_?$AAI?$AAN?$AAV?$AAA?$AAL?$AAI?$AAD?$AAA?$AAR?$AAG?$AA?$AA@ 10057c64     dxerr8:dxerr8.obj
 0002:00008c80       ??_C@_1CG@NAEFNDPD@?$AAD?$AAI?$AAE?$AAR?$AAR?$AA_?$AAB?$AAA?$AAD?$AAD?$AAR?$AAI?$AAV?$AAE?$AAR?$AAV?$AAE?$AAR?$AA?$AA@ 10057c80     dxerr8:dxerr8.obj
 0002:00008ca8       ??_C@_1BO@GILBCDHF@?$AAD?$AAI?$AAE?$AAR?$AAR?$AA_?$AAA?$AAC?$AAQ?$AAU?$AAI?$AAR?$AAE?$AAD?$AA?$AA@ 10057ca8     dxerr8:dxerr8.obj
 0002:00008cc8       ??_C@_1CE@KBIBPBMA@?$AAD?$AAI?$AAE?$AAR?$AAR?$AA_?$AAN?$AAO?$AAM?$AAO?$AAR?$AAE?$AAI?$AAT?$AAE?$AAM?$AAS?$AA?$AA@ 10057cc8     dxerr8:dxerr8.obj
 0002:00008cec       ??_C@_1CA@FAJLPHOP@?$AAD?$AAI?$AAE?$AAR?$AAR?$AA_?$AAI?$AAN?$AAP?$AAU?$AAT?$AAL?$AAO?$AAS?$AAT?$AA?$AA@ 10057cec     dxerr8:dxerr8.obj
 0002:00008d0c       ??_C@_1BO@HHLADGEB@?$AAE?$AA_?$AAA?$AAC?$AAC?$AAE?$AAS?$AAS?$AAD?$AAE?$AAN?$AAI?$AAE?$AAD?$AA?$AA@ 10057d0c     dxerr8:dxerr8.obj
 0002:00008d2c       ??_C@_1BC@KAPCAFCP@?$AAE?$AA_?$AAH?$AAA?$AAN?$AAD?$AAL?$AAE?$AA?$AA@ 10057d2c     dxerr8:dxerr8.obj
 0002:00008d40       ??_C@_1CE@BLCGMGLM@?$AAD?$AAI?$AAE?$AAR?$AAR?$AA_?$AAN?$AAO?$AAT?$AAA?$AAC?$AAQ?$AAU?$AAI?$AAR?$AAE?$AAD?$AA?$AA@ 10057d40     dxerr8:dxerr8.obj
 0002:00008d64       ??_C@_1BM@IDPOJKHH@?$AAE?$AA_?$AAO?$AAU?$AAT?$AAO?$AAF?$AAM?$AAE?$AAM?$AAO?$AAR?$AAY?$AA?$AA@ 10057d64     dxerr8:dxerr8.obj
 0002:00008d80       ??_C@_1CK@NBHOEHCD@?$AAD?$AAI?$AAE?$AAR?$AAR?$AA_?$AAN?$AAO?$AAT?$AAI?$AAN?$AAI?$AAT?$AAI?$AAA?$AAL?$AAI?$AAZ?$AAE?$AAD@ 10057d80     dxerr8:dxerr8.obj
 0002:00008dac       ??_C@_1BO@KLNFIMCJ@?$AAD?$AAI?$AAE?$AAR?$AAR?$AA_?$AAN?$AAO?$AAT?$AAF?$AAO?$AAU?$AAN?$AAD?$AA?$AA@ 10057dac     dxerr8:dxerr8.obj
 0002:00008dcc       ??_C@_1CC@FGDKKJOO@?$AAD?$AAI?$AAE?$AAR?$AAR?$AA_?$AAD?$AAR?$AAI?$AAV?$AAE?$AAR?$AAL?$AAA?$AAS?$AAT?$AA?$AA@ 10057dcc     dxerr8:dxerr8.obj
 0002:00008df0       ??_C@_1DI@KCGKCFMC@?$AAD?$AAI?$AAE?$AAR?$AAR?$AA_?$AAI?$AAN?$AAV?$AAA?$AAL?$AAI?$AAD?$AAC?$AAL?$AAA?$AAS?$AAS?$AAI?$AAN@ 10057df0     dxerr8:dxerr8.obj
 0002:00008e28       ??_C@_1CA@DFIAFMDP@?$AAD?$AAI?$AAE?$AAR?$AAR?$AA_?$AAC?$AAA?$AAN?$AAC?$AAE?$AAL?$AAL?$AAE?$AAD?$AA?$AA@ 10057e28     dxerr8:dxerr8.obj
 0002:00008e48       ??_C@_1BK@KDGIIICD@?$AAD?$AAI?$AAE?$AAR?$AAR?$AA_?$AAB?$AAA?$AAD?$AAI?$AAN?$AAF?$AA?$AA@ 10057e48     dxerr8:dxerr8.obj
 0002:00008e64       ??_C@_1BM@MPMNAAGC@?$AAV?$AAF?$AAW?$AA_?$AAE?$AA_?$AAB?$AAA?$AAD?$AA_?$AAK?$AAE?$AAY?$AA?$AA@ 10057e64     dxerr8:dxerr8.obj
 0002:00008e80       ??_C@_1CI@OMNNKJND@?$AAD?$AAI?$AAE?$AAR?$AAR?$AA_?$AAD?$AAR?$AAI?$AAV?$AAE?$AAR?$AAF?$AAI?$AAR?$AAS?$AAT?$AA?$CL?$AA1?$AA?$AA@ 10057e80     dxerr8:dxerr8.obj
 0002:00008ea8       ??_C@_1CI@POGIAGDN@?$AAD?$AAI?$AAE?$AAR?$AAR?$AA_?$AAD?$AAR?$AAI?$AAV?$AAE?$AAR?$AAF?$AAI?$AAR?$AAS?$AAT?$AA?$CL?$AA2?$AA?$AA@ 10057ea8     dxerr8:dxerr8.obj
 0002:00008ed0       ??_C@_1CI@EGNEGBFI@?$AAD?$AAI?$AAE?$AAR?$AAR?$AA_?$AAD?$AAR?$AAI?$AAV?$AAE?$AAR?$AAF?$AAI?$AAR?$AAS?$AAT?$AA?$CL?$AA3?$AA?$AA@ 10057ed0     dxerr8:dxerr8.obj
 0002:00008ef8       ??_C@_1CI@NLADFJOB@?$AAD?$AAI?$AAE?$AAR?$AAR?$AA_?$AAD?$AAR?$AAI?$AAV?$AAE?$AAR?$AAF?$AAI?$AAR?$AAS?$AAT?$AA?$CL?$AA4?$AA?$AA@ 10057ef8     dxerr8:dxerr8.obj
 0002:00008f20       ??_C@_1CI@GDLPDOIE@?$AAD?$AAI?$AAE?$AAR?$AAR?$AA_?$AAD?$AAR?$AAI?$AAV?$AAE?$AAR?$AAF?$AAI?$AAR?$AAS?$AAT?$AA?$CL?$AA5?$AA?$AA@ 10057f20     dxerr8:dxerr8.obj
 0002:00008f48       ??_C@_1CE@DNHJDFC@?$AAD?$AAI?$AAE?$AAR?$AAR?$AA_?$AAD?$AAR?$AAI?$AAV?$AAE?$AAR?$AAF?$AAI?$AAR?$AAS?$AAT?$AA?$AA@ 10057f48     dxerr8:dxerr8.obj
 0002:00008f6c       ??_C@_1DI@JKNFMFEE@?$AAV?$AAF?$AAW?$AA_?$AAE?$AA_?$AAC?$AAE?$AAR?$AAT?$AAI?$AAF?$AAI?$AAC?$AAA?$AAT?$AAI?$AAO?$AAN?$AA_@ 10057f6c     dxerr8:dxerr8.obj
 0002:00008fa4       ??_C@_1DE@NGINHHJA@?$AAV?$AAF?$AAW?$AA_?$AAE?$AA_?$AAP?$AAI?$AAN?$AA_?$AAA?$AAL?$AAR?$AAE?$AAA?$AAD?$AAY?$AA_?$AAB?$AAL@ 10057fa4     dxerr8:dxerr8.obj
 0002:00008fd8       ??_C@_1FC@JPIGJOD@?$AAV?$AAF?$AAW?$AA_?$AAE?$AA_?$AAP?$AAI?$AAN?$AA_?$AAA?$AAL?$AAR?$AAE?$AAA?$AAD?$AAY?$AA_?$AAB?$AAL@ 10057fd8     dxerr8:dxerr8.obj
 0002:00009030       ??_C@_1EA@MBNDBLAM@?$AAV?$AAF?$AAW?$AA_?$AAE?$AA_?$AAD?$AAV?$AAD?$AA_?$AAN?$AAO?$AA_?$AAR?$AAE?$AAS?$AAU?$AAM?$AAE?$AA_@ 10058030     dxerr8:dxerr8.obj
 0002:00009070       ??_C@_1CO@MFAMMKLB@?$AAV?$AAF?$AAW?$AA_?$AAE?$AA_?$AAD?$AAV?$AAD?$AA_?$AAI?$AAN?$AAV?$AAA?$AAL?$AAI?$AAD?$AA_?$AAD?$AAI@ 10058070     dxerr8:dxerr8.obj
 0002:000090a0       ??_C@_1DA@FHIOJHHA@?$AAV?$AAF?$AAW?$AA_?$AAE?$AA_?$AAD?$AAV?$AAD?$AA_?$AAT?$AAI?$AAT?$AAL?$AAE?$AA_?$AAU?$AAN?$AAK?$AAN@ 100580a0     dxerr8:dxerr8.obj
 0002:000090d0       ??_C@_1DE@JFKBHOKB@?$AAV?$AAF?$AAW?$AA_?$AAE?$AA_?$AAD?$AAV?$AAD?$AA_?$AAS?$AAT?$AAR?$AAE?$AAA?$AAM?$AA_?$AAD?$AAI?$AAS@ 100580d0     dxerr8:dxerr8.obj
 0002:00009104       ??_C@_1DK@CPKLOEFM@?$AAV?$AAF?$AAW?$AA_?$AAE?$AA_?$AAF?$AAR?$AAA?$AAM?$AAE?$AA_?$AAS?$AAT?$AAE?$AAP?$AA_?$AAU?$AAN?$AAS@ 10058104     dxerr8:dxerr8.obj
 0002:00009140       ??_C@_1DM@MKDFGCGI@?$AAV?$AAF?$AAW?$AA_?$AAE?$AA_?$AAD?$AAV?$AAD?$AA_?$AAN?$AAO?$AAT?$AA_?$AAI?$AAN?$AA_?$AAK?$AAA?$AAR@ 10058140     dxerr8:dxerr8.obj
 0002:0000917c       ??_C@_1DK@IEOMJNLM@?$AAV?$AAF?$AAW?$AA_?$AAE?$AA_?$AAD?$AAV?$AAD?$AA_?$AAL?$AAO?$AAW?$AA_?$AAP?$AAA?$AAR?$AAE?$AAN?$AAT@ 1005817c     dxerr8:dxerr8.obj
 0002:000091b8       ??_C@_1CM@GEPFFNDB@?$AAV?$AAF?$AAW?$AA_?$AAE?$AA_?$AAD?$AAV?$AAD?$AA_?$AAN?$AAO?$AA_?$AAG?$AAO?$AAU?$AAP?$AA_?$AAP?$AAG@ 100581b8     dxerr8:dxerr8.obj
 0002:000091e4       ??_C@_1DA@GKALDNAM@?$AAV?$AAF?$AAW?$AA_?$AAE?$AA_?$AAD?$AAV?$AAD?$AA_?$AAN?$AAO?$AA_?$AAA?$AAT?$AAT?$AAR?$AAI?$AAB?$AAU@ 100581e4     dxerr8:dxerr8.obj
 0002:00009214       ??_C@_1DM@MFICMGLP@?$AAV?$AAF?$AAW?$AA_?$AAE?$AA_?$AAD?$AAV?$AAD?$AA_?$AAI?$AAN?$AAC?$AAO?$AAM?$AAP?$AAA?$AAT?$AAI?$AAB@ 10058214     dxerr8:dxerr8.obj
 0002:00009250       ??_C@_1DG@CHAKLDFE@?$AAV?$AAF?$AAW?$AA_?$AAE?$AA_?$AAD?$AAV?$AAD?$AA_?$AAS?$AAT?$AAA?$AAT?$AAE?$AA_?$AAW?$AAR?$AAO?$AAN@ 10058250     dxerr8:dxerr8.obj
 0002:00009288       ??_C@_1DA@KNMJGAAN@?$AAV?$AAF?$AAW?$AA_?$AAE?$AA_?$AAD?$AAV?$AAD?$AA_?$AAS?$AAT?$AAA?$AAT?$AAE?$AA_?$AAC?$AAO?$AAR?$AAR@ 10058288     dxerr8:dxerr8.obj
 0002:000092b8       ??_C@_1DM@NGKJIBAC@?$AAV?$AAF?$AAW?$AA_?$AAE?$AA_?$AAD?$AAV?$AAD?$AA_?$AAS?$AAT?$AAA?$AAT?$AAE?$AA_?$AAW?$AAR?$AAO?$AAN@ 100582b8     dxerr8:dxerr8.obj
 0002:000092f4       ??_C@_1DA@HHOLEKBJ@?$AAV?$AAF?$AAW?$AA_?$AAE?$AA_?$AAD?$AAV?$AAD?$AA_?$AAC?$AAM?$AAD?$AA_?$AAC?$AAA?$AAN?$AAC?$AAE?$AAL@ 100582f4     dxerr8:dxerr8.obj
 0002:00009324       ??_C@_1DM@MHGLONIC@?$AAV?$AAF?$AAW?$AA_?$AAE?$AA_?$AAD?$AAV?$AAD?$AA_?$AAM?$AAE?$AAN?$AAU?$AA_?$AAD?$AAO?$AAE?$AAS?$AA_@ 10058324     dxerr8:dxerr8.obj
 0002:00009360       ??_C@_1CM@MILLDJII@?$AAV?$AAF?$AAW?$AA_?$AAE?$AA_?$AAD?$AAV?$AAD?$AA_?$AAW?$AAR?$AAO?$AAN?$AAG?$AA_?$AAS?$AAP?$AAE?$AAE@ 10058360     dxerr8:dxerr8.obj
 0002:0000938c       ??_C@_1CG@OKONCGGF@?$AAV?$AAF?$AAW?$AA_?$AAE?$AA_?$AAT?$AAI?$AAM?$AAE?$AA_?$AAE?$AAX?$AAP?$AAI?$AAR?$AAE?$AAD?$AA?$AA@ 1005838c     dxerr8:dxerr8.obj
 0002:000093b4       ??_C@_1CM@FCLLBMHE@?$AAV?$AAF?$AAW?$AA_?$AAE?$AA_?$AAC?$AAO?$AAP?$AAY?$AAP?$AAR?$AAO?$AAT?$AA_?$AAF?$AAA?$AAI?$AAL?$AAE@ 100583b4     dxerr8:dxerr8.obj
 0002:000093e0       ??_C@_1EC@PHODOPMF@?$AAV?$AAF?$AAW?$AA_?$AAE?$AA_?$AAD?$AAD?$AAR?$AAA?$AAW?$AA_?$AAV?$AAE?$AAR?$AAS?$AAI?$AAO?$AAN?$AA_@ 100583e0     dxerr8:dxerr8.obj
 0002:00009424       ??_C@_1CO@NKLFHGCN@?$AAV?$AAF?$AAW?$AA_?$AAE?$AA_?$AAD?$AAV?$AAD?$AA_?$AAD?$AAE?$AAC?$AAN?$AAO?$AAT?$AAE?$AAN?$AAO?$AAU@ 10058424     dxerr8:dxerr8.obj
 0002:00009454       ??_C@_1CK@KPPPJCEF@?$AAV?$AAF?$AAW?$AA_?$AAE?$AA_?$AAD?$AAV?$AAD?$AA_?$AAR?$AAE?$AAN?$AAD?$AAE?$AAR?$AAF?$AAA?$AAI?$AAL@ 10058454     dxerr8:dxerr8.obj
 0002:00009480       ??_C@_1DA@HNJIAOBF@?$AAV?$AAF?$AAW?$AA_?$AAE?$AA_?$AAD?$AAV?$AAD?$AA_?$AAG?$AAR?$AAA?$AAP?$AAH?$AAN?$AAO?$AAT?$AAR?$AAE@ 10058480     dxerr8:dxerr8.obj
 0002:000094b0       ??_C@_1CI@NDLMLLIC@?$AAV?$AAF?$AAW?$AA_?$AAE?$AA_?$AAD?$AAV?$AAD?$AA_?$AAN?$AAO?$AA_?$AAB?$AAU?$AAT?$AAT?$AAO?$AAN?$AA?$AA@ 100584b0     dxerr8:dxerr8.obj
 0002:000094d8       ??_C@_1DA@DDFCEIJA@?$AAV?$AAF?$AAW?$AA_?$AAE?$AA_?$AAD?$AAV?$AAD?$AA_?$AAI?$AAN?$AAV?$AAA?$AAL?$AAI?$AAD?$AAD?$AAO?$AAM@ 100584d8     dxerr8:dxerr8.obj
 0002:00009508       ??_C@_1DM@CBNPLHJ@?$AAV?$AAF?$AAW?$AA_?$AAE?$AA_?$AAD?$AAV?$AAD?$AA_?$AAO?$AAP?$AAE?$AAR?$AAA?$AAT?$AAI?$AAO?$AAN?$AA_@ 10058508     dxerr8:dxerr8.obj
 0002:00009544       ??_C@_1DE@CLMAGDGJ@?$AAV?$AAF?$AAW?$AA_?$AAE?$AA_?$AAN?$AAO?$AA_?$AAC?$AAA?$AAP?$AAT?$AAU?$AAR?$AAE?$AA_?$AAH?$AAA?$AAR@ 10058544     dxerr8:dxerr8.obj
 0002:00009578       ??_C@_1CK@HHIAGGGI@?$AAV?$AAF?$AAW?$AA_?$AAE?$AA_?$AAN?$AAO?$AA_?$AAV?$AAP?$AA_?$AAH?$AAA?$AAR?$AAD?$AAW?$AAA?$AAR?$AAE@ 10058578     dxerr8:dxerr8.obj
 0002:000095a4       ??_C@_1DM@LJOACIHN@?$AAV?$AAF?$AAW?$AA_?$AAE?$AA_?$AAD?$AAD?$AAR?$AAA?$AAW?$AA_?$AAC?$AAA?$AAP?$AAS?$AA_?$AAN?$AAO?$AAT@ 100585a4     dxerr8:dxerr8.obj
 0002:000095e0       ??_C@_1DI@CJLIBCEE@?$AAV?$AAF?$AAW?$AA_?$AAE?$AA_?$AAV?$AAP?$AA_?$AAN?$AAE?$AAG?$AAO?$AAT?$AAI?$AAA?$AAT?$AAI?$AAO?$AAN@ 100585e0     dxerr8:dxerr8.obj
 0002:00009618       ??_C@_1DE@FCDKCCIE@?$AAV?$AAF?$AAW?$AA_?$AAE?$AA_?$AAO?$AAU?$AAT?$AA_?$AAO?$AAF?$AA_?$AAV?$AAI?$AAD?$AAE?$AAO?$AA_?$AAM@ 10058618     dxerr8:dxerr8.obj
 0002:0000964c       ??_C@_1CE@BGEGHPFD@?$AAV?$AAF?$AAW?$AA_?$AAE?$AA_?$AAB?$AAA?$AAD?$AA_?$AAV?$AAI?$AAD?$AAE?$AAO?$AAC?$AAD?$AA?$AA@ 1005864c     dxerr8:dxerr8.obj
 0002:00009670       ??_C@_1CG@OFMJHBO@?$AAV?$AAF?$AAW?$AA_?$AAE?$AA_?$AAN?$AAO?$AA_?$AAT?$AAR?$AAA?$AAN?$AAS?$AAP?$AAO?$AAR?$AAT?$AA?$AA@ 10058670     dxerr8:dxerr8.obj
 0002:00009698       ??_C@_1DC@FIEGOJHI@?$AAV?$AAF?$AAW?$AA_?$AAE?$AA_?$AAU?$AAN?$AAS?$AAU?$AAP?$AAP?$AAO?$AAR?$AAT?$AAE?$AAD?$AA_?$AAS?$AAT@ 10058698     dxerr8:dxerr8.obj
 0002:000096cc       ??_C@_1CO@OLEDFHLO@?$AAV?$AAF?$AAW?$AA_?$AAE?$AA_?$AAB?$AAU?$AAF?$AAF?$AAE?$AAR?$AA_?$AAU?$AAN?$AAD?$AAE?$AAR?$AAF?$AAL@ 100586cc     dxerr8:dxerr8.obj
 0002:000096fc       ??_C@_1CA@PMMABLFJ@?$AAV?$AAF?$AAW?$AA_?$AAE?$AA_?$AAR?$AAE?$AAA?$AAD?$AA_?$AAO?$AAN?$AAL?$AAY?$AA?$AA@ 100586fc     dxerr8:dxerr8.obj
 0002:0000971c       ??_C@_1CK@GEMMPBCM@?$AAV?$AAF?$AAW?$AA_?$AAE?$AA_?$AAN?$AAO?$AA_?$AAT?$AAI?$AAM?$AAE?$AA_?$AAF?$AAO?$AAR?$AAM?$AAA?$AAT@ 1005871c     dxerr8:dxerr8.obj
 0002:00009748       ??_C@_1CG@FDFAEPNA@?$AAV?$AAF?$AAW?$AA_?$AAE?$AA_?$AAN?$AAO?$AAT?$AA_?$AAI?$AAN?$AA_?$AAG?$AAR?$AAA?$AAP?$AAH?$AA?$AA@ 10058748     dxerr8:dxerr8.obj
 0002:00009770       ??_C@_1DG@EBOOAIBA@?$AAV?$AAF?$AAW?$AA_?$AAE?$AA_?$AAM?$AAP?$AAE?$AAG?$AA_?$AAN?$AAO?$AAT?$AA_?$AAC?$AAO?$AAN?$AAS?$AAT@ 10058770     dxerr8:dxerr8.obj
 0002:000097a8       ??_C@_1DA@EEELLPOC@?$AAV?$AAF?$AAW?$AA_?$AAE?$AA_?$AAU?$AAN?$AAS?$AAU?$AAP?$AAP?$AAO?$AAR?$AAT?$AAE?$AAD?$AA_?$AAV?$AAI@ 100587a8     dxerr8:dxerr8.obj
 0002:000097d8       ??_C@_1DA@HGJLBKIM@?$AAV?$AAF?$AAW?$AA_?$AAE?$AA_?$AAU?$AAN?$AAS?$AAU?$AAP?$AAP?$AAO?$AAR?$AAT?$AAE?$AAD?$AA_?$AAA?$AAU@ 100587d8     dxerr8:dxerr8.obj
 0002:00009808       ??_C@_1DK@HMGLNJCJ@?$AAV?$AAF?$AAW?$AA_?$AAE?$AA_?$AAP?$AAR?$AAO?$AAC?$AAE?$AAS?$AAS?$AAO?$AAR?$AA_?$AAN?$AAO?$AAT?$AA_@ 10058808     dxerr8:dxerr8.obj
 0002:00009844       ??_C@_1BG@CJHJCEAD@?$AAV?$AAF?$AAW?$AA_?$AAE?$AA_?$AAR?$AAP?$AAZ?$AAA?$AA?$AA@ 10058844     dxerr8:dxerr8.obj
 0002:0000985c       ??_C@_1DA@GCNDCNP@?$AAV?$AAF?$AAW?$AA_?$AAE?$AA_?$AAN?$AAO?$AA_?$AAA?$AAU?$AAD?$AAI?$AAO?$AA_?$AAH?$AAA?$AAR?$AAD?$AAW@ 1005885c     dxerr8:dxerr8.obj
 0002:0000988c       ??_C@_1CM@EGJAHCBG@?$AAV?$AAF?$AAW?$AA_?$AAE?$AA_?$AAN?$AAO?$AA_?$AAD?$AAE?$AAC?$AAO?$AAM?$AAP?$AAR?$AAE?$AAS?$AAS?$AAO@ 1005888c     dxerr8:dxerr8.obj
 0002:000098b8       ??_C@_1CI@EONOFJDN@?$AAV?$AAF?$AAW?$AA_?$AAE?$AA_?$AAM?$AAO?$AAN?$AAO?$AA_?$AAA?$AAU?$AAD?$AAI?$AAO?$AA_?$AAH?$AAW?$AA?$AA@ 100588b8     dxerr8:dxerr8.obj
 0002:000098e0       ??_C@_1DC@OOAEGDPM@?$AAV?$AAF?$AAW?$AA_?$AAE?$AA_?$AAN?$AAO?$AA_?$AAT?$AAI?$AAM?$AAE?$AA_?$AAF?$AAO?$AAR?$AAM?$AAA?$AAT@ 100588e0     dxerr8:dxerr8.obj
 0002:00009914       ??_C@_1DC@IPBPLNGF@?$AAV?$AAF?$AAW?$AA_?$AAE?$AA_?$AAM?$AAE?$AAD?$AAI?$AAA?$AA_?$AAT?$AAI?$AAM?$AAE?$AA_?$AAN?$AAO?$AAT@ 10058914     dxerr8:dxerr8.obj
 0002:00009948       ??_C@_1DE@CEAGPPIG@?$AAV?$AAF?$AAW?$AA_?$AAE?$AA_?$AAS?$AAA?$AAM?$AAP?$AAL?$AAE?$AA_?$AAT?$AAI?$AAM?$AAE?$AA_?$AAN?$AAO@ 10058948     dxerr8:dxerr8.obj
 0002:0000997c       ??_C@_1DC@IHCBLPKH@?$AAV?$AAF?$AAW?$AA_?$AAE?$AA_?$AAI?$AAN?$AAV?$AAA?$AAL?$AAI?$AAD?$AA_?$AAM?$AAE?$AAD?$AAI?$AAA?$AA_@ 1005897c     dxerr8:dxerr8.obj
 0002:000099b0       ??_C@_1CI@CPGELJEJ@?$AAV?$AAF?$AAW?$AA_?$AAE?$AA_?$AAI?$AAN?$AAV?$AAA?$AAL?$AAI?$AAD?$AA_?$AAC?$AAL?$AAS?$AAI?$AAD?$AA?$AA@ 100589b0     dxerr8:dxerr8.obj
 0002:000099d8       ??_C@_1DG@MOHKOCBP@?$AAV?$AAF?$AAW?$AA_?$AAE?$AA_?$AAI?$AAN?$AAV?$AAA?$AAL?$AAI?$AAD?$AA_?$AAF?$AAI?$AAL?$AAE?$AA_?$AAV@ 100589d8     dxerr8:dxerr8.obj
 0002:00009a10       ??_C@_1CK@POIOOFMA@?$AAV?$AAF?$AAW?$AA_?$AAE?$AA_?$AAF?$AAI?$AAL?$AAE?$AA_?$AAT?$AAO?$AAO?$AA_?$AAS?$AAH?$AAO?$AAR?$AAT@ 10058a10     dxerr8:dxerr8.obj
 0002:00009a40       ??_C@_1EA@BFCDNJPI@?$AAV?$AAF?$AAW?$AA_?$AAE?$AA_?$AAC?$AAA?$AAN?$AAN?$AAO?$AAT?$AA_?$AAL?$AAO?$AAA?$AAD?$AA_?$AAS?$AAO@ 10058a40     dxerr8:dxerr8.obj
 0002:00009a80       ??_C@_1DA@GKGOFNIK@?$AAV?$AAF?$AAW?$AA_?$AAE?$AA_?$AAU?$AAN?$AAK?$AAN?$AAO?$AAW?$AAN?$AA_?$AAF?$AAI?$AAL?$AAE?$AA_?$AAT@ 10058a80     dxerr8:dxerr8.obj
 0002:00009ab0       ??_C@_1DC@FEBDEGCA@?$AAV?$AAF?$AAW?$AA_?$AAE?$AA_?$AAI?$AAN?$AA_?$AAF?$AAU?$AAL?$AAL?$AAS?$AAC?$AAR?$AAE?$AAE?$AAN?$AA_@ 10058ab0     dxerr8:dxerr8.obj
 0002:00009ae4       ??_C@_1CI@MECLALOI@?$AAV?$AAF?$AAW?$AA_?$AAE?$AA_?$AAN?$AAO?$AA_?$AAF?$AAU?$AAL?$AAL?$AAS?$AAC?$AAR?$AAE?$AAE?$AAN?$AA?$AA@ 10058ae4     dxerr8:dxerr8.obj
 0002:00009b0c       ??_C@_1CI@PNJPEAEN@?$AAV?$AAF?$AAW?$AA_?$AAE?$AA_?$AAN?$AAO?$AA_?$AAA?$AAD?$AAV?$AAI?$AAS?$AAE?$AA_?$AAS?$AAE?$AAT?$AA?$AA@ 10058b0c     dxerr8:dxerr8.obj
 0002:00009b34       ??_C@_1DC@JIKMHHJJ@?$AAV?$AAF?$AAW?$AA_?$AAE?$AA_?$AAN?$AAO?$AA_?$AAM?$AAO?$AAD?$AAE?$AAX?$AA_?$AAA?$AAV?$AAA?$AAI?$AAL@ 10058b34     dxerr8:dxerr8.obj
 0002:00009b68       ??_C@_1DC@IHDILNNA@?$AAV?$AAF?$AAW?$AA_?$AAE?$AA_?$AAA?$AAD?$AAV?$AAI?$AAS?$AAE?$AA_?$AAA?$AAL?$AAR?$AAE?$AAA?$AAD?$AAY@ 10058b68     dxerr8:dxerr8.obj
 0002:00009b9c       ??_C@_1DC@CGGHPODG@?$AAV?$AAF?$AAW?$AA_?$AAE?$AA_?$AAC?$AAO?$AAR?$AAR?$AAU?$AAP?$AAT?$AA_?$AAG?$AAR?$AAA?$AAP?$AAH?$AA_@ 10058b9c     dxerr8:dxerr8.obj
 0002:00009bd0       ??_C@_1DA@NJENKGAK@?$AAV?$AAF?$AAW?$AA_?$AAE?$AA_?$AAA?$AAL?$AAR?$AAE?$AAA?$AAD?$AAY?$AA_?$AAC?$AAA?$AAN?$AAC?$AAE?$AAL@ 10058bd0     dxerr8:dxerr8.obj
 0002:00009c00       ??_C@_1DE@GKPIIBHA@?$AAV?$AAF?$AAW?$AA_?$AAE?$AA_?$AAT?$AAI?$AAM?$AAE?$AA_?$AAA?$AAL?$AAR?$AAE?$AAA?$AAD?$AAY?$AA_?$AAP@ 10058c00     dxerr8:dxerr8.obj
 0002:00009c34       ??_C@_1DE@GFFIEIPL@?$AAV?$AAF?$AAW?$AA_?$AAE?$AA_?$AAN?$AAO?$AAT?$AA_?$AAA?$AAL?$AAL?$AAO?$AAW?$AAE?$AAD?$AA_?$AAT?$AAO@ 10058c34     dxerr8:dxerr8.obj
 0002:00009c68       ??_C@_1CK@CCKEBDCI@?$AAV?$AAF?$AAW?$AA_?$AAE?$AA_?$AAC?$AAI?$AAR?$AAC?$AAU?$AAL?$AAA?$AAR?$AA_?$AAG?$AAR?$AAA?$AAP?$AAH@ 10058c68     dxerr8:dxerr8.obj
 0002:00009c94       ??_C@_1DA@IIFOHGGP@?$AAV?$AAF?$AAW?$AA_?$AAE?$AA_?$AAE?$AAN?$AAU?$AAM?$AA_?$AAO?$AAU?$AAT?$AA_?$AAO?$AAF?$AA_?$AAR?$AAA@ 10058c94     dxerr8:dxerr8.obj
 0002:00009cc4       ??_C@_1DE@OHCAMLDJ@?$AAV?$AAF?$AAW?$AA_?$AAE?$AA_?$AAI?$AAN?$AAV?$AAA?$AAL?$AAI?$AAD?$AA_?$AAF?$AAI?$AAL?$AAE?$AA_?$AAF@ 10058cc4     dxerr8:dxerr8.obj
 0002:00009cf8       ??_C@_1BM@JBPBLGCC@?$AAV?$AAF?$AAW?$AA_?$AAE?$AA_?$AAT?$AAI?$AAM?$AAE?$AAO?$AAU?$AAT?$AA?$AA@ 10058cf8     dxerr8:dxerr8.obj
 0002:00009d14       ??_C@_1CK@NMMEAEHF@?$AAV?$AAF?$AAW?$AA_?$AAE?$AA_?$AAD?$AAU?$AAP?$AAL?$AAI?$AAC?$AAA?$AAT?$AAE?$AA_?$AAN?$AAA?$AAM?$AAE@ 10058d14     dxerr8:dxerr8.obj
 0002:00009d40       ??_C@_1DE@LNHDALCC@?$AAV?$AAF?$AAW?$AA_?$AAE?$AA_?$AAS?$AAA?$AAM?$AAP?$AAL?$AAE?$AA_?$AAR?$AAE?$AAJ?$AAE?$AAC?$AAT?$AAE@ 10058d40     dxerr8:dxerr8.obj
 0002:00009d74       ??_C@_1CM@DIJPLHBM@?$AAV?$AAF?$AAW?$AA_?$AAE?$AA_?$AAS?$AAA?$AAM?$AAP?$AAL?$AAE?$AA_?$AAR?$AAE?$AAJ?$AAE?$AAC?$AAT?$AAE@ 10058d74     dxerr8:dxerr8.obj
 0002:00009da0       ??_C@_1DA@IKOACBOL@?$AAV?$AAF?$AAW?$AA_?$AAE?$AA_?$AAT?$AAY?$AAP?$AAE?$AA_?$AAN?$AAO?$AAT?$AA_?$AAA?$AAC?$AAC?$AAE?$AAP@ 10058da0     dxerr8:dxerr8.obj
 0002:00009dd0       ??_C@_1CG@PMICOLOK@?$AAV?$AAF?$AAW?$AA_?$AAE?$AA_?$AAI?$AAN?$AAV?$AAA?$AAL?$AAI?$AAD?$AA_?$AAR?$AAE?$AAC?$AAT?$AA?$AA@ 10058dd0     dxerr8:dxerr8.obj
 0002:00009df8       ??_C@_1DG@PKFLMCAF@?$AAV?$AAF?$AAW?$AA_?$AAE?$AA_?$AAS?$AAT?$AAA?$AAR?$AAT?$AA_?$AAT?$AAI?$AAM?$AAE?$AA_?$AAA?$AAF?$AAT@ 10058df8     dxerr8:dxerr8.obj
 0002:00009e30       ??_C@_1CE@DHDEBMJC@?$AAV?$AAF?$AAW?$AA_?$AAE?$AA_?$AAW?$AAR?$AAO?$AAN?$AAG?$AA_?$AAS?$AAT?$AAA?$AAT?$AAE?$AA?$AA@ 10058e30     dxerr8:dxerr8.obj
 0002:00009e54       ??_C@_1CE@GENMENPA@?$AAV?$AAF?$AAW?$AA_?$AAE?$AA_?$AAN?$AAO?$AAT?$AA_?$AAR?$AAU?$AAN?$AAN?$AAI?$AAN?$AAG?$AA?$AA@ 10058e54     dxerr8:dxerr8.obj
 0002:00009e78       ??_C@_1CC@CJKLJHGI@?$AAV?$AAF?$AAW?$AA_?$AAE?$AA_?$AAN?$AAO?$AAT?$AA_?$AAP?$AAA?$AAU?$AAS?$AAE?$AAD?$AA?$AA@ 10058e78     dxerr8:dxerr8.obj
 0002:00009e9c       ??_C@_1CE@OOPPLFAO@?$AAV?$AAF?$AAW?$AA_?$AAE?$AA_?$AAN?$AAO?$AAT?$AA_?$AAS?$AAT?$AAO?$AAP?$AAP?$AAE?$AAD?$AA?$AA@ 10058e9c     dxerr8:dxerr8.obj
 0002:00009ec0       ??_C@_1CI@DNNLGAJD@?$AAV?$AAF?$AAW?$AA_?$AAE?$AA_?$AAS?$AAT?$AAA?$AAT?$AAE?$AA_?$AAC?$AAH?$AAA?$AAN?$AAG?$AAE?$AAD?$AA?$AA@ 10058ec0     dxerr8:dxerr8.obj
 0002:00009ee8       ??_C@_1CM@EPHPPAFE@?$AAV?$AAF?$AAW?$AA_?$AAE?$AA_?$AAT?$AAO?$AAO?$AA_?$AAM?$AAA?$AAN?$AAY?$AA_?$AAC?$AAO?$AAL?$AAO?$AAR@ 10058ee8     dxerr8:dxerr8.obj
 0002:00009f14       ??_C@_1DC@KNDHFOCF@?$AAV?$AAF?$AAW?$AA_?$AAE?$AA_?$AAN?$AAO?$AA_?$AAD?$AAI?$AAS?$AAP?$AAL?$AAA?$AAY?$AA_?$AAP?$AAA?$AAL@ 10058f14     dxerr8:dxerr8.obj
 0002:00009f48       ??_C@_1DG@NNNFKNPO@?$AAV?$AAF?$AAW?$AA_?$AAE?$AA_?$AAN?$AAO?$AA_?$AAP?$AAA?$AAL?$AAE?$AAT?$AAT?$AAE?$AA_?$AAA?$AAV?$AAA@ 10058f48     dxerr8:dxerr8.obj
 0002:00009f80       ??_C@_1DC@JLINPLLJ@?$AAV?$AAF?$AAW?$AA_?$AAE?$AA_?$AAN?$AAO?$AA_?$AAC?$AAO?$AAL?$AAO?$AAR?$AA_?$AAK?$AAE?$AAY?$AA_?$AAF@ 10058f80     dxerr8:dxerr8.obj
 0002:00009fb4       ??_C@_1CI@JHLBNHIA@?$AAV?$AAF?$AAW?$AA_?$AAE?$AA_?$AAC?$AAO?$AAL?$AAO?$AAR?$AA_?$AAK?$AAE?$AAY?$AA_?$AAS?$AAE?$AAT?$AA?$AA@ 10058fb4     dxerr8:dxerr8.obj
 0002:00009fdc       ??_C@_1CE@EBHOCHLI@?$AAV?$AAF?$AAW?$AA_?$AAE?$AA_?$AAP?$AAA?$AAL?$AAE?$AAT?$AAT?$AAE?$AA_?$AAS?$AAE?$AAT?$AA?$AA@ 10058fdc     dxerr8:dxerr8.obj
 0002:0000a000       ??_C@_1DI@EJDBGPCK@?$AAV?$AAF?$AAW?$AA_?$AAE?$AA_?$AAN?$AAO?$AAT?$AA_?$AAS?$AAA?$AAM?$AAP?$AAL?$AAE?$AA_?$AAC?$AAO?$AAN@ 10059000     dxerr8:dxerr8.obj
 0002:0000a038       ??_C@_1DK@JCIPCPOC@?$AAV?$AAF?$AAW?$AA_?$AAE?$AA_?$AAN?$AAO?$AAT?$AA_?$AAO?$AAV?$AAE?$AAR?$AAL?$AAA?$AAY?$AA_?$AAC?$AAO@ 10059038     dxerr8:dxerr8.obj
 0002:0000a074       ??_C@_1CO@NFDFLEGP@?$AAV?$AAF?$AAW?$AA_?$AAE?$AA_?$AAN?$AAO?$AA_?$AAC?$AAO?$AAL?$AAO?$AAR?$AA_?$AAK?$AAE?$AAY?$AA_?$AAS@ 10059074     dxerr8:dxerr8.obj
 0002:0000a0a4       ??_C@_1CM@HIECDGLO@?$AAV?$AAF?$AAW?$AA_?$AAE?$AA_?$AAC?$AAH?$AAA?$AAN?$AAG?$AAI?$AAN?$AAG?$AA_?$AAF?$AAO?$AAR?$AAM?$AAA@ 100590a4     dxerr8:dxerr8.obj
 0002:0000a0d0       ??_C@_1CI@DLBHJIFE@?$AAV?$AAF?$AAW?$AA_?$AAE?$AA_?$AAC?$AAA?$AAN?$AAN?$AAO?$AAT?$AA_?$AAR?$AAE?$AAN?$AAD?$AAE?$AAR?$AA?$AA@ 100590d0     dxerr8:dxerr8.obj
 0002:0000a0f8       ??_C@_1CK@CBLMBEKH@?$AAV?$AAF?$AAW?$AA_?$AAE?$AA_?$AAC?$AAA?$AAN?$AAN?$AAO?$AAT?$AA_?$AAC?$AAO?$AAN?$AAN?$AAE?$AAC?$AAT@ 100590f8     dxerr8:dxerr8.obj
 0002:0000a124       ??_C@_1CA@DHJKHIEI@?$AAV?$AAF?$AAW?$AA_?$AAE?$AA_?$AAN?$AAO?$AAT?$AA_?$AAF?$AAO?$AAU?$AAN?$AAD?$AA?$AA@ 10059124     dxerr8:dxerr8.obj
 0002:0000a144       ??_C@_1CG@DNGHIJNH@?$AAV?$AAF?$AAW?$AA_?$AAE?$AA_?$AAN?$AAO?$AA_?$AAI?$AAN?$AAT?$AAE?$AAR?$AAF?$AAA?$AAC?$AAE?$AA?$AA@ 10059144     dxerr8:dxerr8.obj
 0002:0000a16c       ??_C@_1BM@BGDAEHPM@?$AAV?$AAF?$AAW?$AA_?$AAE?$AA_?$AAN?$AAO?$AA_?$AAS?$AAI?$AAN?$AAK?$AA?$AA@ 1005916c     dxerr8:dxerr8.obj
 0002:0000a188       ??_C@_1BO@NGGMBHMF@?$AAV?$AAF?$AAW?$AA_?$AAE?$AA_?$AAN?$AAO?$AA_?$AAC?$AAL?$AAO?$AAC?$AAK?$AA?$AA@ 10059188     dxerr8:dxerr8.obj
 0002:0000a1a8       ??_C@_1CC@GMPIBFE@?$AAV?$AAF?$AAW?$AA_?$AAE?$AA_?$AAS?$AAI?$AAZ?$AAE?$AAN?$AAO?$AAT?$AAS?$AAE?$AAT?$AA?$AA@ 100591a8     dxerr8:dxerr8.obj
 0002:0000a1cc       ??_C@_1CI@PMADMMOH@?$AAV?$AAF?$AAW?$AA_?$AAE?$AA_?$AAN?$AAO?$AAT?$AA_?$AAC?$AAO?$AAM?$AAM?$AAI?$AAT?$AAT?$AAE?$AAD?$AA?$AA@ 100591cc     dxerr8:dxerr8.obj
 0002:0000a1f4       ??_C@_1DE@BMPFHBFL@?$AAV?$AAF?$AAW?$AA_?$AAE?$AA_?$AAB?$AAU?$AAF?$AAF?$AAE?$AAR?$AAS?$AA_?$AAO?$AAU?$AAT?$AAS?$AAT?$AAA@ 100591f4     dxerr8:dxerr8.obj
 0002:0000a228       ??_C@_1DA@LMBOPDPC@?$AAV?$AAF?$AAW?$AA_?$AAE?$AA_?$AAA?$AAL?$AAR?$AAE?$AAA?$AAD?$AAY?$AA_?$AAC?$AAO?$AAM?$AAM?$AAI?$AAT@ 10059228     dxerr8:dxerr8.obj
 0002:0000a258       ??_C@_1BO@EFIGLKNJ@?$AAV?$AAF?$AAW?$AA_?$AAE?$AA_?$AAB?$AAA?$AAD?$AAA?$AAL?$AAI?$AAG?$AAN?$AA?$AA@ 10059258     dxerr8:dxerr8.obj
 0002:0000a278       ??_C@_1CM@MGDLLLDE@?$AAV?$AAF?$AAW?$AA_?$AAE?$AA_?$AAB?$AAU?$AAF?$AAF?$AAE?$AAR?$AA_?$AAO?$AAV?$AAE?$AAR?$AAF?$AAL?$AAO@ 10059278     dxerr8:dxerr8.obj
 0002:0000a2a4       ??_C@_1CI@ENKKJNAF@?$AAV?$AAF?$AAW?$AA_?$AAE?$AA_?$AAB?$AAU?$AAF?$AAF?$AAE?$AAR?$AA_?$AAN?$AAO?$AAT?$AAS?$AAE?$AAT?$AA?$AA@ 100592a4     dxerr8:dxerr8.obj
 0002:0000a2d0       ??_C@_1FA@DDDMJDBD@?$AAD?$AAI?$AAE?$AAR?$AAR?$AA_?$AAM?$AAA?$AAP?$AAF?$AAI?$AAL?$AAE?$AAF?$AAA?$AAI?$AAL?$AA?5?$AA?$CG?$AA?5@ 100592d0     dxerr8:dxerr8.obj
 0002:0000a320       ??_C@_1EM@IJKPOJJB@?$AAD?$AAI?$AAE?$AAR?$AAR?$AA_?$AAR?$AAE?$AAP?$AAO?$AAR?$AAT?$AAF?$AAU?$AAL?$AAL?$AA?5?$AA?$CG?$AA?5?$AAV@ 10059320     dxerr8:dxerr8.obj
 0002:0000a370       ??_C@_1EM@MHGPIMAH@?$AAD?$AAI?$AAE?$AAR?$AAR?$AA_?$AAU?$AAN?$AAP?$AAL?$AAU?$AAG?$AAG?$AAE?$AAD?$AA?5?$AA?$CG?$AA?5?$AAV?$AAF@ 10059370     dxerr8:dxerr8.obj
 0002:0000a3c0       ??_C@_1FM@JMMHDOFO@?$AAD?$AAI?$AAE?$AAR?$AAR?$AA_?$AAE?$AAF?$AAF?$AAE?$AAC?$AAT?$AAP?$AAL?$AAA?$AAY?$AAI?$AAN?$AAG?$AA?5@ 100593c0     dxerr8:dxerr8.obj
 0002:0000a420       ??_C@_1FM@MLBNMKDP@?$AAD?$AAI?$AAE?$AAR?$AAR?$AA_?$AAN?$AAO?$AAT?$AAB?$AAU?$AAF?$AAF?$AAE?$AAR?$AAE?$AAD?$AA?5?$AA?$CG?$AA?5@ 10059420     dxerr8:dxerr8.obj
 0002:0000a480       ??_C@_1IA@JAOMKGKF@?$AAD?$AAI?$AAE?$AAR?$AAR?$AA_?$AAH?$AAA?$AAS?$AAE?$AAF?$AAF?$AAE?$AAC?$AAT?$AAS?$AA?5?$AA?$CG?$AA?5?$AAV@ 10059480     dxerr8:dxerr8.obj
 0002:0000a500       ??_C@_1JG@EKCIBHCI@?$AAD?$AAI?$AAE?$AAR?$AAR?$AA_?$AAN?$AAO?$AAT?$AAE?$AAX?$AAC?$AAL?$AAU?$AAS?$AAI?$AAV?$AAE?$AAA?$AAC@ 10059500     dxerr8:dxerr8.obj
 0002:0000a598       ??_C@_1HM@HJKLBBEI@?$AAD?$AAI?$AAE?$AAR?$AAR?$AA_?$AAI?$AAN?$AAC?$AAO?$AAM?$AAP?$AAL?$AAE?$AAT?$AAE?$AAE?$AAF?$AAF?$AAE@ 10059598     dxerr8:dxerr8.obj
 0002:0000a618       ??_C@_1IE@MMGCGEKC@?$AAD?$AAI?$AAE?$AAR?$AAR?$AA_?$AAN?$AAO?$AAT?$AAD?$AAO?$AAW?$AAN?$AAL?$AAO?$AAA?$AAD?$AAE?$AAD?$AA?5@ 10059618     dxerr8:dxerr8.obj
 0002:0000a69c       ??_C@_1DA@OPOMIGCN@?$AAC?$AAO?$AA_?$AAE?$AA_?$AAA?$AAL?$AAR?$AAE?$AAA?$AAD?$AAY?$AAI?$AAN?$AAI?$AAT?$AAI?$AAA?$AAL?$AAI@ 1005969c     dxerr8:dxerr8.obj
 0002:0000a6d0       ??_C@_1GC@HCMIPGF@?$AAD?$AAI?$AAE?$AAR?$AAR?$AA_?$AAI?$AAN?$AAS?$AAU?$AAF?$AAF?$AAI?$AAC?$AAI?$AAE?$AAN?$AAT?$AAP?$AAR@ 100596d0     dxerr8:dxerr8.obj
 0002:0000a738       ??_C@_1IG@ODGGFIDG@?$AAD?$AAI?$AAE?$AAR?$AAR?$AA_?$AAD?$AAE?$AAV?$AAI?$AAC?$AAE?$AAF?$AAU?$AAL?$AAL?$AA?5?$AA?$CG?$AA?5?$AAV@ 10059738     dxerr8:dxerr8.obj
 0002:0000a7c0       ??_C@_1GM@ELAPHOEH@?$AAD?$AAI?$AAE?$AAR?$AAR?$AA_?$AAM?$AAO?$AAR?$AAE?$AAD?$AAA?$AAT?$AAA?$AA?5?$AA?$CG?$AA?5?$AAV?$AAF?$AAW@ 100597c0     dxerr8:dxerr8.obj
 0002:0000a82c       ??_C@_1CI@PGGCNJIE@?$AAC?$AAO?$AA_?$AAE?$AA_?$AAN?$AAO?$AAT?$AAI?$AAN?$AAI?$AAT?$AAI?$AAA?$AAL?$AAI?$AAZ?$AAE?$AAD?$AA?$AA@ 1005982c     dxerr8:dxerr8.obj
 0002:0000a854       ??_C@_1O@CKLHNDGM@?$AAE?$AA_?$AAF?$AAA?$AAI?$AAL?$AA?$AA@ 10059854     dxerr8:dxerr8.obj
 0002:0000a864       ??_C@_1BK@GCCGLFCK@?$AAE?$AA_?$AAU?$AAN?$AAE?$AAX?$AAP?$AAE?$AAC?$AAT?$AAE?$AAD?$AA?$AA@ 10059864     dxerr8:dxerr8.obj
 0002:0000a880       ??_C@_1CM@BINHHBA@?$AAC?$AAL?$AAA?$AAS?$AAS?$AA_?$AAE?$AA_?$AAN?$AAO?$AAA?$AAG?$AAG?$AAR?$AAE?$AAG?$AAA?$AAT?$AAI?$AAO@ 10059880     dxerr8:dxerr8.obj
 0002:0000a8ac       ??_C@_1CI@INIFDMJL@?$AAR?$AAE?$AAG?$AAD?$AAB?$AA_?$AAE?$AA_?$AAC?$AAL?$AAA?$AAS?$AAS?$AAN?$AAO?$AAT?$AAR?$AAE?$AAG?$AA?$AA@ 100598ac     dxerr8:dxerr8.obj
 0002:0000a8d4       ??_C@_1BA@PCOBCNGH@?$AAE?$AA_?$AAA?$AAB?$AAO?$AAR?$AAT?$AA?$AA@ 100598d4     dxerr8:dxerr8.obj
 0002:0000a8e4       ??_C@_1BE@MKAKNMPJ@?$AAE?$AA_?$AAP?$AAE?$AAN?$AAD?$AAI?$AAN?$AAG?$AA?$AA@ 100598e4     dxerr8:dxerr8.obj
 0002:0000a8f8       ??_C@_1BE@KHNOKKGK@?$AAE?$AA_?$AAN?$AAO?$AAT?$AAI?$AAM?$AAP?$AAL?$AA?$AA@ 100598f8     dxerr8:dxerr8.obj
 0002:0000a90c       ??_C@_1BM@JAILJAJM@?$AAE?$AA_?$AAN?$AAO?$AAI?$AAN?$AAT?$AAE?$AAR?$AAF?$AAA?$AAC?$AAE?$AA?$AA@ 1005990c     dxerr8:dxerr8.obj
 0002:0000a928       ??_C@_1BE@JBDJAMLA@?$AAE?$AA_?$AAP?$AAO?$AAI?$AAN?$AAT?$AAE?$AAR?$AA?$AA@ 10059928     dxerr8:dxerr8.obj
 0002:0000a940       ??_C@_0CDH@GCMOAKAJ@Returned?5from?5IDirectMusicPerfor@ 10059940     dxerr8:dxerr8.obj
 0002:0000ab78       ??_C@_0KO@NPMNKJJN@Although?5the?5audio?5output?5from?5t@ 10059b78     dxerr8:dxerr8.obj
 0002:0000ac28       ??_C@_0IB@NGCINMH@The?5requested?5operation?5was?5not?5@ 10059c28     dxerr8:dxerr8.obj
 0002:0000acac       ??_C@_03EKLFPLOI@n?1a?$AA@ 10059cac     dxerr8:dxerr8.obj
 0002:0000acb0       ??_C@_0CDE@HLPAMBPK@Returned?5from?5IDirectMusicPerfor@ 10059cb0     dxerr8:dxerr8.obj
 0002:0000aee8       ??_C@_0HI@EIOBNHHF@Return?5value?5from?5IDirectMusicTr@ 10059ee8     dxerr8:dxerr8.obj
 0002:0000af60       ??_C@_0DL@ENHEOFCO@Returned?5string?5has?5been?5truncat@ 10059f60     dxerr8:dxerr8.obj
 0002:0000afa0       ??_C@_0KN@FEMHLEKB@Returned?5from?5IDirectMusicGraph?3@ 10059fa0     dxerr8:dxerr8.obj
 0002:0000b050       ??_C@_0BHP@IPCLFGMD@Returned?5from?5IDirectMusicPerfor@ 1005a050     dxerr8:dxerr8.obj
 0002:0000b1d0       ??_C@_0IB@KOPFHLJJ@Return?5value?5from?5IDirectMusicTo@ 1005a1d0     dxerr8:dxerr8.obj
 0002:0000b258       ??_C@_0BCA@MLKMMEGN@The?5object?5could?5only?5load?5parti@ 1005a258     dxerr8:dxerr8.obj
 0002:0000b378       ??_C@_0OH@NOCKGBMH@Return?5value?5from?5IDirectMusicBa@ 1005a378     dxerr8:dxerr8.obj
 0002:0000b460       ??_C@_0IG@CEABNMBP@Return?5value?5from?5IDirectMusicTo@ 1005a460     dxerr8:dxerr8.obj
 0002:0000b4e8       ??_C@_0EH@JDDMNNBE@The?5call?5succeeded?0?5but?5not?5all?5@ 1005a4e8     dxerr8:dxerr8.obj
 0002:0000b530       ??_C@_0M@FJDFIHOM@Full?5duplex?$AA@ 1005a530     dxerr8:dxerr8.obj
 0002:0000b53c       ??_C@_0M@DLAFGJCF@Half?5duplex?$AA@ 1005a53c     dxerr8:dxerr8.obj
 0002:0000b548       ??_C@_07GGOCKMHG@Pending?$AA@ 1005a548     dxerr8:dxerr8.obj
 0002:0000b550       ??_C@_0DO@EINJOBLH@The?5call?5succeeded?0?5but?5we?5had?5t@ 1005a550     dxerr8:dxerr8.obj
 0002:0000b590       ??_C@_0DA@CFHOEPDL@The?5seek?5into?5the?5movie?5was?5not?5@ 1005a590     dxerr8:dxerr8.obj
 0002:0000b5c0       ??_C@_0HC@EPFCMEBN@There?5was?5no?5preview?5pin?5availab@ 1005a5c0     dxerr8:dxerr8.obj
 0002:0000b638       ??_C@_0HL@DMLCEMFL@The?5current?5title?5was?5not?5a?5sequ@ 1005a638     dxerr8:dxerr8.obj
 0002:0000b6b8       ??_C@_0GD@OKHHEJKI@The?5audio?5stream?5did?5not?5contain@ 1005a6b8     dxerr8:dxerr8.obj
 0002:0000b71c       ??_C@_0CK@GMOEINLN@The?5stop?5time?5for?5the?5sample?5was@ 1005a71c     dxerr8:dxerr8.obj
 0002:0000b748       ??_C@_0EO@KAMBMJEF@The?5value?5returned?5had?5to?5be?5est@ 1005a748     dxerr8:dxerr8.obj
 0002:0000b798       ??_C@_0EI@EFNCBJIO@This?5success?5code?5is?5reserved?5fo@ 1005a798     dxerr8:dxerr8.obj
 0002:0000b7e0       ??_C@_0CA@GKMJGFLD@The?5stream?5has?5been?5turned?5off?4?$AA@ 1005a7e0     dxerr8:dxerr8.obj
 0002:0000b800       ??_C@_0DM@FCJPLLMI@The?5graph?5can?8t?5be?5cued?5because?5@ 1005a800     dxerr8:dxerr8.obj
 0002:0000b840       ??_C@_0ED@IKAACIDI@Cannot?5play?5back?5the?5video?5strea@ 1005a840     dxerr8:dxerr8.obj
 0002:0000b884       ??_C@_0CM@LANNIDHE@The?5resource?5specified?5is?5no?5lon@ 1005a884     dxerr8:dxerr8.obj
 0002:0000b8b0       ??_C@_0HM@LNDNHCAG@A?5connection?5could?5not?5be?5made?5w@ 1005a8b0     dxerr8:dxerr8.obj
 0002:0000b930       ??_C@_0EM@EJEHAIAH@Cannot?5play?5back?5the?5video?5strea@ 1005a930     dxerr8:dxerr8.obj
 0002:0000b980       ??_C@_0ED@DCAGFODF@Cannot?5play?5back?5the?5audio?5strea@ 1005a980     dxerr8:dxerr8.obj
 0002:0000b9c4       ??_C@_0DF@JGCLGOMN@Some?5connections?5have?5failed?5and@ 1005a9c4     dxerr8:dxerr8.obj
 0002:0000ba00       ??_C@_0FB@KAGLDFBA@An?5attempt?5to?5add?5a?5filter?5with?5@ 1005aa00     dxerr8:dxerr8.obj
 0002:0000ba54       ??_C@_0CI@NHLOBGBK@The?5state?5transition?5has?5not?5com@ 1005aa54     dxerr8:dxerr8.obj
 0002:0000ba80       ??_C@_0EA@GFNODELP@Some?5of?5the?5streams?5in?5this?5movi@ 1005aa80     dxerr8:dxerr8.obj
 0002:0000bac0       ??_C@_0DO@LNPCEFDB@The?5file?5contained?5some?5property@ 1005aac0     dxerr8:dxerr8.obj
 0002:0000bb00       ??_C@_0CG@FFPAEANJ@The?5end?5of?5the?5list?5has?5been?5rea@ 1005ab00     dxerr8:dxerr8.obj
 0002:0000bb28       ??_C@_0CO@DAHNPCCB@The?5storage?5control?5block?5addres@ 1005ab28     dxerr8:dxerr8.obj
 0002:0000bb58       ??_C@_0BO@FDLJAMNE@The?5environment?5is?5incorrect?4?$AA@ 1005ab58     dxerr8:dxerr8.obj
 0002:0000bb78       ??_C@_0EA@IKIAOELF@An?5attempt?5was?5made?5to?5load?5a?5pr@ 1005ab78     dxerr8:dxerr8.obj
 0002:0000bbb8       ??_C@_0CM@LHGKHJBE@The?5system?5cannot?5find?5the?5drive@ 1005abb8     dxerr8:dxerr8.obj
 0002:0000bbe4       ??_C@_0DJ@GLEOJCHN@Not?5enough?5storage?5is?5available?5@ 1005abe4     dxerr8:dxerr8.obj
 0002:0000bc20       ??_C@_0CL@OHDEIFPG@The?5system?5cannot?5find?5the?5path?5@ 1005ac20     dxerr8:dxerr8.obj
 0002:0000bc4c       ??_C@_0CB@KCGJPFGN@The?5system?5cannot?5open?5the?5file?4@ 1005ac4c     dxerr8:dxerr8.obj
 0002:0000bc70       ??_C@_0BC@NCLBKKPJ@Access?5is?5denied?4?$AA@ 1005ac70     dxerr8:dxerr8.obj
 0002:0000bc84       ??_C@_0BH@DFPDIJEH@The?5handle?5is?5invalid?4?$AA@ 1005ac84     dxerr8:dxerr8.obj
 0002:0000bc9c       ??_C@_0CL@IPMMFMCP@The?5system?5cannot?5find?5the?5file?5@ 1005ac9c     dxerr8:dxerr8.obj
 0002:0000bcc8       ??_C@_0CE@KLHNENBG@Call?5successful?0?5but?5returned?5FA@ 1005acc8     dxerr8:dxerr8.obj
 0002:0000bcec       ??_C@_0CE@GHFENJAB@The?5function?5completed?5successfu@ 1005acec     dxerr8:dxerr8.obj
 0002:0000bd10       ??_C@_0DE@HHMMLAHH@The?5file?5does?5not?5contain?5a?5vali@ 1005ad10     dxerr8:dxerr8.obj
 0002:0000bd48       ??_C@_0GD@JFLCFPLI@Attempt?5was?5made?5to?5create?5an?5au@ 1005ad48     dxerr8:dxerr8.obj
 0002:0000bdac       ??_C@_0CN@PKFMPCAO@Invalid?5data?5was?5found?5in?5a?5RIFF@ 1005adac     dxerr8:dxerr8.obj
 0002:0000bde0       ??_C@_0EP@FIOBPIBA@Attempt?5was?5made?5to?5play?5segment@ 1005ade0     dxerr8:dxerr8.obj
 0002:0000be30       ??_C@_0FA@CPAFJDJK@An?5audiopath?5could?5not?5be?5used?5f@ 1005ae30     dxerr8:dxerr8.obj
 0002:0000be80       ??_C@_0EP@HCGOFEKA@An?5audiopath?5failed?5to?5create?5be@ 1005ae80     dxerr8:dxerr8.obj
 0002:0000bed0       ??_C@_0EA@MJKAAGLB@An?5audiopath?5is?5inactive?0?5perhap@ 1005aed0     dxerr8:dxerr8.obj
 0002:0000bf10       ??_C@_0FN@LMGJCFKC@A?5segment?5or?5song?5was?5asked?5for?5@ 1005af10     dxerr8:dxerr8.obj
 0002:0000bf70       ??_C@_0KA@CNFIBACF@This?5is?5the?5inverse?5of?5the?5previ@ 1005af70     dxerr8:dxerr8.obj
 0002:0000c010       ??_C@_0IC@CFJACHJP@The?5Performance?5has?5set?5up?5some?5@ 1005b010     dxerr8:dxerr8.obj
 0002:0000c098       ??_C@_0NB@MAGELEFA@A?5script?5routine?5written?5in?5Audi@ 1005b098     dxerr8:dxerr8.obj
 0002:0000c170       ??_C@_0OD@JEPBPLNC@A?5script?5routine?5written?5in?5Audi@ 1005b170     dxerr8:dxerr8.obj
 0002:0000c258       ??_C@_0II@NAPJAHNB@A?5script?5written?5in?5AudioVBScrip@ 1005b258     dxerr8:dxerr8.obj
 0002:0000c2e0       ??_C@_0DG@GJFPNGD@The?5file?5contains?5an?5invalid?5par@ 1005b2e0     dxerr8:dxerr8.obj
 0002:0000c318       ??_C@_0CL@FJCHOLBN@The?5file?5contains?5an?5invalid?5lyr@ 1005b318     dxerr8:dxerr8.obj
 0002:0000c344       ??_C@_0DE@FCFNCNNK@The?5file?5contains?5an?5invalid?5seg@ 1005b344     dxerr8:dxerr8.obj
 0002:0000c378       ??_C@_0HC@EEJCEKJD@Attempt?5was?5made?5to?5set?5a?5script@ 1005b378     dxerr8:dxerr8.obj
 0002:0000c3f0       ??_C@_0GB@KKCMPPOM@Attempt?5was?5made?5to?5set?5a?5script@ 1005b3f0     dxerr8:dxerr8.obj
 0002:0000c458       ??_C@_0FA@GANJPPJN@Scripts?5variables?5for?5content?5re@ 1005b458     dxerr8:dxerr8.obj
 0002:0000c4a8       ??_C@_0DP@JBMFMJJB@The?5script?5does?5not?5contain?5a?5ro@ 1005b4a8     dxerr8:dxerr8.obj
 0002:0000c4e8       ??_C@_0EA@IEGKHAPN@The?5script?5does?5not?5contain?5a?5va@ 1005b4e8     dxerr8:dxerr8.obj
 0002:0000c528       ??_C@_0CL@EPKBPEFJ@The?5file?5contains?5an?5invalid?5scr@ 1005b528     dxerr8:dxerr8.obj
 0002:0000c554       ??_C@_0BM@ECDKLJII@The?5script?5file?5is?5invalid?4?$AA@ 1005b554     dxerr8:dxerr8.obj
 0002:0000c570       ??_C@_0HA@DOOFCBNP@An?5error?5occured?5while?5parsing?5a@ 1005b570     dxerr8:dxerr8.obj
 0002:0000c5e0       ??_C@_0PD@JAGJOBDA@Loading?5of?5oleaut32?4dll?5failed?4?5@ 1005b5e0     dxerr8:dxerr8.obj
 0002:0000c6d8       ??_C@_0JE@NJKJMCKL@An?5error?5was?5encountered?5while?5p@ 1005b6d8     dxerr8:dxerr8.obj
 0002:0000c770       ??_C@_0EJ@GKCCAHBM@A?5varient?5was?5used?5that?5had?5a?5ty@ 1005b770     dxerr8:dxerr8.obj
 0002:0000c7c0       ??_C@_0FL@BCGBNCGM@The?5activeX?5scripting?5engine?5for@ 1005b7c0     dxerr8:dxerr8.obj
 0002:0000c820       ??_C@_0EK@GGEBNADE@An?5attempt?5to?5use?5this?5object?5fa@ 1005b820     dxerr8:dxerr8.obj
 0002:0000c870       ??_C@_0HA@CPFAEHJG@DMUS_E_DESCEND_CHUNK_FAIL?5is?5ret@ 1005b870     dxerr8:dxerr8.obj
 0002:0000c8e0       ??_C@_0NH@GIMBLBEM@A?5call?5to?5MIDIToMusic?$CI?$CJ?5or?5Music@ 1005b8e0     dxerr8:dxerr8.obj
 0002:0000c9b8       ??_C@_0CN@KEBEIIHP@The?5default?5system?5port?5could?5no@ 1005b9b8     dxerr8:dxerr8.obj
 0002:0000c9e8       ??_C@_0KF@GNAGHAAD@The?5DMUS_PMSG?5was?5either?5not?5all@ 1005b9e8     dxerr8:dxerr8.obj
 0002:0000ca90       ??_C@_0GH@CDKAADBD@The?5DMUS_PMSG?5has?5already?5been?5s@ 1005ba90     dxerr8:dxerr8.obj
 0002:0000caf8       ??_C@_0DD@HEFMCFPC@The?5file?5name?5is?5missing?5from?5th@ 1005baf8     dxerr8:dxerr8.obj
 0002:0000cb2c       ??_C@_0CI@BEDHLOCL@The?5file?5requested?5is?5not?5a?5vali@ 1005bb2c     dxerr8:dxerr8.obj
 0002:0000cb58       ??_C@_0ED@CNFDPKEL@The?5tool?5is?5already?5contained?5in@ 1005bb58     dxerr8:dxerr8.obj
 0002:0000cba0       ??_C@_0FF@NEKKGDKC@Value?5is?5out?5of?5range?0?5for?5insta@ 1005bba0     dxerr8:dxerr8.obj
 0002:0000cbf8       ??_C@_0EP@LGGMK@Segment?5initialization?5failed?0?5m@ 1005bbf8     dxerr8:dxerr8.obj
 0002:0000cc48       ??_C@_0BG@LMBHPPIC@Object?5was?5not?5found?4?$AA@ 1005bc48     dxerr8:dxerr8.obj
 0002:0000cc60       ??_C@_0ED@BIPLALCE@The?5class?5id?5field?5is?5required?5a@ 1005bc60     dxerr8:dxerr8.obj
 0002:0000cca4       ??_C@_0CE@GLGHPOEE@The?5requested?5file?5path?5is?5inval@ 1005bca4     dxerr8:dxerr8.obj
 0002:0000ccc8       ??_C@_0DL@EKMAHFEK@File?5open?5failed?5?9?5either?5file?5d@ 1005bcc8     dxerr8:dxerr8.obj
 0002:0000cd04       ??_C@_0CD@NHHCHEOL@Search?5data?5type?5is?5not?5supporte@ 1005bd04     dxerr8:dxerr8.obj
 0002:0000cd28       ??_C@_0CB@LPDPLFDI@Unable?5to?5find?5or?5create?5object?4@ 1005bd28     dxerr8:dxerr8.obj
 0002:0000cd50       ??_C@_0FO@NLNCHOAH@There?5is?5no?5master?5clock?5in?5the?5@ 1005bd50     dxerr8:dxerr8.obj
 0002:0000cdb0       ??_C@_0DM@HGPPIDIC@The?5track?5does?5not?5support?5clock@ 1005bdb0     dxerr8:dxerr8.obj
 0002:0000cdec       ??_C@_0DF@BJKCNAGP@The?5requested?5track?5is?5not?5conta@ 1005bdec     dxerr8:dxerr8.obj
 0002:0000ce24       ??_C@_0DM@LNJEHMME@The?5time?5is?5in?5the?5past?0?5and?5the@ 1005be24     dxerr8:dxerr8.obj
 0002:0000ce60       ??_C@_0DN@MLGEHAGL@The?5requested?5parameter?5type?5is?5@ 1005be60     dxerr8:dxerr8.obj
 0002:0000cea0       ??_C@_0IA@GPJILFOH@The?5requested?5parameter?5type?5is?5@ 1005bea0     dxerr8:dxerr8.obj
 0002:0000cf20       ??_C@_0DO@MOFOKBHK@A?5required?5object?5is?5not?5initial@ 1005bf20     dxerr8:dxerr8.obj
 0002:0000cf60       ??_C@_0LD@NCDKHDMF@The?5segment?5object?5was?5unable?5to@ 1005bf60     dxerr8:dxerr8.obj
 0002:0000d018       ??_C@_0KP@HJJKMJPC@The?5graph?5object?5was?5unable?5to?5l@ 1005c018     dxerr8:dxerr8.obj
 0002:0000d0c8       ??_C@_0IP@DFIAINHI@The?5IStream?$CK?5object?8s?5data?5conta@ 1005c0c8     dxerr8:dxerr8.obj
 0002:0000d158       ??_C@_0JC@MDEJICCG@The?5IStream?$CK?5object?8s?5data?5conta@ 1005c158     dxerr8:dxerr8.obj
 0002:0000d1f0       ??_C@_0HO@HPJHMDOM@The?5IStream?$CK?5object?8s?5data?5does?5@ 1005c1f0     dxerr8:dxerr8.obj
 0002:0000d270       ??_C@_0IB@LAHIOCJC@The?5IStream?$CK?5object?8s?5data?5does?5@ 1005c270     dxerr8:dxerr8.obj
 0002:0000d2f4       ??_C@_0CI@MKEKIFEJ@The?5file?5does?5not?5contain?5a?5vali@ 1005c2f4     dxerr8:dxerr8.obj
 0002:0000d31c       ??_C@_0CJ@PNIJFAME@The?5object?5has?5already?5been?5init@ 1005c31c     dxerr8:dxerr8.obj
 0002:0000d348       ??_C@_0EL@KOMPFHIP@The?5IStream?$CK?5object?5does?5not?5con@ 1005c348     dxerr8:dxerr8.obj
 0002:0000d398       ??_C@_0JC@EDBOOMCO@The?5given?5event?5is?5invalid?5?$CIeith@ 1005c398     dxerr8:dxerr8.obj
 0002:0000d430       ??_C@_0FK@OHELNOEF@IDirectMusic?3?3SetDirectSound?5has@ 1005c430     dxerr8:dxerr8.obj
 0002:0000d490       ??_C@_0EH@CEKCAHI@The?5operation?5cannot?5be?5carried?5@ 1005c490     dxerr8:dxerr8.obj
 0002:0000d4d8       ??_C@_0DE@OIFIMAOD@Invalid?5buffer?5format?5was?5handed@ 1005c4d8     dxerr8:dxerr8.obj
 0002:0000d50c       ??_C@_0DA@LJFLINGC@Invalid?5DirectSound?5buffer?5was?5h@ 1005c50c     dxerr8:dxerr8.obj
 0002:0000d53c       ??_C@_0DO@LEEDKGFE@The?5operation?5cannot?5be?5carried?5@ 1005c53c     dxerr8:dxerr8.obj
 0002:0000d580       ??_C@_0NB@IDINNENM@The?5port?5could?5not?5be?5created?5be@ 1005c580     dxerr8:dxerr8.obj
 0002:0000d658       ??_C@_0FA@PANPLKDG@The?5given?5operation?5could?5not?5be@ 1005c658     dxerr8:dxerr8.obj
 0002:0000d6a8       ??_C@_0FB@PPCALNLL@The?5given?5operation?5could?5not?5be@ 1005c6a8     dxerr8:dxerr8.obj
 0002:0000d700       ??_C@_0EH@EKOFHFFC@There?5is?5insufficient?5space?5to?5i@ 1005c700     dxerr8:dxerr8.obj
 0002:0000d748       ??_C@_0CM@NHIEACPF@There?5was?5no?5data?5in?5the?5referen@ 1005c748     dxerr8:dxerr8.obj
 0002:0000d778       ??_C@_0KK@IOMBHBIB@The?5operation?5cannot?5be?5performe@ 1005c778     dxerr8:dxerr8.obj
 0002:0000d828       ??_C@_0EF@MIANPEHH@An?5error?5occurred?5while?5attempti@ 1005c828     dxerr8:dxerr8.obj
 0002:0000d870       ??_C@_0EF@PGADOLMH@The?5operation?5cannot?5be?5carried?5@ 1005c870     dxerr8:dxerr8.obj
 0002:0000d8b8       ??_C@_0GE@ICHPCCH@The?5operation?5could?5not?5be?5compl@ 1005c8b8     dxerr8:dxerr8.obj
 0002:0000d920       ??_C@_0FC@MLJMNNMN@An?5attempt?5was?5made?5to?5close?5the@ 1005c920     dxerr8:dxerr8.obj
 0002:0000d978       ??_C@_0FB@GKOFCAGN@An?5attempt?5was?5made?5to?5open?5the?5@ 1005c978     dxerr8:dxerr8.obj
 0002:0000d9d0       ??_C@_0FH@CKPBPIKG@The?5operation?5could?5not?5be?5compl@ 1005c9d0     dxerr8:dxerr8.obj
 0002:0000da28       ??_C@_0CJ@HAAJOGLC@Attempted?5to?5download?5unknown?5da@ 1005ca28     dxerr8:dxerr8.obj
 0002:0000da54       ??_C@_0CO@OBCNDKMP@Offset?5Table?5for?5download?5buffer@ 1005ca54     dxerr8:dxerr8.obj
 0002:0000da84       ??_C@_0CB@HBCIFHEP@Bad?5wave?5chunk?5in?5DLS?5collection@ 1005ca84     dxerr8:dxerr8.obj
 0002:0000daa8       ??_C@_0CK@BLLNKDE@Downoaded?5DLS?5wave?5is?5not?5in?5PCM@ 1005caa8     dxerr8:dxerr8.obj
 0002:0000dad4       ??_C@_0DI@EJJOFKHC@Articulation?5missing?5from?5instru@ 1005cad4     dxerr8:dxerr8.obj
 0002:0000db0c       ??_C@_0DJ@OAGBPNGD@Wavelink?5chunk?5in?5DLS?5collection@ 1005cb0c     dxerr8:dxerr8.obj
 0002:0000db48       ??_C@_0CM@CNBKHOCL@Invalid?5instrument?5chunk?5in?5DLS?5@ 1005cb48     dxerr8:dxerr8.obj
 0002:0000db74       ??_C@_0CO@DLLDJFKJ@Invalid?5articulation?5chunk?5in?5DL@ 1005cb74     dxerr8:dxerr8.obj
 0002:0000dba8       ??_C@_0EM@HAIJEDLI@Wave?5chunk?5has?5more?5than?5one?5int@ 1005cba8     dxerr8:dxerr8.obj
 0002:0000dbf8       ??_C@_0EL@ILIFLAMH@?$CK?5The?5specified?5property?5item?5ma@ 1005cbf8     dxerr8:dxerr8.obj
 0002:0000dc48       ??_C@_0EB@FGICBMBL@The?5specified?5property?5item?5may?5@ 1005cc48     dxerr8:dxerr8.obj
 0002:0000dc90       ??_C@_0EF@JBDJHGJO@The?5specified?5property?5item?5was?5@ 1005cc90     dxerr8:dxerr8.obj
 0002:0000dcd8       ??_C@_0CI@JABDINMC@Buffer?5was?5already?5downloaded?5to@ 1005ccd8     dxerr8:dxerr8.obj
 0002:0000dd00       ??_C@_0EK@HHAOOIGI@Tried?5to?5unload?5an?5object?5that?5w@ 1005cd00     dxerr8:dxerr8.obj
 0002:0000dd50       ??_C@_0EL@HNKEEHFI@Invalid?5download?5id?5was?5used?5in?5@ 1005cd50     dxerr8:dxerr8.obj
 0002:0000dda0       ??_C@_0EF@OADJFHAH@The?5RIFF?5parser?5doesn?8t?5contain?5@ 1005cda0     dxerr8:dxerr8.obj
 0002:0000dde8       ??_C@_0CG@MPOMLMOF@The?5IStream?$CK?5doesn?8t?5support?5Wri@ 1005cde8     dxerr8:dxerr8.obj
 0002:0000de10       ??_C@_0CF@BOEDGBHL@The?5IStream?$CK?5doesn?8t?5support?5See@ 1005ce10     dxerr8:dxerr8.obj
 0002:0000de38       ??_C@_0EE@IILIKHOO@There?5is?5no?5instrument?5in?5the?5co@ 1005ce38     dxerr8:dxerr8.obj
 0002:0000de80       ??_C@_0EB@HLFGFPFJ@Error?5reading?5wave?5data?5from?5DLS@ 1005ce80     dxerr8:dxerr8.obj
 0002:0000dec8       ??_C@_0EL@DHONKPPH@The?5object?5requested?5was?5not?5fou@ 1005cec8     dxerr8:dxerr8.obj
 0002:0000df18       ??_C@_0EB@KHKOHIJJ@Second?5attempt?5to?5load?5a?5DLS?5col@ 1005cf18     dxerr8:dxerr8.obj
 0002:0000df5c       ??_C@_0DN@DACCKPGF@Wave?5chunks?5in?5DLS?5collection?5fi@ 1005cf5c     dxerr8:dxerr8.obj
 0002:0000df9c       ??_C@_0CP@GBGKOEIL@Error?5parsing?5DLS?5collection?4?5Fi@ 1005cf9c     dxerr8:dxerr8.obj
 0002:0000dfd0       ??_C@_0EG@EOJPCOBL@Download?5failed?5due?5to?5inability@ 1005cfd0     dxerr8:dxerr8.obj
 0002:0000e018       ??_C@_0CO@FDGMAEDD@No?5buffer?5was?5prepared?5for?5the?5d@ 1005d018     dxerr8:dxerr8.obj
 0002:0000e048       ??_C@_0DE@CMFLJKFB@Buffer?5is?5not?5large?5enough?5for?5r@ 1005d048     dxerr8:dxerr8.obj
 0002:0000e080       ??_C@_0GK@NBPHMKFM@The?5requested?5device?5is?5already?5@ 1005d080     dxerr8:dxerr8.obj
 0002:0000e0f0       ??_C@_0GO@MGAHKDCH@The?5requested?5operation?5cannot?5b@ 1005d0f0     dxerr8:dxerr8.obj
 0002:0000e160       ??_C@_0GO@KLIGCNGP@An?5unexpected?5error?5was?5returned@ 1005d160     dxerr8:dxerr8.obj
 0002:0000e1d0       ??_C@_0EM@MKBMILCF@The?5GUID?5specified?5in?5an?5audiopa@ 1005d1d0     dxerr8:dxerr8.obj
 0002:0000e220       ??_C@_0FB@KPLHOJMI@Tried?5to?5create?5a?5DSBCAPS_CTRLFX@ 1005d220     dxerr8:dxerr8.obj
 0002:0000e278       ??_C@_0EK@KHGIPBL@Attempt?5to?5use?5DirectSound?58?5fun@ 1005d278     dxerr8:dxerr8.obj
 0002:0000e2c4       ??_C@_0CN@BKMJNJNK@A?5circular?5loop?5of?5send?5effects?5@ 1005d2c4     dxerr8:dxerr8.obj
 0002:0000e2f4       ??_C@_0CF@OJICFBNP@No?5sound?5driver?5is?5available?5for@ 1005d2f4     dxerr8:dxerr8.obj
 0002:0000e31c       ??_C@_0DG@GEIGLDEH@The?5buffer?5memory?5has?5been?5lost?0@ 1005d31c     dxerr8:dxerr8.obj
 0002:0000e358       ??_C@_0EO@ONCGGPFI@Another?5app?5has?5a?5higher?5priorit@ 1005d358     dxerr8:dxerr8.obj
 0002:0000e3a8       ??_C@_0CL@NAGJJKLB@The?5specified?5WAVE?5format?5is?5not@ 1005d3a8     dxerr8:dxerr8.obj
 0002:0000e3d8       ??_C@_0EG@NOFGMCNG@The?5control?5?$CIvol?0?5pan?0?5etc?4?$CJ?5req@ 1005d3d8     dxerr8:dxerr8.obj
 0002:0000e420       ??_C@_0DM@IGHAAEFB@This?5call?5is?5not?5valid?5for?5the?5c@ 1005d420     dxerr8:dxerr8.obj
 0002:0000e460       ??_C@_0FB@OIHCHJOE@The?5caller?5does?5not?5have?5the?5pri@ 1005d460     dxerr8:dxerr8.obj
 0002:0000e4b8       ??_C@_0GH@FKEFEOHE@The?5call?5failed?5because?5resource@ 1005d4b8     dxerr8:dxerr8.obj
 0002:0000e520       ??_C@_0BB@MJIHEKGD@Cannot?5attr?5sort?$AA@ 1005d520     dxerr8:dxerr8.obj
 0002:0000e534       ??_C@_0BH@LFJHCBEB@Skinning?5not?5supported?$AA@ 1005d534     dxerr8:dxerr8.obj
 0002:0000e54c       ??_C@_0BE@DKFJPCDO@Too?5many?5influences?$AA@ 1005d54c     dxerr8:dxerr8.obj
 0002:0000e560       ??_C@_0N@OONCBFLH@Invalid?5data?$AA@ 1005d560     dxerr8:dxerr8.obj
 0002:0000e570       ??_C@_0N@LICNENFN@Invalid?5mesh?$AA@ 1005d570     dxerr8:dxerr8.obj
 0002:0000e580       ??_C@_0N@PLGJEFCC@Invalid?5call?$AA@ 1005d580     dxerr8:dxerr8.obj
 0002:0000e590       ??_C@_0BE@MDDHNFOC@Driver?5invalid?5call?$AA@ 1005d590     dxerr8:dxerr8.obj
 0002:0000e5a4       ??_C@_0BM@LDKPHGGJ@Can?5not?5modify?5index?5buffer?$AA@ 1005d5a4     dxerr8:dxerr8.obj
 0002:0000e5c0       ??_C@_0P@LAKHOBEE@Invalid?5device?$AA@ 1005d5c0     dxerr8:dxerr8.obj
 0002:0000e5d0       ??_C@_09EIKHOPE@More?5data?$AA@ 1005d5d0     dxerr8:dxerr8.obj
 0002:0000e5dc       ??_C@_0M@DPHOJLIL@Device?5lost?$AA@ 1005d5dc     dxerr8:dxerr8.obj
 0002:0000e5e8       ??_C@_0BB@BIJBHCHM@Device?5not?5reset?$AA@ 1005d5e8     dxerr8:dxerr8.obj
 0002:0000e5fc       ??_C@_0O@IAMKGBIO@Not?5available?$AA@ 1005d5fc     dxerr8:dxerr8.obj
 0002:0000e60c       ??_C@_09CCINFMOF@Not?5found?$AA@ 1005d60c     dxerr8:dxerr8.obj
 0002:0000e618       ??_C@_0BG@MLECPLL@Driver?5internal?5error?$AA@ 1005d618     dxerr8:dxerr8.obj
 0002:0000e630       ??_C@_0BM@JHDCEELD@Conflicting?5texture?5palette?$AA@ 1005d630     dxerr8:dxerr8.obj
 0002:0000e64c       ??_C@_0BL@KBGLEMPN@Unsupported?5texture?5filter?$AA@ 1005d64c     dxerr8:dxerr8.obj
 0002:0000e668       ??_C@_0BJ@CBBPPHLF@Conflicting?5render?5state?$AA@ 1005d668     dxerr8:dxerr8.obj
 0002:0000e684       ??_C@_0BJ@FIDNLECG@Unsupported?5factor?5value?$AA@ 1005d684     dxerr8:dxerr8.obj
 0002:0000e6a0       ??_C@_0BL@JGADNLHO@Conflicting?5texture?5filter?$AA@ 1005d6a0     dxerr8:dxerr8.obj
 0002:0000e6bc       ??_C@_0BE@BEIPHDFA@Too?5many?5operations?$AA@ 1005d6bc     dxerr8:dxerr8.obj
 0002:0000e6d0       ??_C@_0BG@HMBEHEJJ@Unsupported?5alpha?5arg?$AA@ 1005d6d0     dxerr8:dxerr8.obj
 0002:0000e6e8       ??_C@_0BM@IMGHGGHP@Unsupported?5alpha?5operation?$AA@ 1005d6e8     dxerr8:dxerr8.obj
 0002:0000e704       ??_C@_0BG@CKJNPCLO@Unsupported?5color?5arg?$AA@ 1005d704     dxerr8:dxerr8.obj
 0002:0000e71c       ??_C@_0BM@FAAILNHA@Unsupported?5color?5operation?$AA@ 1005d71c     dxerr8:dxerr8.obj
 0002:0000e738       ??_C@_0BF@HHNKELBC@Wrong?5texture?5format?$AA@ 1005d738     dxerr8:dxerr8.obj
 0002:0000e750       ??_C@_0M@PJBCFFFB@No?5internet?$AA@ 1005d750     dxerr8:dxerr8.obj
 0002:0000e75c       ??_C@_0P@MLDCFLDF@Bad?5cache?5file?$AA@ 1005d75c     dxerr8:dxerr8.obj
 0002:0000e76c       ??_C@_0N@DMBILCGF@No?5more?5data?$AA@ 1005d76c     dxerr8:dxerr8.obj
 0002:0000e77c       ??_C@_0BH@HDJPIIEH@No?5more?5stream?5handles?$AA@ 1005d77c     dxerr8:dxerr8.obj
 0002:0000e794       ??_C@_0P@LAHKLBBH@Bad?5intrinsics?$AA@ 1005d794     dxerr8:dxerr8.obj
 0002:0000e7a4       ??_C@_0BA@FFCECMCP@No?5more?5objects?$AA@ 1005d7a4     dxerr8:dxerr8.obj
 0002:0000e7b4       ??_C@_0P@DHEBFDOP@Internal?5error?$AA@ 1005d7b4     dxerr8:dxerr8.obj
 0002:0000e7c4       ??_C@_0BD@CACODLFF@Bad?5data?5reference?$AA@ 1005d7c4     dxerr8:dxerr8.obj
 0002:0000e7d8       ??_C@_0P@OLOGKEIM@Bad?5array?5size?$AA@ 1005d7d8     dxerr8:dxerr8.obj
 0002:0000e7e8       ??_C@_0M@JBCEHFPG@No?5template?$AA@ 1005d7e8     dxerr8:dxerr8.obj
 0002:0000e7f4       ??_C@_0M@BLAMFKK@Parse?5error?$AA@ 1005d7f4     dxerr8:dxerr8.obj
 0002:0000e800       ??_C@_08IEJNJKPH@Bad?5file?$AA@ 1005d800     dxerr8:dxerr8.obj
 0002:0000e80c       ??_C@_0BK@CBONIGEJ@Bad?5file?5compression?5type?$AA@ 1005d80c     dxerr8:dxerr8.obj
 0002:0000e828       ??_C@_0BE@MIPBGIFH@Bad?5file?5float?5size?$AA@ 1005d828     dxerr8:dxerr8.obj
 0002:0000e83c       ??_C@_0BB@GMILBKHA@Bad?5file?5version?$AA@ 1005d83c     dxerr8:dxerr8.obj
 0002:0000e850       ??_C@_0O@NDHPKAPM@Bad?5file?5type?$AA@ 1005d850     dxerr8:dxerr8.obj
 0002:0000e860       ??_C@_0N@PBJOIEBG@Bad?5resource?$AA@ 1005d860     dxerr8:dxerr8.obj
 0002:0000e870       ??_C@_0O@INCFIMOF@Url?5not?5found?$AA@ 1005d870     dxerr8:dxerr8.obj
 0002:0000e880       ??_C@_0BD@EGJGMIJC@Resource?5not?5found?$AA@ 1005d880     dxerr8:dxerr8.obj
 0002:0000e894       ??_C@_0P@DBCHBMCI@File?5not?5found?$AA@ 1005d894     dxerr8:dxerr8.obj
 0002:0000e8a4       ??_C@_0N@LFMNELHL@Not?5done?5yet?$AA@ 1005d8a4     dxerr8:dxerr8.obj
 0002:0000e8b4       ??_C@_09LFPPPIFP@Bad?5alloc?$AA@ 1005d8b4     dxerr8:dxerr8.obj
 0002:0000e8c0       ??_C@_0BC@GJHFFMFH@Bad?5stream?5handle?$AA@ 1005d8c0     dxerr8:dxerr8.obj
 0002:0000e8d4       ??_C@_08NLJIFDJO@Bad?5type?$AA@ 1005d8d4     dxerr8:dxerr8.obj
 0002:0000e8e0       ??_C@_09BEFHIPON@Bad?5value?$AA@ 1005d8e0     dxerr8:dxerr8.obj
 0002:0000e8ec       ??_C@_0L@DKPKAAIG@Bad?5object?$AA@ 1005d8ec     dxerr8:dxerr8.obj
 0002:0000e8f8       ??_C@_0GC@OLMCHACP@Surfaces?5created?5by?5one?5direct?5d@ 1005d8f8     dxerr8:dxerr8.obj
 0002:0000e95c       ??_C@_0DK@OCKHMNED@The?5driver?5does?5not?5enumerate?5di@ 1005d95c     dxerr8:dxerr8.obj
 0002:0000e998       ??_C@_0CF@OJEEBDBB@The?5monitor?5does?5not?5have?5EDID?5d@ 1005d998     dxerr8:dxerr8.obj
 0002:0000e9c0       ??_C@_0BN@KDDPOIJO@The?5video?5port?5is?5not?5active?$AA@ 1005d9c0     dxerr8:dxerr8.obj
 0002:0000e9e0       ??_C@_0CC@LCMKBOO@D3D?5has?5not?5yet?5been?5initialized@ 1005d9e0     dxerr8:dxerr8.obj
 0002:0000ea04       ??_C@_0CK@IBKMIKIG@The?5mode?5test?5has?5switched?5to?5a?5@ 1005da04     dxerr8:dxerr8.obj
 0002:0000ea30       ??_C@_0CG@MIFIOLJE@The?5mode?5test?5has?5finished?5execu@ 1005da30     dxerr8:dxerr8.obj
 0002:0000ea58       ??_C@_0DH@NNJOLPBE@The?5data?5has?5expired?5and?5is?5ther@ 1005da58     dxerr8:dxerr8.obj
 0002:0000ea90       ??_C@_0EH@HBNMFFDE@There?5is?5more?5data?5available?5tha@ 1005da90     dxerr8:dxerr8.obj
 0002:0000ead8       ??_C@_0EN@PAMBDIBN@An?5attempt?5was?5made?5to?5page?5unlo@ 1005dad8     dxerr8:dxerr8.obj
 0002:0000eb28       ??_C@_0CN@KNBMEILP@The?5attempt?5to?5page?5unlock?5a?5sur@ 1005db28     dxerr8:dxerr8.obj
 0002:0000eb58       ??_C@_0CL@NGLNPAPG@The?5attempt?5to?5page?5lock?5a?5surfa@ 1005db58     dxerr8:dxerr8.obj
 0002:0000eb88       ??_C@_0HD@FGLBFCJP@An?5attempt?5was?5made?5to?5allocate?5@ 1005db88     dxerr8:dxerr8.obj
 0002:0000ec00       ??_C@_0FL@DKNOJDI@A?5DC?5has?5already?5been?5returned?5f@ 1005dc00     dxerr8:dxerr8.obj
 0002:0000ec5c       ??_C@_0DH@FBNIHHEO@Attempt?5was?5made?5to?5set?5a?5palett@ 1005dc5c     dxerr8:dxerr8.obj
 0002:0000ec98       ??_C@_0FJ@KGICIIAI@Attempt?5was?5made?5to?5create?5or?5se@ 1005dc98     dxerr8:dxerr8.obj
 0002:0000ecf8       ??_C@_0EL@MLDDMBBH@Surface?5is?5an?5optimized?5surface?0@ 1005dcf8     dxerr8:dxerr8.obj
 0002:0000ed48       ??_C@_0FJ@GMGIHANM@Device?5does?5not?5support?5optimize@ 1005dd48     dxerr8:dxerr8.obj
 0002:0000eda8       ??_C@_0FH@KIOGHHFB@The?5requested?5action?5could?5not?5b@ 1005dda8     dxerr8:dxerr8.obj
 0002:0000ee00       ??_C@_0GO@KEDLPJMI@Operation?5could?5not?5be?5carried?5o@ 1005de00     dxerr8:dxerr8.obj
 0002:0000ee70       ??_C@_0DA@JJMNDDNA@The?5display?5is?5currently?5in?5an?5u@ 1005de70     dxerr8:dxerr8.obj
 0002:0000eea0       ??_C@_0DG@NIOIGKI@The?5surface?5being?5used?5is?5not?5a?5@ 1005dea0     dxerr8:dxerr8.obj
 0002:0000eed8       ??_C@_0EO@MLDMACAO@This?5surface?5can?5not?5be?5restored@ 1005ded8     dxerr8:dxerr8.obj
 0002:0000ef28       ??_C@_0EN@IKLJDHPJ@This?5surface?5can?5not?5be?5restored@ 1005df28     dxerr8:dxerr8.obj
 0002:0000ef78       ??_C@_0CJ@PGLCBLIH@No?5DC?5was?5ever?5created?5for?5this?5@ 1005df78     dxerr8:dxerr8.obj
 0002:0000efa8       ??_C@_0OK@LONONGJD@Windows?5can?5not?5create?5any?5more?5@ 1005dfa8     dxerr8:dxerr8.obj
 0002:0000f098       ??_C@_0HM@NHHIDGKF@Surface?5was?5not?5locked?4?5?5An?5atte@ 1005e098     dxerr8:dxerr8.obj
 0002:0000f118       ??_C@_0FA@POJAKNBB@Can?8t?5duplicate?5primary?5?$CG?53D?5sur@ 1005e118     dxerr8:dxerr8.obj
 0002:0000f168       ??_C@_0EC@FMLBJEAK@An?5attempt?5has?5been?5made?5to?5flip@ 1005e168     dxerr8:dxerr8.obj
 0002:0000f1b0       ??_C@_0FH@MJINBAC@An?5attempt?5was?5made?5to?5set?5the?5c@ 1005e1b0     dxerr8:dxerr8.obj
 0002:0000f208       ??_C@_0EE@BJHENODN@returned?5when?5an?5overlay?5member?5@ 1005e208     dxerr8:dxerr8.obj
 0002:0000f250       ??_C@_0GI@IPAHFNIK@returned?5when?5the?5position?5of?5th@ 1005e250     dxerr8:dxerr8.obj
 0002:0000f2b8       ??_C@_0IB@DLAPINFA@returned?5when?5GetOverlayPosition@ 1005e2b8     dxerr8:dxerr8.obj
 0002:0000f33c       ??_C@_0DP@PCNOIDKM@returned?5when?5GetOverlayPosition@ 1005e33c     dxerr8:dxerr8.obj
 0002:0000f37c       ??_C@_0BM@NFFEGJAD@No?5DirectDraw?5ROP?5hardware?4?$AA@ 1005e37c     dxerr8:dxerr8.obj
 0002:0000f398       ??_C@_09NJGNOKHI@No?5blter?4?$AA@ 1005e398     dxerr8:dxerr8.obj
 0002:0000f3a8       ??_C@_0FC@NMKNHING@If?5a?5clipper?5object?5is?5attached?5@ 1005e3a8     dxerr8:dxerr8.obj
 0002:0000f3fc       ??_C@_0DC@PJMIBLJE@No?5hardware?5support?5for?516?5or?525@ 1005e3fc     dxerr8:dxerr8.obj
 0002:0000f430       ??_C@_0CM@OKLOIJNP@No?5palette?5object?5attached?5to?5th@ 1005e430     dxerr8:dxerr8.obj
 0002:0000f460       ??_C@_0HI@DCJNEJCF@The?5CooperativeLevel?5HWND?5has?5al@ 1005e460     dxerr8:dxerr8.obj
 0002:0000f4d8       ??_C@_0GN@LCCJEOLA@HWND?5used?5by?5DirectDraw?5Cooperat@ 1005e4d8     dxerr8:dxerr8.obj
 0002:0000f548       ??_C@_0GH@NENFCBNK@Clipper?5notification?5requires?5an@ 1005e548     dxerr8:dxerr8.obj
 0002:0000f5b0       ??_C@_0CN@CCOALNLM@No?5clipper?5object?5attached?5to?5su@ 1005e5b0     dxerr8:dxerr8.obj
 0002:0000f5e0       ??_C@_0FP@BLEPKEKF@an?5attempt?5was?5made?5to?5set?5a?5cli@ 1005e5e0     dxerr8:dxerr8.obj
 0002:0000f640       ??_C@_0DE@ODDMFACJ@region?5passed?5to?5Clipper?3?3GetCli@ 1005e640     dxerr8:dxerr8.obj
 0002:0000f674       ??_C@_0CC@FHLGGOIA@software?5emulation?5not?5available@ 1005e674     dxerr8:dxerr8.obj
 0002:0000f698       ??_C@_0DD@MLINOAEH@this?5process?5already?5has?5created@ 1005e698     dxerr8:dxerr8.obj
 0002:0000f6d0       ??_C@_0GG@FKMHAJNM@A?5hardware?5only?5DirectDraw?5objec@ 1005e6d0     dxerr8:dxerr8.obj
 0002:0000f738       ??_C@_0FI@GOGCMLHC@A?5DirectDraw?5object?5representing@ 1005e738     dxerr8:dxerr8.obj
 0002:0000f790       ??_C@_0FB@NCEBDCPJ@The?5GUID?5passed?5to?5DirectDrawCre@ 1005e790     dxerr8:dxerr8.obj
 0002:0000f7e8       ??_C@_0EC@IBLKHHAJ@Rectangle?5provided?5was?5not?5horiz@ 1005e7e8     dxerr8:dxerr8.obj
 0002:0000f830       ??_C@_0EG@CIEILGKO@The?5specified?5surface?5type?5requi@ 1005e830     dxerr8:dxerr8.obj
 0002:0000f878       ??_C@_0HB@BMJAPBHK@Informs?5DirectDraw?5that?5the?5prev@ 1005e878     dxerr8:dxerr8.obj
 0002:0000f8ec       ??_C@_0BO@LCPJEMJC@vertical?5blank?5is?5in?5progress?$AA@ 1005e8ec     dxerr8:dxerr8.obj
 0002:0000f90c       ??_C@_0CL@FEPBDNCF@The?5specified?5stream?5contains?5in@ 1005e90c     dxerr8:dxerr8.obj
 0002:0000f938       ??_C@_0ED@NPGCMAGE@Bitmask?5in?5the?5pixel?5format?5requ@ 1005e938     dxerr8:dxerr8.obj
 0002:0000f980       ??_C@_0FG@KBFCKKBJ@Size?5requested?5by?5DirectDraw?5is?5@ 1005e980     dxerr8:dxerr8.obj
 0002:0000f9d8       ??_C@_0CM@PGPNKPOC@Width?5requested?5by?5DirectDraw?5is@ 1005e9d8     dxerr8:dxerr8.obj
 0002:0000fa04       ??_C@_0DE@DKLEJLCP@Pixel?5format?5requested?5is?5unsupp@ 1005ea04     dxerr8:dxerr8.obj
 0002:0000fa38       ??_C@_0CN@JBIGMBNK@Height?5requested?5by?5DirectDraw?5i@ 1005ea38     dxerr8:dxerr8.obj
 0002:0000fa68       ??_C@_0BBC@FBGCGAHF@Access?5to?5this?5surface?5is?5being?5@ 1005ea68     dxerr8:dxerr8.obj
 0002:0000fb7c       ??_C@_0DH@BCDNLJGO@Access?5to?5Surface?5refused?5becaus@ 1005eb7c     dxerr8:dxerr8.obj
 0002:0000fbb8       ??_C@_0JO@ILPIPFCO@Access?5to?5this?5surface?5is?5being?5@ 1005ebb8     dxerr8:dxerr8.obj
 0002:0000fc58       ??_C@_0CH@NBHJPNMH@The?5requested?5surface?5is?5not?5att@ 1005ec58     dxerr8:dxerr8.obj
 0002:0000fc80       ??_C@_0GB@PKDGEDIE@Access?5to?5this?5surface?5is?5being?5@ 1005ec80     dxerr8:dxerr8.obj
 0002:0000fce8       ??_C@_0GB@ILOMPIOP@Access?5to?5this?5palette?5is?5being?5@ 1005ece8     dxerr8:dxerr8.obj
 0002:0000fd4c       ??_C@_0CP@OBDMAKNP@No?5src?5color?5key?5specified?5for?5t@ 1005ed4c     dxerr8:dxerr8.obj
 0002:0000fd80       ??_C@_0EJ@MJJAHJI@This?5surface?5is?5already?5attached@ 1005ed80     dxerr8:dxerr8.obj
 0002:0000fdd0       ??_C@_0FG@HFCBDGGN@This?5surface?5is?5already?5a?5depend@ 1005edd0     dxerr8:dxerr8.obj
 0002:0000fe28       ??_C@_0DM@BBGHEIFE@Can?5only?5have?5ony?5color?5key?5acti@ 1005ee28     dxerr8:dxerr8.obj
 0002:0000fe68       ??_C@_0HO@ONPEKNIP@Overlay?5surfaces?5could?5not?5be?5z?5@ 1005ee68     dxerr8:dxerr8.obj
 0002:0000fee8       ??_C@_0EM@EELGIDIE@The?5hardware?5needed?5for?5the?5requ@ 1005eee8     dxerr8:dxerr8.obj
 0002:0000ff34       ??_C@_0BE@BCNDIAIA@Out?5of?5video?5memory?$AA@ 1005ef34     dxerr8:dxerr8.obj
 0002:0000ff48       ??_C@_0CL@KKOFAEIC@hardware?5does?5not?5support?5clippe@ 1005ef48     dxerr8:dxerr8.obj
 0002:0000ff78       ??_C@_0FM@PNADPFKE@Operation?5could?5not?5be?5carried?5o@ 1005ef78     dxerr8:dxerr8.obj
 0002:0000ffd8       ??_C@_0GA@HGPIPOPG@DirectDraw?5Surface?5is?5not?5in?58?5b@ 1005efd8     dxerr8:dxerr8.obj
 0002:00010038       ??_C@_0GG@EKIEHJAM@Operation?5could?5not?5be?5carried?5o@ 1005f038     dxerr8:dxerr8.obj
 0002:000100a0       ??_C@_0HE@PKELAKG@Operation?5could?5not?5be?5carried?5o@ 1005f0a0     dxerr8:dxerr8.obj
 0002:00010118       ??_C@_0HG@LFKOEPKO@DirectDrawSurface?5is?5not?5in?54?5bi@ 1005f118     dxerr8:dxerr8.obj
 0002:00010190       ??_C@_0GM@JNJEAEGI@Operation?5could?5not?5be?5carried?5o@ 1005f190     dxerr8:dxerr8.obj
 0002:00010200       ??_C@_0FP@JDGAGAEO@Operation?5could?5not?5be?5carried?5o@ 1005f200     dxerr8:dxerr8.obj
 0002:00010260       ??_C@_0FH@ONBADNOM@Operation?5could?5not?5be?5carried?5o@ 1005f260     dxerr8:dxerr8.obj
 0002:000102b8       ??_C@_0GK@IPGIBAK@DirectDrawSurface?5is?5not?5in?54?5bi@ 1005f2b8     dxerr8:dxerr8.obj
 0002:00010328       ??_C@_0IB@LGCPIFIM@Operation?5could?5not?5be?5carried?5o@ 1005f328     dxerr8:dxerr8.obj
 0002:000103b0       ??_C@_0FG@OFJHNOHB@Operation?5could?5not?5be?5carried?5o@ 1005f3b0     dxerr8:dxerr8.obj
 0002:00010408       ??_C@_0BN@OCIGLCLO@Requested?5item?5was?5not?5found?$AA@ 1005f408     dxerr8:dxerr8.obj
 0002:00010428       ??_C@_0FO@LFKMBAOB@Operation?5could?5not?5be?5carried?5o@ 1005f428     dxerr8:dxerr8.obj
 0002:00010488       ??_C@_0BJ@FKFKNCIF@There?5is?5no?5GDI?5present?4?$AA@ 1005f488     dxerr8:dxerr8.obj
 0002:000104a8       ??_C@_0FP@MOAIOPAE@Operation?5could?5not?5be?5carried?5o@ 1005f4a8     dxerr8:dxerr8.obj
 0002:00010508       ??_C@_0DL@NCMACPCF@No?5DirectDraw?5support?5possible?5w@ 1005f508     dxerr8:dxerr8.obj
 0002:00010548       ??_C@_0GM@BMBFBGIP@Operation?5requires?5the?5applicati@ 1005f548     dxerr8:dxerr8.obj
 0002:000105b4       ??_C@_0CM@NHMMBKAL@Flipping?5visible?5surfaces?5is?5not@ 1005f5b4     dxerr8:dxerr8.obj
 0002:000105e0       ??_C@_0CL@IILHAEHG@Surface?5doesn?8t?5currently?5have?5a@ 1005f5e0     dxerr8:dxerr8.obj
 0002:0001060c       ??_C@_0BH@CGHKOHGE@no?5clip?5list?5available?$AA@ 1005f60c     dxerr8:dxerr8.obj
 0002:00010628       ??_C@_0GH@BOIPDPM@Operation?5could?5not?5be?5carried?5o@ 1005f628     dxerr8:dxerr8.obj
 0002:00010690       ??_C@_0FK@PACAMKCG@Create?5function?5called?5without?5D@ 1005f690     dxerr8:dxerr8.obj
 0002:000106f0       ??_C@_0GH@FGMEPHD@Operation?5could?5not?5be?5carried?5o@ 1005f6f0     dxerr8:dxerr8.obj
 0002:00010758       ??_C@_0EL@ODIFPDDB@Operation?5could?5not?5be?5carried?5o@ 1005f758     dxerr8:dxerr8.obj
 0002:000107a4       ??_C@_0BI@KHKAHFJG@There?5is?5no?53D?5present?4?$AA@ 1005f7a4     dxerr8:dxerr8.obj
 0002:000107c0       ??_C@_0GI@JJNDILEJ@Operation?5could?5not?5be?5carried?5o@ 1005f7c0     dxerr8:dxerr8.obj
 0002:00010828       ??_C@_0FN@PPEGPILJ@Operation?5could?5not?5be?5carried?5o@ 1005f828     dxerr8:dxerr8.obj
 0002:00010888       ??_C@_0CA@LDCKNMJJ@Rectangle?5provided?5was?5invalid?4?$AA@ 1005f888     dxerr8:dxerr8.obj
 0002:000108a8       ??_C@_0CP@MJOLGEID@DirectDraw?5does?5not?5support?5prov@ 1005f8a8     dxerr8:dxerr8.obj
 0002:000108d8       ??_C@_0CP@NFGPPABH@DirectDraw?5does?5not?5support?5the?5@ 1005f8d8     dxerr8:dxerr8.obj
 0002:00010908       ??_C@_0EF@KJAIAJHH@DirectDraw?5received?5a?5pointer?5th@ 1005f908     dxerr8:dxerr8.obj
 0002:00010950       ??_C@_0CG@ODCNAFHA@pixel?5format?5was?5invalid?5as?5spec@ 1005f950     dxerr8:dxerr8.obj
 0002:00010978       ??_C@_0ED@BFFHDLIA@One?5or?5more?5of?5the?5caps?5bits?5pas@ 1005f978     dxerr8:dxerr8.obj
 0002:000109bc       ??_C@_0CE@PMBNGEOI@Support?5is?5currently?5not?5availab@ 1005f9bc     dxerr8:dxerr8.obj
 0002:000109e0       ??_C@_0EG@IAEAGAAM@An?5exception?5was?5encountered?5whi@ 1005f9e0     dxerr8:dxerr8.obj
 0002:00010a28       ??_C@_0EB@LCFDNCCF@Height?5of?5rectangle?5provided?5is?5@ 1005fa28     dxerr8:dxerr8.obj
 0002:00010a70       ??_C@_0FA@CJKLCPNO@Unable?5to?5match?5primary?5surface?5@ 1005fa70     dxerr8:dxerr8.obj
 0002:00010ac0       ??_C@_0DN@LEFGIDN@This?5surface?5can?5not?5be?5detached@ 1005fac0     dxerr8:dxerr8.obj
 0002:00010b00       ??_C@_0M@KGOMFAGJ@User?5cancel?$AA@ 1005fb00     dxerr8:dxerr8.obj
 0002:00010b0c       ??_C@_0DL@BBJLNAKM@This?5surface?5can?5not?5be?5attached@ 1005fb0c     dxerr8:dxerr8.obj
 0002:00010b48       ??_C@_0O@MGDGCKO@Uninitialized?$AA@ 1005fb48     dxerr8:dxerr8.obj
 0002:00010b58       ??_C@_0P@BDCFMGMJ@Send?5too?5large?$AA@ 1005fb58     dxerr8:dxerr8.obj
 0002:00010b68       ??_C@_0N@GJLMIAHJ@Session?5full?$AA@ 1005fb68     dxerr8:dxerr8.obj
 0002:00010b78       ??_C@_0L@ILNPDBPF@Table?5full?$AA@ 1005fb78     dxerr8:dxerr8.obj
 0002:00010b84       ??_C@_09OGKCMDDI@Timed?5out?$AA@ 1005fb84     dxerr8:dxerr8.obj
 0002:00010b90       ??_C@_0BF@CCFOOLFB@Player?5not?5reachable?$AA@ 1005fb90     dxerr8:dxerr8.obj
 0002:00010ba8       ??_C@_08MOAFMBPP@Not?5host?$AA@ 1005fba8     dxerr8:dxerr8.obj
 0002:00010bb4       ??_C@_09NNPKCNML@Not?5ready?$AA@ 1005fbb4     dxerr8:dxerr8.obj
 0002:00010bc0       ??_C@_0P@EDONKIPN@Not?5registered?$AA@ 1005fbc0     dxerr8:dxerr8.obj
 0002:00010bd0       ??_C@_0M@EGIJAAKK@Player?5lost?$AA@ 1005fbd0     dxerr8:dxerr8.obj
 0002:00010bdc       ??_C@_0M@GOGBAOIF@Not?5allowed?$AA@ 1005fbdc     dxerr8:dxerr8.obj
 0002:00010be8       ??_C@_0O@IIKJJNKF@No?5connection?$AA@ 1005fbe8     dxerr8:dxerr8.obj
 0002:00010bf8       ??_C@_0P@LAIIOFHI@No?5host?5player?$AA@ 1005fbf8     dxerr8:dxerr8.obj
 0002:00010c08       ??_C@_0BL@GHEEBPND@No?5more?5address?5components?$AA@ 1005fc08     dxerr8:dxerr8.obj
 0002:00010c24       ??_C@_0M@MPFDJHOM@No?5response?$AA@ 1005fc24     dxerr8:dxerr8.obj
 0002:00010c30       ??_C@_07NBHDBGON@No?5caps?$AA@ 1005fc30     dxerr8:dxerr8.obj
 0002:00010c38       ??_C@_0P@BFDKMFCL@Invalid?5string?$AA@ 1005fc38     dxerr8:dxerr8.obj
 0002:00010c48       ??_C@_0M@JCBPHPEG@Invalid?5url?$AA@ 1005fc48     dxerr8:dxerr8.obj
 0002:00010c54       ??_C@_0BA@GHAKPKJA@Invalid?5version?$AA@ 1005fc54     dxerr8:dxerr8.obj
 0002:00010c64       ??_C@_0BB@DJNGMPIE@Invalid?5priority?$AA@ 1005fc64     dxerr8:dxerr8.obj
 0002:00010c78       ??_C@_0BC@NEMBHIDN@Invalid?5interface?$AA@ 1005fc78     dxerr8:dxerr8.obj
 0002:00010c8c       ??_C@_0P@BDLKGDCN@Invalid?5object?$AA@ 1005fc8c     dxerr8:dxerr8.obj
 0002:00010c9c       ??_C@_0BB@GKDCDICO@Invalid?5password?$AA@ 1005fc9c     dxerr8:dxerr8.obj
 0002:00010cb0       ??_C@_0P@IHOOOMHI@Invalid?5player?$AA@ 1005fcb0     dxerr8:dxerr8.obj
 0002:00010cc0       ??_C@_0BB@PNJHBDFB@Invalid?5instance?$AA@ 1005fcc0     dxerr8:dxerr8.obj
 0002:00010cd4       ??_C@_0O@IHOLGAKK@Invalid?5flags?$AA@ 1005fcd4     dxerr8:dxerr8.obj
 0002:00010ce4       ??_C@_0O@EHDHMJAC@Invalid?5group?$AA@ 1005fce4     dxerr8:dxerr8.obj
 0002:00010cf4       ??_C@_0P@EFDAIKIF@Invalid?5handle?$AA@ 1005fcf4     dxerr8:dxerr8.obj
 0002:00010d04       ??_C@_0BF@BFJDNCBJ@Invalid?5host?5address?$AA@ 1005fd04     dxerr8:dxerr8.obj
 0002:00010d1c       ??_C@_0BC@HKBIKIJA@Invalid?5end?5point?$AA@ 1005fd1c     dxerr8:dxerr8.obj
 0002:00010d30       ??_C@_0BH@LAAGKOAG@Invalid?5address?5format?$AA@ 1005fd30     dxerr8:dxerr8.obj
 0002:00010d48       ??_C@_0BE@DIPINGKH@Invalid?5application?$AA@ 1005fd48     dxerr8:dxerr8.obj
 0002:00010d5c       ??_C@_0BA@OEOIKJGO@Invalid?5command?$AA@ 1005fd5c     dxerr8:dxerr8.obj
 0002:00010d6c       ??_C@_0BH@LDLNAHGI@Invalid?5device?5address?$AA@ 1005fd6c     dxerr8:dxerr8.obj
 0002:00010d84       ??_C@_0BD@HJDPCGEH@Incomplete?5address?$AA@ 1005fd84     dxerr8:dxerr8.obj
 0002:00010d98       ??_C@_0BA@OFKPHIIJ@Group?5not?5empty?$AA@ 1005fd98     dxerr8:dxerr8.obj
 0002:00010da8       ??_C@_07LCGEFPGB@Hosting?$AA@ 1005fda8     dxerr8:dxerr8.obj
 0002:00010db0       ??_C@_0BJ@JHCAPMKC@Host?5rejected?5connection?$AA@ 1005fdb0     dxerr8:dxerr8.obj
 0002:00010dcc       ??_C@_0BI@PDFBJONH@Host?5terminated?5session?$AA@ 1005fdcc     dxerr8:dxerr8.obj
 0002:00010de4       ??_C@_0BI@HLNIABEO@Enum?5response?5too?5large?$AA@ 1005fde4     dxerr8:dxerr8.obj
 0002:00010dfc       ??_C@_0L@NKGNILAL@Conversion?$AA@ 1005fdfc     dxerr8:dxerr8.obj
 0002:00010e08       ??_C@_0P@MDBBGOGL@Data?5too?5large?$AA@ 1005fe08     dxerr8:dxerr8.obj
 0002:00010e18       ??_C@_0P@BFHEFHJC@Does?5not?5exist?$AA@ 1005fe18     dxerr8:dxerr8.obj
 0002:00010e28       ??_C@_0BC@IOOHIMIO@Duplicate?5command?$AA@ 1005fe28     dxerr8:dxerr8.obj
 0002:00010e3c       ??_C@_0BI@GDGKKDCB@End?5point?5not?5receiving?$AA@ 1005fe3c     dxerr8:dxerr8.obj
 0002:00010e54       ??_C@_0BF@NBHAFDBB@Enum?5query?5too?5large?$AA@ 1005fe54     dxerr8:dxerr8.obj
 0002:00010e6c       ??_C@_0P@IJBIKKDP@Can?5not?5cancel?$AA@ 1005fe6c     dxerr8:dxerr8.obj
 0002:00010e7c       ??_C@_0BC@HCJPPMMG@Cant?5create?5group?$AA@ 1005fe7c     dxerr8:dxerr8.obj
 0002:00010e90       ??_C@_0BD@BLNCECOE@Cant?5create?5player?$AA@ 1005fe90     dxerr8:dxerr8.obj
 0002:00010ea4       ??_C@_0BI@HKHKCJP@Cant?5launch?5application?$AA@ 1005fea4     dxerr8:dxerr8.obj
 0002:00010ebc       ??_C@_0L@NPJJHNMF@Connecting?$AA@ 1005febc     dxerr8:dxerr8.obj
 0002:00010ec8       ??_C@_0BB@OLKJDAH@Buffer?5too?5small?$AA@ 1005fec8     dxerr8:dxerr8.obj
 0002:00010edc       ??_C@_0L@HANJEPIC@Addressing?$AA@ 1005fedc     dxerr8:dxerr8.obj
 0002:00010ee8       ??_C@_0BA@CMGKMNNF@Already?5closing?$AA@ 1005fee8     dxerr8:dxerr8.obj
 0002:00010ef8       ??_C@_0BC@GIMHDJLL@Already?5connected?$AA@ 1005fef8     dxerr8:dxerr8.obj
 0002:00010f0c       ??_C@_0BG@IOIKOEGG@Already?5disconnecting?$AA@ 1005ff0c     dxerr8:dxerr8.obj
 0002:00010f24       ??_C@_0BE@LNLBJNNO@Already?5initialized?$AA@ 1005ff24     dxerr8:dxerr8.obj
 0002:00010f38       ??_C@_0BD@ICHBHOK@Already?5registered?$AA@ 1005ff38     dxerr8:dxerr8.obj
 0002:00010f4c       ??_C@_07LCKDCBKK@Aborted?$AA@ 1005ff4c     dxerr8:dxerr8.obj
 0002:00010f54       ??_C@_0O@JDGJMEPC@Locked?5buffer?$AA@ 1005ff54     dxerr8:dxerr8.obj
 0002:00010f64       ??_C@_0P@OJCMKJBF@Invalid?5buffer?$AA@ 1005ff64     dxerr8:dxerr8.obj
 0002:00010f74       ??_C@_0BF@DGEOIIJ@No?5rec?5vol?5available?$AA@ 1005ff74     dxerr8:dxerr8.obj
 0002:00010f8c       ??_C@_09MCMGDMCA@User?5back?$AA@ 1005ff8c     dxerr8:dxerr8.obj
 0002:00010f98       ??_C@_0BE@MLLEEMED@Transport?5no?5player?$AA@ 1005ff98     dxerr8:dxerr8.obj
 0002:00010fac       ??_C@_0BF@FFPBJENF@Transport?5no?5session?$AA@ 1005ffac     dxerr8:dxerr8.obj
 0002:00010fc4       ??_C@_0BD@GPJMAFLF@Transport?5not?5init?$AA@ 1005ffc4     dxerr8:dxerr8.obj
 0002:00010fd8       ??_C@_0M@DHHGLLPK@No?5callback?$AA@ 1005ffd8     dxerr8:dxerr8.obj
 0002:00010fe4       ??_C@_0N@IGICHJNN@No?5transport?$AA@ 1005ffe4     dxerr8:dxerr8.obj
 0002:00010ff4       ??_C@_0M@OJIBHFOA@Initialized?$AA@ 1005fff4     dxerr8:dxerr8.obj
 0002:00011000       ??_C@_0BF@LOJHAHJO@Incompatible?5version?$AA@ 10060000     dxerr8:dxerr8.obj
 0002:00011018       ??_C@_09FEEAKPKH@Run?5setup?$AA@ 10060018     dxerr8:dxerr8.obj
 0002:00011024       ??_C@_0L@JMICFNB@Send?5error?$AA@ 10060024     dxerr8:dxerr8.obj
 0002:00011030       ??_C@_0BG@CLFPAIPJ@Playback?5system?5error?$AA@ 10060030     dxerr8:dxerr8.obj
 0002:00011048       ??_C@_0BE@KPJBJBJK@Record?5system?5error?$AA@ 10060048     dxerr8:dxerr8.obj
 0002:0001105c       ??_C@_0M@DCMIIFGA@Not?5hosting?$AA@ 1006005c     dxerr8:dxerr8.obj
 0002:00011068       ??_C@_0N@JDAHGBLC@Not?5buffered?$AA@ 10060068     dxerr8:dxerr8.obj
 0002:00011078       ??_C@_0BB@JJLDNLMF@Already?5buffered?$AA@ 10060078     dxerr8:dxerr8.obj
 0002:0001108c       ??_C@_0M@NEEENAEO@No?53d?5sound?$AA@ 1006008c     dxerr8:dxerr8.obj
 0002:00011098       ??_C@_0BA@GEILFDJB@Connect?5aborted?$AA@ 10060098     dxerr8:dxerr8.obj
 0002:000110a8       ??_C@_08PAFJCNGP@Time?5out?$AA@ 100600a8     dxerr8:dxerr8.obj
 0002:000110b4       ??_C@_0BD@NDDDF@Sound?5init?5failure?$AA@ 100600b4     dxerr8:dxerr8.obj
 0002:000110c8       ??_C@_0BA@FCFKCGPJ@Already?5pending?$AA@ 100600c8     dxerr8:dxerr8.obj
 0002:000110d8       ??_C@_0BK@DJJOLLBG@Compression?5not?5supported?$AA@ 100600d8     dxerr8:dxerr8.obj
 0002:000110f4       ??_C@_0BD@PLPBGNMG@Transport?5not?5host?$AA@ 100600f4     dxerr8:dxerr8.obj
 0002:00011108       ??_C@_0P@OODLBMN@Invalid?5target?$AA@ 10060108     dxerr8:dxerr8.obj
 0002:00011118       ??_C@_09NJLBODLJ@Connected?$AA@ 10060118     dxerr8:dxerr8.obj
 0002:00011124       ??_C@_0O@KGKMGJJO@Not?5connected?$AA@ 10060124     dxerr8:dxerr8.obj
 0002:00011134       ??_C@_0BB@OKJBOPIP@Connect?5aborting?$AA@ 10060134     dxerr8:dxerr8.obj
 0002:00011148       ??_C@_0BA@DOCJNCKG@Not?5initialized?$AA@ 10060148     dxerr8:dxerr8.obj
 0002:00011158       ??_C@_0N@IJMJFDDH@Session?5lost?$AA@ 10060158     dxerr8:dxerr8.obj
 0002:00011168       ??_C@_0BB@NBIODJFA@No?5voice?5session?$AA@ 10060168     dxerr8:dxerr8.obj
 0002:0001117c       ??_C@_0BA@DADPBCNM@Connection?5lost?$AA@ 1006017c     dxerr8:dxerr8.obj
 0002:0001118c       ??_C@_09FBNMMHMJ@Exception?$AA@ 1006018c     dxerr8:dxerr8.obj
 0002:00011198       ??_C@_0FC@JKEOGOBE@The?5application?5was?5written?5for?5@ 10060198     dxerr8:dxerr8.obj
 0002:000111f0       ??_C@_0EL@PGKNOKIL@The?5specified?5property?5ID?5is?5not@ 100601f0     dxerr8:dxerr8.obj
 0002:0001123c       ??_C@_0CN@NFGMPPBI@The?5Specified?5property?5set?5is?5no@ 1006023c     dxerr8:dxerr8.obj
 0002:0001126c       ??_C@_0CD@LPKILENK@This?5object?5is?5already?5initializ@ 1006026c     dxerr8:dxerr8.obj
 0002:00011290       ??_C@_0DJ@OLJPAKH@The?5application?5requires?5a?5newer@ 10060290     dxerr8:dxerr8.obj
 0002:000112cc       ??_C@_0DK@OBLIOAMB@An?5invalid?5parameter?5was?5passed?5@ 100602cc     dxerr8:dxerr8.obj
 0002:00011308       ??_C@_0HF@GBNFACBO@The?5object?5could?5not?5be?5created?5@ 10060308     dxerr8:dxerr8.obj
 0002:00011380       ??_C@_0EA@ONANPFNB@The?5operation?5cannot?5be?5performe@ 10060380     dxerr8:dxerr8.obj
 0002:000113c0       ??_C@_0P@EFMPFNBN@No?5more?5items?4?$AA@ 100603c0     dxerr8:dxerr8.obj
 0002:000113d0       ??_C@_0DN@KMGMMLHF@Access?5to?5the?5device?5has?5been?5lo@ 100603d0     dxerr8:dxerr8.obj
 0002:00011410       ??_C@_0BB@GAPJAJOJ@Access?5is?5denied?$AA@ 10060410     dxerr8:dxerr8.obj
 0002:00011428       ??_C@_0EB@HMPBFFNH@The?5operation?5cannot?5be?5performe@ 10060428     dxerr8:dxerr8.obj
 0002:0001146c       ??_C@_0BC@FPMNDDMD@Ran?5out?5of?5memory?$AA@ 1006046c     dxerr8:dxerr8.obj
 0002:00011480       ??_C@_0CF@DLMJAOLG@This?5object?5has?5not?5been?5initial@ 10060480     dxerr8:dxerr8.obj
 0002:000114a8       ??_C@_0CF@DGOMOPNJ@The?5requested?5object?5does?5not?5ex@ 100604a8     dxerr8:dxerr8.obj
 0002:000114d0       ??_C@_0BJ@NHOBODPE@Device?5installer?5errors?4?$AA@ 100604d0     dxerr8:dxerr8.obj
 0002:000114f0       ??_C@_0FA@EKGONBFH@Registry?5entry?5or?5DLL?5for?5class?5@ 100604f0     dxerr8:dxerr8.obj
 0002:00011540       ??_C@_0CK@JJCEANAJ@The?5user?5cancelled?5the?5install?5o@ 10060540     dxerr8:dxerr8.obj
 0002:00011570       ??_C@_0FF@HFJIDMEP@The?5INF?5file?5for?5the?5selected?5de@ 10060570     dxerr8:dxerr8.obj
 0002:000115c8       ??_C@_0BN@DFCJGEOE@A?5registry?5entry?5is?5corrupt?4?$AA@ 100605c8     dxerr8:dxerr8.obj
 0002:000115e8       ??_C@_0LJ@HFOFIEGK@Device?5driver?9specific?5codes?4?5Un@ 100605e8     dxerr8:dxerr8.obj
 0002:000116a4       ??_C@_0DE@BOIPBPGJ@An?5operation?5failed?5due?5to?5a?5cer@ 100606a4     dxerr8:dxerr8.obj
 0002:000116d8       ??_C@_0IK@NOKFNAID@IPinFlowControl?3?3Block?$CI?$CJ?5has?5bee@ 100606d8     dxerr8:dxerr8.obj
 0002:00011768       ??_C@_0GL@EOHKKFFC@This?5thread?5has?5already?5blocked?5@ 10060768     dxerr8:dxerr8.obj
 0002:000117d4       ??_C@_0CK@IONJBFHP@There?5is?5currently?5no?5resume?5inf@ 100607d4     dxerr8:dxerr8.obj
 0002:00011800       ??_C@_0DH@DALGDGPA@The?5specified?5path?5does?5not?5poin@ 10060800     dxerr8:dxerr8.obj
 0002:00011838       ??_C@_0KF@PBIMNBHE@The?5operation?5depends?5on?5the?5cur@ 10060838     dxerr8:dxerr8.obj
 0002:000118e0       ??_C@_0DJ@NDDINHJP@The?5specified?5stream?5is?5disabled@ 100608e0     dxerr8:dxerr8.obj
 0002:0001191c       ??_C@_0DD@NPHGAPPL@Frame?5step?5is?5not?5supported?5on?5t@ 1006091c     dxerr8:dxerr8.obj
 0002:00011950       ??_C@_0CK@OGFEMFKM@The?5current?5audio?5is?5not?5karaoke@ 10060950     dxerr8:dxerr8.obj
 0002:0001197c       ??_C@_0CI@FEMHMOGJ@The?5current?5parental?5level?5was?5t@ 1006097c     dxerr8:dxerr8.obj
 0002:000119a8       ??_C@_0EI@HAIMBGHD@Currently?5there?5is?5no?5GoUp?5?$CIAnne@ 100609a8     dxerr8:dxerr8.obj
 0002:000119f0       ??_C@_0DD@COFMOONE@The?5requested?5DVD?5stream?5attribu@ 100609f0     dxerr8:dxerr8.obj
 0002:00011a24       ??_C@_0DG@JJAPKMAL@The?5region?5was?5not?5compatible?5wi@ 10060a24     dxerr8:dxerr8.obj
 0002:00011a5c       ??_C@_0CJ@ONONFJKD@The?5state?5data?5is?5from?5a?5differe@ 10060a5c     dxerr8:dxerr8.obj
 0002:00011a88       ??_C@_0BM@HLFAOGDD@The?5state?5data?5was?5corrupt?4?$AA@ 10060a88     dxerr8:dxerr8.obj
 0002:00011aa4       ??_C@_0CP@MNHNFJKA@The?5data?5did?5not?5contain?5a?5recog@ 10060aa4     dxerr8:dxerr8.obj
 0002:00011ad8       ??_C@_0EA@PEBPGFPF@The?5specified?5command?5was?5either@ 10060ad8     dxerr8:dxerr8.obj
 0002:00011b18       ??_C@_0CC@IMHICAE@The?5specified?5menu?5doesn?8t?5exist@ 10060b18     dxerr8:dxerr8.obj
 0002:00011b40       ??_C@_0EB@OBLPNMIO@The?5operation?5cannot?5be?5performe@ 10060b40     dxerr8:dxerr8.obj
 0002:00011b84       ??_C@_0DM@JIPBICOD@This?5object?5cannot?5be?5used?5anymo@ 10060b84     dxerr8:dxerr8.obj
 0002:00011bc0       ??_C@_0GN@MGCJBLFO@Copy?5protection?5cannot?5be?5enable@ 10060bc0     dxerr8:dxerr8.obj
 0002:00011c30       ??_C@_0FH@NJOOAMMM@Version?5number?5of?5DirectDraw?5not@ 10060c30     dxerr8:dxerr8.obj
 0002:00011c88       ??_C@_0EK@EFLKFKOL@DVD?9Video?5playback?5graph?5could?5n@ 10060c88     dxerr8:dxerr8.obj
 0002:00011cd4       ??_C@_0CK@ENDDNCBN@DVD?9Video?5playback?5graph?5buildin@ 10060cd4     dxerr8:dxerr8.obj
 0002:00011d00       ??_C@_0DB@CAJGEIJG@DVD?9Video?5playback?5graph?5has?5not@ 10060d00     dxerr8:dxerr8.obj
 0002:00011d38       ??_C@_0IA@MBBIIGMN@The?5specified?5button?5is?5invalid?5@ 10060d38     dxerr8:dxerr8.obj
 0002:00011db8       ??_C@_0DH@NDADHMNJ@This?5Operation?5is?5not?5permitted?5@ 10060db8     dxerr8:dxerr8.obj
 0002:00011df0       ??_C@_0DO@GLJPNHEP@This?5User?5Operation?5is?5inhibited@ 10060df0     dxerr8:dxerr8.obj
 0002:00011e30       ??_C@_0EF@GIJIKINM@No?5Capture?5hardware?5is?5available@ 10060e30     dxerr8:dxerr8.obj
 0002:00011e78       ??_C@_0EH@KCEPAFE@No?5VideoPort?5hardware?5is?5availab@ 10060e78     dxerr8:dxerr8.obj
 0002:00011ec0       ??_C@_0IJ@MIJNGCBP@Either?5DirectDraw?5has?5not?5been?5i@ 10060ec0     dxerr8:dxerr8.obj
 0002:00011f4c       ??_C@_0DJ@KGLODDLI@The?5VideoPort?5connection?5negotia@ 10060f4c     dxerr8:dxerr8.obj
 0002:00011f88       ??_C@_0HC@KLOEHNHP@There?5is?5not?5enough?5Video?5Memory@ 10060f88     dxerr8:dxerr8.obj
 0002:00012000       ??_C@_0EO@FPDKNHPP@The?5Video?5CD?5can?8t?5be?5read?5corre@ 10061000     dxerr8:dxerr8.obj
 0002:00012050       ??_C@_0DO@LDEODCKD@Pins?5cannot?5connect?5due?5to?5not?5s@ 10061050     dxerr8:dxerr8.obj
 0002:00012090       ??_C@_0DJ@LFPJEHDE@Cannot?5play?5back?5the?5file?4?5?5The?5@ 10061090     dxerr8:dxerr8.obj
 0002:000120cc       ??_C@_0BP@PCEDLIME@The?5buffer?5is?5not?5full?5enough?4?$AA@ 100610cc     dxerr8:dxerr8.obj
 0002:000120f0       ??_C@_0FO@MPLNHMCD@The?5connection?5cannot?5be?5made?5be@ 100610f0     dxerr8:dxerr8.obj
 0002:00012150       ??_C@_0GJ@HPKHMPBE@Cannot?5get?5or?5set?5time?5related?5i@ 10061150     dxerr8:dxerr8.obj
 0002:000121c0       ??_C@_0FE@HNBMGIC@Cannot?5perform?5the?5requested?5fun@ 100611c0     dxerr8:dxerr8.obj
 0002:00012218       ??_C@_0FN@MOELHLEI@ActiveMovie?5cannot?5play?5this?5vid@ 10061218     dxerr8:dxerr8.obj
 0002:00012278       ??_C@_0EG@HDJAADCH@Cannot?5play?5back?5the?5video?5strea@ 10061278     dxerr8:dxerr8.obj
 0002:000122c0       ??_C@_0EG@EENBBBLN@Cannot?5play?5back?5the?5audio?5strea@ 100612c0     dxerr8:dxerr8.obj
 0002:00012308       ??_C@_0DH@HFJCECBC@ActiveMovie?5cannot?5play?5MPEG?5mov@ 10061308     dxerr8:dxerr8.obj
 0002:00012340       ??_C@_0GG@BNPOLCON@Cannot?5play?5back?5the?5audio?5strea@ 10061340     dxerr8:dxerr8.obj
 0002:000123a8       ??_C@_0DJ@HPNMOPGB@Cannot?5change?5balance?5because?5au@ 100613a8     dxerr8:dxerr8.obj
 0002:000123e4       ??_C@_0CI@JPEPPNIA@No?5media?5time?5format?5has?5been?5se@ 100613e4     dxerr8:dxerr8.obj
 0002:0001240c       ??_C@_0DC@POMNAHAM@No?5media?5time?5stamp?5has?5been?5set@ 1006140c     dxerr8:dxerr8.obj
 0002:00012440       ??_C@_0CM@FFHHFIED@No?5time?5stamp?5has?5been?5set?5for?5t@ 10061440     dxerr8:dxerr8.obj
 0002:0001246c       ??_C@_0DJ@PEMJPBDL@This?5file?5is?5corrupt?3?5it?5contain@ 1006146c     dxerr8:dxerr8.obj
 0002:000124a8       ??_C@_0DP@HANILJBG@This?5file?5is?5corrupt?3?5it?5contain@ 100614a8     dxerr8:dxerr8.obj
 0002:000124e8       ??_C@_0CL@IBLGOGJF@The?5version?5number?5of?5the?5file?5i@ 100614e8     dxerr8:dxerr8.obj
 0002:00012514       ??_C@_0CC@JEDACNKK@A?5file?5appeared?5to?5be?5incomplete@ 10061514     dxerr8:dxerr8.obj
 0002:00012538       ??_C@_0DF@MJJPBPIH@The?5source?5filter?5for?5this?5file?5@ 10061538     dxerr8:dxerr8.obj
 0002:00012570       ??_C@_0CP@ICJBOIE@The?5media?5type?5of?5this?5file?5is?5n@ 10061570     dxerr8:dxerr8.obj
 0002:000125a0       ??_C@_0DM@NNALILJP@Cannot?5call?5IVideoWindow?5methods@ 100615a0     dxerr8:dxerr8.obj
 0002:000125dc       ??_C@_0CF@BPHJLFJI@A?5full?9screen?5mode?5is?5not?5availa@ 100615dc     dxerr8:dxerr8.obj
 0002:00012608       ??_C@_0EE@GJOHLMPG@This?5Advise?5cannot?5be?5canceled?5b@ 10061608     dxerr8:dxerr8.obj
 0002:0001264c       ??_C@_0CE@GLFIKNEO@No?5full?9screen?5modes?5are?5availab@ 1006164c     dxerr8:dxerr8.obj
 0002:00012670       ??_C@_0CH@OCFFGKDK@An?5overlay?5advise?5link?5already?5e@ 10061670     dxerr8:dxerr8.obj
 0002:00012698       ??_C@_0CO@KEILENCE@Cannot?5render?5the?5file?5because?5i@ 10061698     dxerr8:dxerr8.obj
 0002:000126c8       ??_C@_0CO@GJOALHPN@The?5queued?5command?5has?5already?5b@ 100616c8     dxerr8:dxerr8.obj
 0002:000126f8       ??_C@_0DP@DEKOHNMP@An?5attempt?5was?5made?5to?5queue?5a?5c@ 100616f8     dxerr8:dxerr8.obj
 0002:00012738       ??_C@_0CH@OEFELGPG@Updates?5are?5not?5allowed?5in?5this?5@ 10061738     dxerr8:dxerr8.obj
 0002:00012760       ??_C@_0BO@FIEEKJMP@The?5filter?5graph?5is?5circular?4?$AA@ 10061760     dxerr8:dxerr8.obj
 0002:00012780       ??_C@_0CF@OFBBMAEK@The?5list?5has?5already?5been?5exhaus@ 10061780     dxerr8:dxerr8.obj
 0002:000127a8       ??_C@_0BM@CEPCCJON@The?5file?5format?5is?5invalid?4?$AA@ 100617a8     dxerr8:dxerr8.obj
 0002:000127c4       ??_C@_0BI@KHNHHDA@A?5time?9out?5has?5expired?4?$AA@ 100617c4     dxerr8:dxerr8.obj
 0002:000127dc       ??_C@_0DJ@FCCHENLK@An?5attempt?5to?5add?5a?5filter?5with?5@ 100617dc     dxerr8:dxerr8.obj
 0002:00012818       ??_C@_0EP@PPLGIFJN@This?5sample?5cannot?5be?5rendered?5b@ 10061818     dxerr8:dxerr8.obj
 0002:00012868       ??_C@_0CA@EDGHGFKD@This?5sample?5cannot?5be?5rendered?4?$AA@ 10061868     dxerr8:dxerr8.obj
 0002:00012888       ??_C@_0CN@BGHNBKCB@This?5pin?5cannot?5use?5the?5supplied@ 10061888     dxerr8:dxerr8.obj
 0002:000128b8       ??_C@_0CD@COIJJGHL@The?5supplied?5rectangle?5is?5invali@ 100618b8     dxerr8:dxerr8.obj
 0002:000128dc       ??_C@_0DE@LCEJBLBI@The?5sample?5start?5time?5is?5after?5t@ 100618dc     dxerr8:dxerr8.obj
 0002:00012910       ??_C@_0EP@NAFAJOAF@The?5operation?5could?5not?5be?5perfo@ 10061910     dxerr8:dxerr8.obj
 0002:00012960       ??_C@_0EI@LMAHMELG@The?5operation?5could?5not?5be?5perfo@ 10061960     dxerr8:dxerr8.obj
 0002:000129a8       ??_C@_0EH@PLLOHBJH@The?5operation?5could?5not?5be?5perfo@ 100619a8     dxerr8:dxerr8.obj
 0002:000129f0       ??_C@_0EI@EAMKHEJP@The?5operation?5could?5not?5be?5perfo@ 100619f0     dxerr8:dxerr8.obj
 0002:00012a38       ??_C@_0DH@PPBJAJCC@The?5state?5changed?5while?5waiting?5@ 10061a38     dxerr8:dxerr8.obj
 0002:00012a70       ??_C@_0DC@HBFPFGIA@Too?5many?5colors?5for?5the?5current?5@ 10061a70     dxerr8:dxerr8.obj
 0002:00012aa4       ??_C@_0CA@PGNGIGPC@Display?5does?5not?5use?5a?5palette?4?$AA@ 10061aa4     dxerr8:dxerr8.obj
 0002:00012ac4       ??_C@_0BJ@PIOFCHON@No?5palette?5is?5available?4?$AA@ 10061ac4     dxerr8:dxerr8.obj
 0002:00012ae0       ??_C@_0CE@NMHDBIFK@No?5matching?5color?5key?5is?5availab@ 10061ae0     dxerr8:dxerr8.obj
 0002:00012b08       ??_C@_0EB@KFLLKNGO@Setting?5a?5palette?5would?5conflict@ 10061b08     dxerr8:dxerr8.obj
 0002:00012b50       ??_C@_0EB@CFPJGJKB@Setting?5a?5color?5key?5would?5confli@ 10061b50     dxerr8:dxerr8.obj
 0002:00012b98       ??_C@_0EA@CLENOJBO@Current?5pin?5connection?5is?5not?5us@ 10061b98     dxerr8:dxerr8.obj
 0002:00012bd8       ??_C@_0DM@BIPHJCNJ@Current?5pin?5connection?5is?5not?5us@ 10061bd8     dxerr8:dxerr8.obj
 0002:00012c14       ??_C@_0BL@NGBBIMCP@No?5color?5key?5has?5been?5set?4?$AA@ 10061c14     dxerr8:dxerr8.obj
 0002:00012c30       ??_C@_0CG@MEFLGNDC@Could?5not?5change?5formats?5dynamic@ 10061c30     dxerr8:dxerr8.obj
 0002:00012c58       ??_C@_0DP@CIMONMOC@No?5combination?5of?5filters?5could?5@ 10061c58     dxerr8:dxerr8.obj
 0002:00012c98       ??_C@_0EO@HMNKCGLC@No?5combination?5of?5intermediate?5f@ 10061c98     dxerr8:dxerr8.obj
 0002:00012ce8       ??_C@_0CB@EODODMEB@An?5object?5or?5name?5was?5not?5found?4@ 10061ce8     dxerr8:dxerr8.obj
 0002:00012d0c       ??_C@_0CP@IICCLAOJ@A?5required?5interface?5has?5not?5bee@ 10061d0c     dxerr8:dxerr8.obj
 0002:00012d40       ??_C@_0EN@IEKOAEMP@Quality?5messages?5could?5not?5be?5se@ 10061d40     dxerr8:dxerr8.obj
 0002:00012d90       ??_C@_0ED@LAKOBNBK@Cannot?5lock?5for?5synchronization?5@ 10061d90     dxerr8:dxerr8.obj
 0002:00012dd4       ??_C@_0DF@CCGHIKHE@Cannot?5allocate?5memory?5because?5n@ 10061dd4     dxerr8:dxerr8.obj
 0002:00012e0c       ??_C@_0DL@GKLBLILJ@Cannot?5allocate?5a?5sample?5when?5th@ 10061e0c     dxerr8:dxerr8.obj
 0002:00012e48       ??_C@_0CG@IMMPKPDP@One?5or?5more?5buffers?5are?5still?5ac@ 10061e48     dxerr8:dxerr8.obj
 0002:00012e70       ??_C@_0DL@LNLMEAFO@Cannot?5change?5allocated?5memory?5w@ 10061e70     dxerr8:dxerr8.obj
 0002:00012eac       ??_C@_0CE@FKHHPKPN@An?5invalid?5alignment?5was?5specifi@ 10061eac     dxerr8:dxerr8.obj
 0002:00012ed0       ??_C@_0BO@EPNLBFFE@The?5buffer?5is?5not?5big?5enough?4?$AA@ 10061ed0     dxerr8:dxerr8.obj
 0002:00012ef0       ??_C@_0BN@GEKHEEEO@No?5buffer?5space?5has?5been?5set?$AA@ 10061ef0     dxerr8:dxerr8.obj
 0002:00012f10       ??_C@_0HM@JANHEBME@A?5mapper?5file?5function?5failed?5be@ 10061f10     dxerr8:dxerr8.obj
 0002:00012f90       ??_C@_0BDG@GOALGNDK@SendDeviceData?5failed?5because?5mo@ 10061f90     dxerr8:dxerr8.obj
 0002:000130c8       ??_C@_0JD@JJIEENFP@The?5operation?5could?5not?5be?5compl@ 100620c8     dxerr8:dxerr8.obj
 0002:00013160       ??_C@_0OG@LCMBINDA@An?5attempt?5was?5made?5to?5modify?5pa@ 10062160     dxerr8:dxerr8.obj
 0002:00013248       ??_C@_0HP@CLILIEMK@Attempted?5to?5read?5buffered?5devic@ 10062248     dxerr8:dxerr8.obj
 0002:000132c8       ??_C@_0JO@LMEKAFII@The?5device?5cannot?5be?5reinitializ@ 100622c8     dxerr8:dxerr8.obj
 0002:00013368       ??_C@_0JM@EFFHACIP@The?5operation?5cannot?5be?5performe@ 10062368     dxerr8:dxerr8.obj
 0002:00013408       ??_C@_0PA@GFMNGLBB@The?5effect?5could?5not?5be?5download@ 10062408     dxerr8:dxerr8.obj
 0002:000134f8       ??_C@_0ED@DHIIMIPF@The?5effect?5is?5not?5downloaded?4?5?$CG?5@ 100624f8     dxerr8:dxerr8.obj
 0002:0001353c       ??_C@_0CG@KJOKJKBL@CoInitialize?5has?5already?5been?5ca@ 1006253c     dxerr8:dxerr8.obj
 0002:00013568       ??_C@_0KJ@PIAKFIOK@Unable?5to?5IDirectInputJoyConfig_@ 10062568     dxerr8:dxerr8.obj
 0002:00013614       ??_C@_0DO@MPCGLOHK@The?5device?5is?5full?4?5?$CG?5An?5invalid@ 10062614     dxerr8:dxerr8.obj
 0002:00013658       ??_C@_0HC@BEFCOMJL@Not?5all?5the?5requested?5informatio@ 10062658     dxerr8:dxerr8.obj
 0002:000136cc       ??_C@_0CC@GPLGCPBE@CoInitialize?5has?5not?5been?5called@ 100626cc     dxerr8:dxerr8.obj
 0002:000136f0       ??_C@_0BP@FICGBMMK@An?5undetermined?5error?5occurred?$AA@ 100626f0     dxerr8:dxerr8.obj
 0002:00013710       ??_C@_0BF@PGMCHMAN@Catastrophic?5failure?$AA@ 10062710     dxerr8:dxerr8.obj
 0002:00013728       ??_C@_0CJ@NLODGJCN@This?5object?5does?5not?5support?5agg@ 10062728     dxerr8:dxerr8.obj
 0002:00013754       ??_C@_0BF@JBKDOPCP@Class?5not?5registered?$AA@ 10062754     dxerr8:dxerr8.obj
 0002:0001376c       ??_C@_0BC@NMPPIIEF@Operation?5aborted?$AA@ 1006276c     dxerr8:dxerr8.obj
 0002:00013780       ??_C@_0EE@JOAMAAIB@The?5data?5necessary?5to?5complete?5t@ 10062780     dxerr8:dxerr8.obj
 0002:000137c4       ??_C@_0DC@JGPOFOHN@The?5function?5called?5is?5not?5suppo@ 100627c4     dxerr8:dxerr8.obj
 0002:000137f8       ??_C@_0CN@MMEFHKBH@The?5requested?5COM?5interface?5is?5n@ 100627f8     dxerr8:dxerr8.obj
 0002:00013828       ??_C@_0BA@LNOHFKPL@Invalid?5pointer?$AA@ 10062828     dxerr8:dxerr8.obj
 0002:00013838       ??_C@_1EGO@IKGIDLAP@?$AAR?$AAe?$AAt?$AAu?$AAr?$AAn?$AAe?$AAd?$AA?5?$AAf?$AAr?$AAo?$AAm?$AA?5?$AAI?$AAD?$AAi?$AAr?$AAe?$AAc@ 10062838     dxerr8:dxerr8.obj
 0002:00013ca8       ??_C@_1BFM@DCFMPAEO@?$AAA?$AAl?$AAt?$AAh?$AAo?$AAu?$AAg?$AAh?$AA?5?$AAt?$AAh?$AAe?$AA?5?$AAa?$AAu?$AAd?$AAi?$AAo?$AA?5?$AAo@ 10062ca8     dxerr8:dxerr8.obj
 0002:00013e08       ??_C@_1BAC@HLDEEKBO@?$AAT?$AAh?$AAe?$AA?5?$AAr?$AAe?$AAq?$AAu?$AAe?$AAs?$AAt?$AAe?$AAd?$AA?5?$AAo?$AAp?$AAe?$AAr?$AAa?$AAt@ 10062e08     dxerr8:dxerr8.obj
 0002:00013f0c       ??_C@_17CKNMLFJK@?$AAn?$AA?1?$AAa?$AA?$AA@ 10062f0c     dxerr8:dxerr8.obj
 0002:00013f18       ??_C@_1EGI@GAADEKJC@?$AAR?$AAe?$AAt?$AAu?$AAr?$AAn?$AAe?$AAd?$AA?5?$AAf?$AAr?$AAo?$AAm?$AA?5?$AAI?$AAD?$AAi?$AAr?$AAe?$AAc@ 10062f18     dxerr8:dxerr8.obj
 0002:00014380       ??_C@_1PA@GBOLLCLH@?$AAR?$AAe?$AAt?$AAu?$AAr?$AAn?$AA?5?$AAv?$AAa?$AAl?$AAu?$AAe?$AA?5?$AAf?$AAr?$AAo?$AAm?$AA?5?$AAI?$AAD@ 10063380     dxerr8:dxerr8.obj
 0002:00014470       ??_C@_1HG@FIGMKAAD@?$AAR?$AAe?$AAt?$AAu?$AAr?$AAn?$AAe?$AAd?$AA?5?$AAs?$AAt?$AAr?$AAi?$AAn?$AAg?$AA?5?$AAh?$AAa?$AAs?$AA?5@ 10063470     dxerr8:dxerr8.obj
 0002:000144e8       ??_C@_1BFK@KFGAEHEO@?$AAR?$AAe?$AAt?$AAu?$AAr?$AAn?$AAe?$AAd?$AA?5?$AAf?$AAr?$AAo?$AAm?$AA?5?$AAI?$AAD?$AAi?$AAr?$AAe?$AAc@ 100634e8     dxerr8:dxerr8.obj
 0002:00014648       ??_C@_1CPO@KFNPENOG@?$AAR?$AAe?$AAt?$AAu?$AAr?$AAn?$AAe?$AAd?$AA?5?$AAf?$AAr?$AAo?$AAm?$AA?5?$AAI?$AAD?$AAi?$AAr?$AAe?$AAc@ 10063648     dxerr8:dxerr8.obj
 0002:00014948       ??_C@_1BAC@CDPMEANA@?$AAR?$AAe?$AAt?$AAu?$AAr?$AAn?$AA?5?$AAv?$AAa?$AAl?$AAu?$AAe?$AA?5?$AAf?$AAr?$AAo?$AAm?$AA?5?$AAI?$AAD@ 10063948     dxerr8:dxerr8.obj
 0002:00014a50       ??_C@_1CEA@ICNPJHMM@?$AAT?$AAh?$AAe?$AA?5?$AAo?$AAb?$AAj?$AAe?$AAc?$AAt?$AA?5?$AAc?$AAo?$AAu?$AAl?$AAd?$AA?5?$AAo?$AAn?$AAl@ 10063a50     dxerr8:dxerr8.obj
 0002:00014c90       ??_C@_1BMO@CMEMIFMJ@?$AAR?$AAe?$AAt?$AAu?$AAr?$AAn?$AA?5?$AAv?$AAa?$AAl?$AAu?$AAe?$AA?5?$AAf?$AAr?$AAo?$AAm?$AA?5?$AAI?$AAD@ 10063c90     dxerr8:dxerr8.obj
 0002:00014e60       ??_C@_1BAM@MEIAJKFO@?$AAR?$AAe?$AAt?$AAu?$AAr?$AAn?$AA?5?$AAv?$AAa?$AAl?$AAu?$AAe?$AA?5?$AAf?$AAr?$AAo?$AAm?$AA?5?$AAI?$AAD@ 10063e60     dxerr8:dxerr8.obj
 0002:00014f70       ??_C@_1IO@BNOKKJIE@?$AAT?$AAh?$AAe?$AA?5?$AAc?$AAa?$AAl?$AAl?$AA?5?$AAs?$AAu?$AAc?$AAc?$AAe?$AAe?$AAd?$AAe?$AAd?$AA?0?$AA?5@ 10063f70     dxerr8:dxerr8.obj
 0002:00015000       ??_C@_1BI@NEGIEGEO@?$AAF?$AAu?$AAl?$AAl?$AA?5?$AAd?$AAu?$AAp?$AAl?$AAe?$AAx?$AA?$AA@ 10064000     dxerr8:dxerr8.obj
 0002:00015018       ??_C@_1BI@FBILDEGO@?$AAH?$AAa?$AAl?$AAf?$AA?5?$AAd?$AAu?$AAp?$AAl?$AAe?$AAx?$AA?$AA@ 10064018     dxerr8:dxerr8.obj
 0002:00015030       ??_C@_1BA@JBKHJMJG@?$AAP?$AAe?$AAn?$AAd?$AAi?$AAn?$AAg?$AA?$AA@ 10064030     dxerr8:dxerr8.obj
 0002:00015040       ??_C@_1HM@MHICALCP@?$AAT?$AAh?$AAe?$AA?5?$AAc?$AAa?$AAl?$AAl?$AA?5?$AAs?$AAu?$AAc?$AAc?$AAe?$AAe?$AAd?$AAe?$AAd?$AA?0?$AA?5@ 10064040     dxerr8:dxerr8.obj
 0002:000150c0       ??_C@_1GA@EADIKJEC@?$AAT?$AAh?$AAe?$AA?5?$AAs?$AAe?$AAe?$AAk?$AA?5?$AAi?$AAn?$AAt?$AAo?$AA?5?$AAt?$AAh?$AAe?$AA?5?$AAm?$AAo@ 100640c0     dxerr8:dxerr8.obj
 0002:00015120       ??_C@_1OE@HIBDNAGD@?$AAT?$AAh?$AAe?$AAr?$AAe?$AA?5?$AAw?$AAa?$AAs?$AA?5?$AAn?$AAo?$AA?5?$AAp?$AAr?$AAe?$AAv?$AAi?$AAe?$AAw@ 10064120     dxerr8:dxerr8.obj
 0002:00015208       ??_C@_1PG@HEIHIFE@?$AAT?$AAh?$AAe?$AA?5?$AAc?$AAu?$AAr?$AAr?$AAe?$AAn?$AAt?$AA?5?$AAt?$AAi?$AAt?$AAl?$AAe?$AA?5?$AAw?$AAa@ 10064208     dxerr8:dxerr8.obj
 0002:00015300       ??_C@_1MG@NIGLENOE@?$AAT?$AAh?$AAe?$AA?5?$AAa?$AAu?$AAd?$AAi?$AAo?$AA?5?$AAs?$AAt?$AAr?$AAe?$AAa?$AAm?$AA?5?$AAd?$AAi?$AAd@ 10064300     dxerr8:dxerr8.obj
 0002:000153c8       ??_C@_1FE@CBCOLLEG@?$AAT?$AAh?$AAe?$AA?5?$AAs?$AAt?$AAo?$AAp?$AA?5?$AAt?$AAi?$AAm?$AAe?$AA?5?$AAf?$AAo?$AAr?$AA?5?$AAt?$AAh@ 100643c8     dxerr8:dxerr8.obj
 0002:00015420       ??_C@_1JM@GKMCMEEM@?$AAT?$AAh?$AAe?$AA?5?$AAv?$AAa?$AAl?$AAu?$AAe?$AA?5?$AAr?$AAe?$AAt?$AAu?$AAr?$AAn?$AAe?$AAd?$AA?5?$AAh@ 10064420     dxerr8:dxerr8.obj
 0002:000154c0       ??_C@_1JA@OGJBNPL@?$AAT?$AAh?$AAi?$AAs?$AA?5?$AAs?$AAu?$AAc?$AAc?$AAe?$AAs?$AAs?$AA?5?$AAc?$AAo?$AAd?$AAe?$AA?5?$AAi?$AAs@ 100644c0     dxerr8:dxerr8.obj
 0002:00015550       ??_C@_1EA@GFCOFLLI@?$AAT?$AAh?$AAe?$AA?5?$AAs?$AAt?$AAr?$AAe?$AAa?$AAm?$AA?5?$AAh?$AAa?$AAs?$AA?5?$AAb?$AAe?$AAe?$AAn?$AA?5@ 10064550     dxerr8:dxerr8.obj
 0002:00015590       ??_C@_1HI@MHKBICLM@?$AAT?$AAh?$AAe?$AA?5?$AAg?$AAr?$AAa?$AAp?$AAh?$AA?5?$AAc?$AAa?$AAn?$AA?8?$AAt?$AA?5?$AAb?$AAe?$AA?5?$AAc@ 10064590     dxerr8:dxerr8.obj
 0002:00015608       ??_C@_1IG@CGKGHECN@?$AAC?$AAa?$AAn?$AAn?$AAo?$AAt?$AA?5?$AAp?$AAl?$AAa?$AAy?$AA?5?$AAb?$AAa?$AAc?$AAk?$AA?5?$AAt?$AAh?$AAe@ 10064608     dxerr8:dxerr8.obj
 0002:00015690       ??_C@_1FI@MIABPGAH@?$AAT?$AAh?$AAe?$AA?5?$AAr?$AAe?$AAs?$AAo?$AAu?$AAr?$AAc?$AAe?$AA?5?$AAs?$AAp?$AAe?$AAc?$AAi?$AAf?$AAi@ 10064690     dxerr8:dxerr8.obj
 0002:000156e8       ??_C@_1PI@CAFFJJDB@?$AAA?$AA?5?$AAc?$AAo?$AAn?$AAn?$AAe?$AAc?$AAt?$AAi?$AAo?$AAn?$AA?5?$AAc?$AAo?$AAu?$AAl?$AAd?$AA?5?$AAn@ 100646e8     dxerr8:dxerr8.obj
 0002:000157e0       ??_C@_1JI@DCEOONOH@?$AAC?$AAa?$AAn?$AAn?$AAo?$AAt?$AA?5?$AAp?$AAl?$AAa?$AAy?$AA?5?$AAb?$AAa?$AAc?$AAk?$AA?5?$AAt?$AAh?$AAe@ 100647e0     dxerr8:dxerr8.obj
 0002:00015878       ??_C@_1IG@DOBCKKNG@?$AAC?$AAa?$AAn?$AAn?$AAo?$AAt?$AA?5?$AAp?$AAl?$AAa?$AAy?$AA?5?$AAb?$AAa?$AAc?$AAk?$AA?5?$AAt?$AAh?$AAe@ 10064878     dxerr8:dxerr8.obj
 0002:00015900       ??_C@_1GK@FKDHOIKL@?$AAS?$AAo?$AAm?$AAe?$AA?5?$AAc?$AAo?$AAn?$AAn?$AAe?$AAc?$AAt?$AAi?$AAo?$AAn?$AAs?$AA?5?$AAh?$AAa?$AAv@ 10064900     dxerr8:dxerr8.obj
 0002:00015970       ??_C@_1KC@BFFNPIEG@?$AAA?$AAn?$AA?5?$AAa?$AAt?$AAt?$AAe?$AAm?$AAp?$AAt?$AA?5?$AAt?$AAo?$AA?5?$AAa?$AAd?$AAd?$AA?5?$AAa?$AA?5@ 10064970     dxerr8:dxerr8.obj
 0002:00015a18       ??_C@_1FA@GLFMLIHB@?$AAT?$AAh?$AAe?$AA?5?$AAs?$AAt?$AAa?$AAt?$AAe?$AA?5?$AAt?$AAr?$AAa?$AAn?$AAs?$AAi?$AAt?$AAi?$AAo?$AAn@ 10064a18     dxerr8:dxerr8.obj
 0002:00015a68       ??_C@_1IA@LGNLHCPL@?$AAS?$AAo?$AAm?$AAe?$AA?5?$AAo?$AAf?$AA?5?$AAt?$AAh?$AAe?$AA?5?$AAs?$AAt?$AAr?$AAe?$AAa?$AAm?$AAs?$AA?5@ 10064a68     dxerr8:dxerr8.obj
 0002:00015ae8       ??_C@_1HM@GELMGGDL@?$AAT?$AAh?$AAe?$AA?5?$AAf?$AAi?$AAl?$AAe?$AA?5?$AAc?$AAo?$AAn?$AAt?$AAa?$AAi?$AAn?$AAe?$AAd?$AA?5?$AAs@ 10064ae8     dxerr8:dxerr8.obj
 0002:00015b68       ??_C@_1EM@CCGDABCM@?$AAT?$AAh?$AAe?$AA?5?$AAe?$AAn?$AAd?$AA?5?$AAo?$AAf?$AA?5?$AAt?$AAh?$AAe?$AA?5?$AAl?$AAi?$AAs?$AAt?$AA?5@ 10064b68     dxerr8:dxerr8.obj
 0002:00015bb8       ??_C@_1FM@ELBEEMFB@?$AAT?$AAh?$AAe?$AA?5?$AAs?$AAt?$AAo?$AAr?$AAa?$AAg?$AAe?$AA?5?$AAc?$AAo?$AAn?$AAt?$AAr?$AAo?$AAl?$AA?5@ 10064bb8     dxerr8:dxerr8.obj
 0002:00015c14       ??_C@_1DM@JAJBJDIL@?$AAT?$AAh?$AAe?$AA?5?$AAe?$AAn?$AAv?$AAi?$AAr?$AAo?$AAn?$AAm?$AAe?$AAn?$AAt?$AA?5?$AAi?$AAs?$AA?5?$AAi@ 10064c14     dxerr8:dxerr8.obj
 0002:00015c50       ??_C@_1IA@FJOKHGGG@?$AAA?$AAn?$AA?5?$AAa?$AAt?$AAt?$AAe?$AAm?$AAp?$AAt?$AA?5?$AAw?$AAa?$AAs?$AA?5?$AAm?$AAa?$AAd?$AAe?$AA?5@ 10064c50     dxerr8:dxerr8.obj
 0002:00015cd0       ??_C@_1FI@KGOFMBFB@?$AAT?$AAh?$AAe?$AA?5?$AAs?$AAy?$AAs?$AAt?$AAe?$AAm?$AA?5?$AAc?$AAa?$AAn?$AAn?$AAo?$AAt?$AA?5?$AAf?$AAi@ 10064cd0     dxerr8:dxerr8.obj
 0002:00015d28       ??_C@_1HC@MPDMKAGA@?$AAN?$AAo?$AAt?$AA?5?$AAe?$AAn?$AAo?$AAu?$AAg?$AAh?$AA?5?$AAs?$AAt?$AAo?$AAr?$AAa?$AAg?$AAe?$AA?5?$AAi@ 10064d28     dxerr8:dxerr8.obj
 0002:00015da0       ??_C@_1FG@DMAIPBKD@?$AAT?$AAh?$AAe?$AA?5?$AAs?$AAy?$AAs?$AAt?$AAe?$AAm?$AA?5?$AAc?$AAa?$AAn?$AAn?$AAo?$AAt?$AA?5?$AAf?$AAi@ 10064da0     dxerr8:dxerr8.obj
 0002:00015df8       ??_C@_1EC@FOGHBGOJ@?$AAT?$AAh?$AAe?$AA?5?$AAs?$AAy?$AAs?$AAt?$AAe?$AAm?$AA?5?$AAc?$AAa?$AAn?$AAn?$AAo?$AAt?$AA?5?$AAo?$AAp@ 10064df8     dxerr8:dxerr8.obj
 0002:00015e3c       ??_C@_1CE@NMIEOHO@?$AAA?$AAc?$AAc?$AAe?$AAs?$AAs?$AA?5?$AAi?$AAs?$AA?5?$AAd?$AAe?$AAn?$AAi?$AAe?$AAd?$AA?4?$AA?$AA@ 10064e3c     dxerr8:dxerr8.obj
 0002:00015e60       ??_C@_1CO@CAJKBGLL@?$AAT?$AAh?$AAe?$AA?5?$AAh?$AAa?$AAn?$AAd?$AAl?$AAe?$AA?5?$AAi?$AAs?$AA?5?$AAi?$AAn?$AAv?$AAa?$AAl?$AAi@ 10064e60     dxerr8:dxerr8.obj
 0002:00015e90       ??_C@_1FG@NODILCLJ@?$AAT?$AAh?$AAe?$AA?5?$AAs?$AAy?$AAs?$AAt?$AAe?$AAm?$AA?5?$AAc?$AAa?$AAn?$AAn?$AAo?$AAt?$AA?5?$AAf?$AAi@ 10064e90     dxerr8:dxerr8.obj
 0002:00015ee8       ??_C@_1EI@BCLAPACI@?$AAC?$AAa?$AAl?$AAl?$AA?5?$AAs?$AAu?$AAc?$AAc?$AAe?$AAs?$AAs?$AAf?$AAu?$AAl?$AA?0?$AA?5?$AAb?$AAu?$AAt@ 10064ee8     dxerr8:dxerr8.obj
 0002:00015f30       ??_C@_1EI@GCFGPIEA@?$AAT?$AAh?$AAe?$AA?5?$AAf?$AAu?$AAn?$AAc?$AAt?$AAi?$AAo?$AAn?$AA?5?$AAc?$AAo?$AAm?$AAp?$AAl?$AAe?$AAt@ 10064f30     dxerr8:dxerr8.obj
 0002:00015f78       ??_C@_1GI@BMMBKMOK@?$AAT?$AAh?$AAe?$AA?5?$AAf?$AAi?$AAl?$AAe?$AA?5?$AAd?$AAo?$AAe?$AAs?$AA?5?$AAn?$AAo?$AAt?$AA?5?$AAc?$AAo@ 10064f78     dxerr8:dxerr8.obj
 0002:00015fe0       ??_C@_1MG@KOHBDAAM@?$AAA?$AAt?$AAt?$AAe?$AAm?$AAp?$AAt?$AA?5?$AAw?$AAa?$AAs?$AA?5?$AAm?$AAa?$AAd?$AAe?$AA?5?$AAt?$AAo?$AA?5@ 10064fe0     dxerr8:dxerr8.obj
 0002:000160a8       ??_C@_1FK@DJFKJENL@?$AAI?$AAn?$AAv?$AAa?$AAl?$AAi?$AAd?$AA?5?$AAd?$AAa?$AAt?$AAa?$AA?5?$AAw?$AAa?$AAs?$AA?5?$AAf?$AAo?$AAu@ 100650a8     dxerr8:dxerr8.obj
 0002:00016108       ??_C@_1JO@FMGGHCHL@?$AAA?$AAt?$AAt?$AAe?$AAm?$AAp?$AAt?$AA?5?$AAw?$AAa?$AAs?$AA?5?$AAm?$AAa?$AAd?$AAe?$AA?5?$AAt?$AAo?$AA?5@ 10065108     dxerr8:dxerr8.obj
 0002:000161a8       ??_C@_1KA@MBOPAEOM@?$AAA?$AAn?$AA?5?$AAa?$AAu?$AAd?$AAi?$AAo?$AAp?$AAa?$AAt?$AAh?$AA?5?$AAc?$AAo?$AAu?$AAl?$AAd?$AA?5?$AAn@ 100651a8     dxerr8:dxerr8.obj
 0002:00016248       ??_C@_1JO@DOAOCEJN@?$AAA?$AAn?$AA?5?$AAa?$AAu?$AAd?$AAi?$AAo?$AAp?$AAa?$AAt?$AAh?$AA?5?$AAf?$AAa?$AAi?$AAl?$AAe?$AAd?$AA?5@ 10065248     dxerr8:dxerr8.obj
 0002:000162e8       ??_C@_1IA@ICEGKBBG@?$AAA?$AAn?$AA?5?$AAa?$AAu?$AAd?$AAi?$AAo?$AAp?$AAa?$AAt?$AAh?$AA?5?$AAi?$AAs?$AA?5?$AAi?$AAn?$AAa?$AAc@ 100652e8     dxerr8:dxerr8.obj
 0002:00016368       ??_C@_1LK@KEFCHPNP@?$AAA?$AA?5?$AAs?$AAe?$AAg?$AAm?$AAe?$AAn?$AAt?$AA?5?$AAo?$AAr?$AA?5?$AAs?$AAo?$AAn?$AAg?$AA?5?$AAw?$AAa@ 10065368     dxerr8:dxerr8.obj
 0002:00016428       ??_C@_1BEA@JGCDPEDG@?$AAT?$AAh?$AAi?$AAs?$AA?5?$AAi?$AAs?$AA?5?$AAt?$AAh?$AAe?$AA?5?$AAi?$AAn?$AAv?$AAe?$AAr?$AAs?$AAe?$AA?5@ 10065428     dxerr8:dxerr8.obj
 0002:00016568       ??_C@_1BAE@GLJNJJJF@?$AAT?$AAh?$AAe?$AA?5?$AAP?$AAe?$AAr?$AAf?$AAo?$AAr?$AAm?$AAa?$AAn?$AAc?$AAe?$AA?5?$AAh?$AAa?$AAs?$AA?5@ 10065568     dxerr8:dxerr8.obj
 0002:00016670       ??_C@_1BKC@PBCIBPAL@?$AAA?$AA?5?$AAs?$AAc?$AAr?$AAi?$AAp?$AAt?$AA?5?$AAr?$AAo?$AAu?$AAt?$AAi?$AAn?$AAe?$AA?5?$AAw?$AAr?$AAi@ 10065670     dxerr8:dxerr8.obj
 0002:00016818       ??_C@_1BMG@ICNLJFLH@?$AAA?$AA?5?$AAs?$AAc?$AAr?$AAi?$AAp?$AAt?$AA?5?$AAr?$AAo?$AAu?$AAt?$AAi?$AAn?$AAe?$AA?5?$AAw?$AAr?$AAi@ 10065818     dxerr8:dxerr8.obj
 0002:000169e0       ??_C@_1BBA@PGLNOOCJ@?$AAA?$AA?5?$AAs?$AAc?$AAr?$AAi?$AAp?$AAt?$AA?5?$AAw?$AAr?$AAi?$AAt?$AAt?$AAe?$AAn?$AA?5?$AAi?$AAn?$AA?5@ 100659e0     dxerr8:dxerr8.obj
 0002:00016af0       ??_C@_1GM@CNDINJDH@?$AAT?$AAh?$AAe?$AA?5?$AAf?$AAi?$AAl?$AAe?$AA?5?$AAc?$AAo?$AAn?$AAt?$AAa?$AAi?$AAn?$AAs?$AA?5?$AAa?$AAn@ 10065af0     dxerr8:dxerr8.obj
 0002:00016b60       ??_C@_1FG@ICIEOCMP@?$AAT?$AAh?$AAe?$AA?5?$AAf?$AAi?$AAl?$AAe?$AA?5?$AAc?$AAo?$AAn?$AAt?$AAa?$AAi?$AAn?$AAs?$AA?5?$AAa?$AAn@ 10065b60     dxerr8:dxerr8.obj
 0002:00016bb8       ??_C@_1GI@LMOKIPKG@?$AAT?$AAh?$AAe?$AA?5?$AAf?$AAi?$AAl?$AAe?$AA?5?$AAc?$AAo?$AAn?$AAt?$AAa?$AAi?$AAn?$AAs?$AA?5?$AAa?$AAn@ 10065bb8     dxerr8:dxerr8.obj
 0002:00016c20       ??_C@_1OE@ENGAIMOB@?$AAA?$AAt?$AAt?$AAe?$AAm?$AAp?$AAt?$AA?5?$AAw?$AAa?$AAs?$AA?5?$AAm?$AAa?$AAd?$AAe?$AA?5?$AAt?$AAo?$AA?5@ 10065c20     dxerr8:dxerr8.obj
 0002:00016d08       ??_C@_1MC@CEECIGHI@?$AAA?$AAt?$AAt?$AAe?$AAm?$AAp?$AAt?$AA?5?$AAw?$AAa?$AAs?$AA?5?$AAm?$AAa?$AAd?$AAe?$AA?5?$AAt?$AAo?$AA?5@ 10065d08     dxerr8:dxerr8.obj
 0002:00016dd0       ??_C@_1KA@OIBGOIBC@?$AAS?$AAc?$AAr?$AAi?$AAp?$AAt?$AAs?$AA?5?$AAv?$AAa?$AAr?$AAi?$AAa?$AAb?$AAl?$AAe?$AAs?$AA?5?$AAf?$AAo@ 10065dd0     dxerr8:dxerr8.obj
 0002:00016e70       ??_C@_1HO@FMKENJPP@?$AAT?$AAh?$AAe?$AA?5?$AAs?$AAc?$AAr?$AAi?$AAp?$AAt?$AA?5?$AAd?$AAo?$AAe?$AAs?$AA?5?$AAn?$AAo?$AAt?$AA?5@ 10065e70     dxerr8:dxerr8.obj
 0002:00016ef0       ??_C@_1IA@IPBFJNOO@?$AAT?$AAh?$AAe?$AA?5?$AAs?$AAc?$AAr?$AAi?$AAp?$AAt?$AA?5?$AAd?$AAo?$AAe?$AAs?$AA?5?$AAn?$AAo?$AAt?$AA?5@ 10065ef0     dxerr8:dxerr8.obj
 0002:00016f70       ??_C@_1FG@NEANPJIE@?$AAT?$AAh?$AAe?$AA?5?$AAf?$AAi?$AAl?$AAe?$AA?5?$AAc?$AAo?$AAn?$AAt?$AAa?$AAi?$AAn?$AAs?$AA?5?$AAa?$AAn@ 10065f70     dxerr8:dxerr8.obj
 0002:00016fc8       ??_C@_1DI@DLPJNIHO@?$AAT?$AAh?$AAe?$AA?5?$AAs?$AAc?$AAr?$AAi?$AAp?$AAt?$AA?5?$AAf?$AAi?$AAl?$AAe?$AA?5?$AAi?$AAs?$AA?5?$AAi@ 10065fc8     dxerr8:dxerr8.obj
 0002:00017000       ??_C@_1OA@GCIHCONK@?$AAA?$AAn?$AA?5?$AAe?$AAr?$AAr?$AAo?$AAr?$AA?5?$AAo?$AAc?$AAc?$AAu?$AAr?$AAe?$AAd?$AA?5?$AAw?$AAh?$AAi@ 10066000     dxerr8:dxerr8.obj
 0002:000170e0       ??_C@_1BOG@BHDFOJFA@?$AAL?$AAo?$AAa?$AAd?$AAi?$AAn?$AAg?$AA?5?$AAo?$AAf?$AA?5?$AAo?$AAl?$AAe?$AAa?$AAu?$AAt?$AA3?$AA2?$AA?4@ 100660e0     dxerr8:dxerr8.obj
 0002:000172c8       ??_C@_1BCI@EICBPDPK@?$AAA?$AAn?$AA?5?$AAe?$AAr?$AAr?$AAo?$AAr?$AA?5?$AAw?$AAa?$AAs?$AA?5?$AAe?$AAn?$AAc?$AAo?$AAu?$AAn?$AAt@ 100662c8     dxerr8:dxerr8.obj
 0002:000173f0       ??_C@_1JC@IJCBNKEP@?$AAA?$AA?5?$AAv?$AAa?$AAr?$AAi?$AAe?$AAn?$AAt?$AA?5?$AAw?$AAa?$AAs?$AA?5?$AAu?$AAs?$AAe?$AAd?$AA?5?$AAt@ 100663f0     dxerr8:dxerr8.obj
 0002:00017488       ??_C@_1LG@HLLEGGPJ@?$AAT?$AAh?$AAe?$AA?5?$AAa?$AAc?$AAt?$AAi?$AAv?$AAe?$AAX?$AA?5?$AAs?$AAc?$AAr?$AAi?$AAp?$AAt?$AAi?$AAn@ 10066488     dxerr8:dxerr8.obj
 0002:00017540       ??_C@_1JE@CKJPJJMK@?$AAA?$AAn?$AA?5?$AAa?$AAt?$AAt?$AAe?$AAm?$AAp?$AAt?$AA?5?$AAt?$AAo?$AA?5?$AAu?$AAs?$AAe?$AA?5?$AAt?$AAh@ 10066540     dxerr8:dxerr8.obj
 0002:000175d8       ??_C@_1OA@PLMAJHJI@?$AAD?$AAM?$AAU?$AAS?$AA_?$AAE?$AA_?$AAD?$AAE?$AAS?$AAC?$AAE?$AAN?$AAD?$AA_?$AAC?$AAH?$AAU?$AAN?$AAK@ 100665d8     dxerr8:dxerr8.obj
 0002:000176b8       ??_C@_1BKO@ELNFLHOJ@?$AAA?$AA?5?$AAc?$AAa?$AAl?$AAl?$AA?5?$AAt?$AAo?$AA?5?$AAM?$AAI?$AAD?$AAI?$AAT?$AAo?$AAM?$AAu?$AAs?$AAi@ 100666b8     dxerr8:dxerr8.obj
 0002:00017868       ??_C@_1FK@DNGGICJA@?$AAT?$AAh?$AAe?$AA?5?$AAd?$AAe?$AAf?$AAa?$AAu?$AAl?$AAt?$AA?5?$AAs?$AAy?$AAs?$AAt?$AAe?$AAm?$AA?5?$AAp@ 10066868     dxerr8:dxerr8.obj
 0002:000178c8       ??_C@_1BEK@PGDEACHC@?$AAT?$AAh?$AAe?$AA?5?$AAD?$AAM?$AAU?$AAS?$AA_?$AAP?$AAM?$AAS?$AAG?$AA?5?$AAw?$AAa?$AAs?$AA?5?$AAe?$AAi@ 100668c8     dxerr8:dxerr8.obj
 0002:00017a18       ??_C@_1MO@GACMBEP@?$AAT?$AAh?$AAe?$AA?5?$AAD?$AAM?$AAU?$AAS?$AA_?$AAP?$AAM?$AAS?$AAG?$AA?5?$AAh?$AAa?$AAs?$AA?5?$AAa?$AAl@ 10066a18     dxerr8:dxerr8.obj
 0002:00017ae8       ??_C@_1GG@JGOLMAKJ@?$AAT?$AAh?$AAe?$AA?5?$AAf?$AAi?$AAl?$AAe?$AA?5?$AAn?$AAa?$AAm?$AAe?$AA?5?$AAi?$AAs?$AA?5?$AAm?$AAi?$AAs@ 10066ae8     dxerr8:dxerr8.obj
 0002:00017b50       ??_C@_1FA@KFDFGAEN@?$AAT?$AAh?$AAe?$AA?5?$AAf?$AAi?$AAl?$AAe?$AA?5?$AAr?$AAe?$AAq?$AAu?$AAe?$AAs?$AAt?$AAe?$AAd?$AA?5?$AAi@ 10066b50     dxerr8:dxerr8.obj
 0002:00017ba0       ??_C@_1IG@IPDJGCNP@?$AAT?$AAh?$AAe?$AA?5?$AAt?$AAo?$AAo?$AAl?$AA?5?$AAi?$AAs?$AA?5?$AAa?$AAl?$AAr?$AAe?$AAa?$AAd?$AAy?$AA?5@ 10066ba0     dxerr8:dxerr8.obj
 0002:00017c28       ??_C@_1KK@CDLLOFME@?$AAV?$AAa?$AAl?$AAu?$AAe?$AA?5?$AAi?$AAs?$AA?5?$AAo?$AAu?$AAt?$AA?5?$AAo?$AAf?$AA?5?$AAr?$AAa?$AAn?$AAg@ 10066c28     dxerr8:dxerr8.obj
 0002:00017cd8       ??_C@_1JO@EPIKMNOD@?$AAS?$AAe?$AAg?$AAm?$AAe?$AAn?$AAt?$AA?5?$AAi?$AAn?$AAi?$AAt?$AAi?$AAa?$AAl?$AAi?$AAz?$AAa?$AAt?$AAi@ 10066cd8     dxerr8:dxerr8.obj
 0002:00017d78       ??_C@_1CM@JOHOGLNE@?$AAO?$AAb?$AAj?$AAe?$AAc?$AAt?$AA?5?$AAw?$AAa?$AAs?$AA?5?$AAn?$AAo?$AAt?$AA?5?$AAf?$AAo?$AAu?$AAn?$AAd@ 10066d78     dxerr8:dxerr8.obj
 0002:00017da8       ??_C@_1IG@PCMAOFII@?$AAT?$AAh?$AAe?$AA?5?$AAc?$AAl?$AAa?$AAs?$AAs?$AA?5?$AAi?$AAd?$AA?5?$AAf?$AAi?$AAe?$AAl?$AAd?$AA?5?$AAi@ 10066da8     dxerr8:dxerr8.obj
 0002:00017e30       ??_C@_1EI@BKNBGBLG@?$AAT?$AAh?$AAe?$AA?5?$AAr?$AAe?$AAq?$AAu?$AAe?$AAs?$AAt?$AAe?$AAd?$AA?5?$AAf?$AAi?$AAl?$AAe?$AA?5?$AAp@ 10066e30     dxerr8:dxerr8.obj
 0002:00017e78       ??_C@_1HG@KKBFPAJG@?$AAF?$AAi?$AAl?$AAe?$AA?5?$AAo?$AAp?$AAe?$AAn?$AA?5?$AAf?$AAa?$AAi?$AAl?$AAe?$AAd?$AA?5?$AA?9?$AA?5?$AAe@ 10066e78     dxerr8:dxerr8.obj
 0002:00017ef0       ??_C@_1EG@FMELILFL@?$AAS?$AAe?$AAa?$AAr?$AAc?$AAh?$AA?5?$AAd?$AAa?$AAt?$AAa?$AA?5?$AAt?$AAy?$AAp?$AAe?$AA?5?$AAi?$AAs?$AA?5@ 10066ef0     dxerr8:dxerr8.obj
 0002:00017f38       ??_C@_1EC@EPGIDOG@?$AAU?$AAn?$AAa?$AAb?$AAl?$AAe?$AA?5?$AAt?$AAo?$AA?5?$AAf?$AAi?$AAn?$AAd?$AA?5?$AAo?$AAr?$AA?5?$AAc?$AAr@ 10066f38     dxerr8:dxerr8.obj
 0002:00017f80       ??_C@_1LM@EGLGLGKJ@?$AAT?$AAh?$AAe?$AAr?$AAe?$AA?5?$AAi?$AAs?$AA?5?$AAn?$AAo?$AA?5?$AAm?$AAa?$AAs?$AAt?$AAe?$AAr?$AA?5?$AAc@ 10066f80     dxerr8:dxerr8.obj
 0002:00018040       ??_C@_1HI@BNNGFKFN@?$AAT?$AAh?$AAe?$AA?5?$AAt?$AAr?$AAa?$AAc?$AAk?$AA?5?$AAd?$AAo?$AAe?$AAs?$AA?5?$AAn?$AAo?$AAt?$AA?5?$AAs@ 10067040     dxerr8:dxerr8.obj
 0002:000180b8       ??_C@_1GK@GKJDKKIF@?$AAT?$AAh?$AAe?$AA?5?$AAr?$AAe?$AAq?$AAu?$AAe?$AAs?$AAt?$AAe?$AAd?$AA?5?$AAt?$AAr?$AAa?$AAc?$AAk?$AA?5@ 100670b8     dxerr8:dxerr8.obj
 0002:00018128       ??_C@_1HI@OJADALEL@?$AAT?$AAh?$AAe?$AA?5?$AAt?$AAi?$AAm?$AAe?$AA?5?$AAi?$AAs?$AA?5?$AAi?$AAn?$AA?5?$AAt?$AAh?$AAe?$AA?5?$AAp@ 10067128     dxerr8:dxerr8.obj
 0002:000181a0       ??_C@_1HK@HKKDOLOK@?$AAT?$AAh?$AAe?$AA?5?$AAr?$AAe?$AAq?$AAu?$AAe?$AAs?$AAt?$AAe?$AAd?$AA?5?$AAp?$AAa?$AAr?$AAa?$AAm?$AAe@ 100671a0     dxerr8:dxerr8.obj
 0002:00018220       ??_C@_1BAA@NMGKHCNJ@?$AAT?$AAh?$AAe?$AA?5?$AAr?$AAe?$AAq?$AAu?$AAe?$AAs?$AAt?$AAe?$AAd?$AA?5?$AAp?$AAa?$AAr?$AAa?$AAm?$AAe@ 10067220     dxerr8:dxerr8.obj
 0002:00018320       ??_C@_1HM@FOJPENC@?$AAA?$AA?5?$AAr?$AAe?$AAq?$AAu?$AAi?$AAr?$AAe?$AAd?$AA?5?$AAo?$AAb?$AAj?$AAe?$AAc?$AAt?$AA?5?$AAi?$AAs@ 10067320     dxerr8:dxerr8.obj
 0002:000183a0       ??_C@_1BGG@NDDEJOPN@?$AAT?$AAh?$AAe?$AA?5?$AAs?$AAe?$AAg?$AAm?$AAe?$AAn?$AAt?$AA?5?$AAo?$AAb?$AAj?$AAe?$AAc?$AAt?$AA?5?$AAw@ 100673a0     dxerr8:dxerr8.obj
 0002:00018508       ??_C@_1BFO@MCGMKKMJ@?$AAT?$AAh?$AAe?$AA?5?$AAg?$AAr?$AAa?$AAp?$AAh?$AA?5?$AAo?$AAb?$AAj?$AAe?$AAc?$AAt?$AA?5?$AAw?$AAa?$AAs@ 10067508     dxerr8:dxerr8.obj
 0002:00018668       ??_C@_1BBO@FMKFNEEO@?$AAT?$AAh?$AAe?$AA?5?$AAI?$AAS?$AAt?$AAr?$AAe?$AAa?$AAm?$AA?$CK?$AA?5?$AAo?$AAb?$AAj?$AAe?$AAc?$AAt?$AA?8@ 10067668     dxerr8:dxerr8.obj
 0002:00018788       ??_C@_1BCE@EKJKLKOF@?$AAT?$AAh?$AAe?$AA?5?$AAI?$AAS?$AAt?$AAr?$AAe?$AAa?$AAm?$AA?$CK?$AA?5?$AAo?$AAb?$AAj?$AAe?$AAc?$AAt?$AA?8@ 10067788     dxerr8:dxerr8.obj
 0002:000188b0       ??_C@_1PM@IMDNNMGN@?$AAT?$AAh?$AAe?$AA?5?$AAI?$AAS?$AAt?$AAr?$AAe?$AAa?$AAm?$AA?$CK?$AA?5?$AAo?$AAb?$AAj?$AAe?$AAc?$AAt?$AA?8@ 100678b0     dxerr8:dxerr8.obj
 0002:000189b0       ??_C@_1BAC@HNELHKMG@?$AAT?$AAh?$AAe?$AA?5?$AAI?$AAS?$AAt?$AAr?$AAe?$AAa?$AAm?$AA?$CK?$AA?5?$AAo?$AAb?$AAj?$AAe?$AAc?$AAt?$AA?8@ 100679b0     dxerr8:dxerr8.obj
 0002:00018ab8       ??_C@_1FA@IHLKGAON@?$AAT?$AAh?$AAe?$AA?5?$AAf?$AAi?$AAl?$AAe?$AA?5?$AAd?$AAo?$AAe?$AAs?$AA?5?$AAn?$AAo?$AAt?$AA?5?$AAc?$AAo@ 10067ab8     dxerr8:dxerr8.obj
 0002:00018b08       ??_C@_1FC@DAJGDEEF@?$AAT?$AAh?$AAe?$AA?5?$AAo?$AAb?$AAj?$AAe?$AAc?$AAt?$AA?5?$AAh?$AAa?$AAs?$AA?5?$AAa?$AAl?$AAr?$AAe?$AAa@ 10067b08     dxerr8:dxerr8.obj
 0002:00018b60       ??_C@_1JG@GGNDEBLE@?$AAT?$AAh?$AAe?$AA?5?$AAI?$AAS?$AAt?$AAr?$AAe?$AAa?$AAm?$AA?$CK?$AA?5?$AAo?$AAb?$AAj?$AAe?$AAc?$AAt?$AA?5@ 10067b60     dxerr8:dxerr8.obj
 0002:00018bf8       ??_C@_1BCE@JHHIBCFF@?$AAT?$AAh?$AAe?$AA?5?$AAg?$AAi?$AAv?$AAe?$AAn?$AA?5?$AAe?$AAv?$AAe?$AAn?$AAt?$AA?5?$AAi?$AAs?$AA?5?$AAi@ 10067bf8     dxerr8:dxerr8.obj
 0002:00018d20       ??_C@_1LE@OONJPPDK@?$AAI?$AAD?$AAi?$AAr?$AAe?$AAc?$AAt?$AAM?$AAu?$AAs?$AAi?$AAc?$AA?3?$AA?3?$AAS?$AAe?$AAt?$AAD?$AAi?$AAr@ 10067d20     dxerr8:dxerr8.obj
 0002:00018dd8       ??_C@_1IO@HIANOJBD@?$AAT?$AAh?$AAe?$AA?5?$AAo?$AAp?$AAe?$AAr?$AAa?$AAt?$AAi?$AAo?$AAn?$AA?5?$AAc?$AAa?$AAn?$AAn?$AAo?$AAt@ 10067dd8     dxerr8:dxerr8.obj
 0002:00018e68       ??_C@_1GI@BNNKPJF@?$AAI?$AAn?$AAv?$AAa?$AAl?$AAi?$AAd?$AA?5?$AAb?$AAu?$AAf?$AAf?$AAe?$AAr?$AA?5?$AAf?$AAo?$AAr?$AAm?$AAa@ 10067e68     dxerr8:dxerr8.obj
 0002:00018ed0       ??_C@_1GA@PBGKCHAL@?$AAI?$AAn?$AAv?$AAa?$AAl?$AAi?$AAd?$AA?5?$AAD?$AAi?$AAr?$AAe?$AAc?$AAt?$AAS?$AAo?$AAu?$AAn?$AAd?$AA?5@ 10067ed0     dxerr8:dxerr8.obj
 0002:00018f30       ??_C@_1HM@BILACAAA@?$AAT?$AAh?$AAe?$AA?5?$AAo?$AAp?$AAe?$AAr?$AAa?$AAt?$AAi?$AAo?$AAn?$AA?5?$AAc?$AAa?$AAn?$AAn?$AAo?$AAt@ 10067f30     dxerr8:dxerr8.obj
 0002:00018fb0       ??_C@_1BKC@FNBGFKAO@?$AAT?$AAh?$AAe?$AA?5?$AAp?$AAo?$AAr?$AAt?$AA?5?$AAc?$AAo?$AAu?$AAl?$AAd?$AA?5?$AAn?$AAo?$AAt?$AA?5?$AAb@ 10067fb0     dxerr8:dxerr8.obj
 0002:00019158       ??_C@_1KA@JGGGOKNN@?$AAT?$AAh?$AAe?$AA?5?$AAg?$AAi?$AAv?$AAe?$AAn?$AA?5?$AAo?$AAp?$AAe?$AAr?$AAa?$AAt?$AAi?$AAo?$AAn?$AA?5@ 10068158     dxerr8:dxerr8.obj
 0002:000191f8       ??_C@_1KC@OEDKAOEJ@?$AAT?$AAh?$AAe?$AA?5?$AAg?$AAi?$AAv?$AAe?$AAn?$AA?5?$AAo?$AAp?$AAe?$AAr?$AAa?$AAt?$AAi?$AAo?$AAn?$AA?5@ 100681f8     dxerr8:dxerr8.obj
 0002:000192a0       ??_C@_1IO@OMPFMKFA@?$AAT?$AAh?$AAe?$AAr?$AAe?$AA?5?$AAi?$AAs?$AA?5?$AAi?$AAn?$AAs?$AAu?$AAf?$AAf?$AAi?$AAc?$AAi?$AAe?$AAn@ 100682a0     dxerr8:dxerr8.obj
 0002:00019330       ??_C@_1FI@OCHDMKGI@?$AAT?$AAh?$AAe?$AAr?$AAe?$AA?5?$AAw?$AAa?$AAs?$AA?5?$AAn?$AAo?$AA?5?$AAd?$AAa?$AAt?$AAa?$AA?5?$AAi?$AAn@ 10068330     dxerr8:dxerr8.obj
 0002:00019388       ??_C@_1BFE@KPMCACDI@?$AAT?$AAh?$AAe?$AA?5?$AAo?$AAp?$AAe?$AAr?$AAa?$AAt?$AAi?$AAo?$AAn?$AA?5?$AAc?$AAa?$AAn?$AAn?$AAo?$AAt@ 10068388     dxerr8:dxerr8.obj
 0002:000194e0       ??_C@_1IK@PMPAHNHG@?$AAA?$AAn?$AA?5?$AAe?$AAr?$AAr?$AAo?$AAr?$AA?5?$AAo?$AAc?$AAc?$AAu?$AAr?$AAr?$AAe?$AAd?$AA?5?$AAw?$AAh@ 100684e0     dxerr8:dxerr8.obj
 0002:00019570       ??_C@_1IK@OEGNGALD@?$AAT?$AAh?$AAe?$AA?5?$AAo?$AAp?$AAe?$AAr?$AAa?$AAt?$AAi?$AAo?$AAn?$AA?5?$AAc?$AAa?$AAn?$AAn?$AAo?$AAt@ 10068570     dxerr8:dxerr8.obj
 0002:00019600       ??_C@_1MI@JOCCAIBP@?$AAT?$AAh?$AAe?$AA?5?$AAo?$AAp?$AAe?$AAr?$AAa?$AAt?$AAi?$AAo?$AAn?$AA?5?$AAc?$AAo?$AAu?$AAl?$AAd?$AA?5@ 10068600     dxerr8:dxerr8.obj
 0002:000196c8       ??_C@_1KE@FOOLMGFM@?$AAA?$AAn?$AA?5?$AAa?$AAt?$AAt?$AAe?$AAm?$AAp?$AAt?$AA?5?$AAw?$AAa?$AAs?$AA?5?$AAm?$AAa?$AAd?$AAe?$AA?5@ 100686c8     dxerr8:dxerr8.obj
 0002:00019770       ??_C@_1KC@OCOBMEBH@?$AAA?$AAn?$AA?5?$AAa?$AAt?$AAt?$AAe?$AAm?$AAp?$AAt?$AA?5?$AAw?$AAa?$AAs?$AA?5?$AAm?$AAa?$AAd?$AAe?$AA?5@ 10068770     dxerr8:dxerr8.obj
 0002:00019818       ??_C@_1KO@CFDONAOF@?$AAT?$AAh?$AAe?$AA?5?$AAo?$AAp?$AAe?$AAr?$AAa?$AAt?$AAi?$AAo?$AAn?$AA?5?$AAc?$AAo?$AAu?$AAl?$AAd?$AA?5@ 10068818     dxerr8:dxerr8.obj
 0002:000198c8       ??_C@_1FC@BPFHDJDH@?$AAA?$AAt?$AAt?$AAe?$AAm?$AAp?$AAt?$AAe?$AAd?$AA?5?$AAt?$AAo?$AA?5?$AAd?$AAo?$AAw?$AAn?$AAl?$AAo?$AAa@ 100688c8     dxerr8:dxerr8.obj
 0002:00019920       ??_C@_1FM@IHFPIMMF@?$AAO?$AAf?$AAf?$AAs?$AAe?$AAt?$AA?5?$AAT?$AAa?$AAb?$AAl?$AAe?$AA?5?$AAf?$AAo?$AAr?$AA?5?$AAd?$AAo?$AAw@ 10068920     dxerr8:dxerr8.obj
 0002:00019980       ??_C@_1EC@JJCGDPJJ@?$AAB?$AAa?$AAd?$AA?5?$AAw?$AAa?$AAv?$AAe?$AA?5?$AAc?$AAh?$AAu?$AAn?$AAk?$AA?5?$AAi?$AAn?$AA?5?$AAD?$AAL@ 10068980     dxerr8:dxerr8.obj
 0002:000199c8       ??_C@_1FE@NHIIEMBO@?$AAD?$AAo?$AAw?$AAn?$AAo?$AAa?$AAd?$AAe?$AAd?$AA?5?$AAD?$AAL?$AAS?$AA?5?$AAw?$AAa?$AAv?$AAe?$AA?5?$AAi@ 100689c8     dxerr8:dxerr8.obj
 0002:00019a20       ??_C@_1HA@DEMGKJOM@?$AAA?$AAr?$AAt?$AAi?$AAc?$AAu?$AAl?$AAa?$AAt?$AAi?$AAo?$AAn?$AA?5?$AAm?$AAi?$AAs?$AAs?$AAi?$AAn?$AAg@ 10068a20     dxerr8:dxerr8.obj
 0002:00019a90       ??_C@_1HC@HMCBDGDF@?$AAW?$AAa?$AAv?$AAe?$AAl?$AAi?$AAn?$AAk?$AA?5?$AAc?$AAh?$AAu?$AAn?$AAk?$AA?5?$AAi?$AAn?$AA?5?$AAD?$AAL@ 10068a90     dxerr8:dxerr8.obj
 0002:00019b08       ??_C@_1FI@EHNHNEEE@?$AAI?$AAn?$AAv?$AAa?$AAl?$AAi?$AAd?$AA?5?$AAi?$AAn?$AAs?$AAt?$AAr?$AAu?$AAm?$AAe?$AAn?$AAt?$AA?5?$AAc@ 10068b08     dxerr8:dxerr8.obj
 0002:00019b60       ??_C@_1FM@MBGKIDKD@?$AAI?$AAn?$AAv?$AAa?$AAl?$AAi?$AAd?$AA?5?$AAa?$AAr?$AAt?$AAi?$AAc?$AAu?$AAl?$AAa?$AAt?$AAi?$AAo?$AAn@ 10068b60     dxerr8:dxerr8.obj
 0002:00019bc0       ??_C@_1JI@HPFCILJI@?$AAW?$AAa?$AAv?$AAe?$AA?5?$AAc?$AAh?$AAu?$AAn?$AAk?$AA?5?$AAh?$AAa?$AAs?$AA?5?$AAm?$AAo?$AAr?$AAe?$AA?5@ 10068bc0     dxerr8:dxerr8.obj
 0002:00019c58       ??_C@_1JG@NNNLEEBE@?$AA?$CK?$AA?5?$AAT?$AAh?$AAe?$AA?5?$AAs?$AAp?$AAe?$AAc?$AAi?$AAf?$AAi?$AAe?$AAd?$AA?5?$AAp?$AAr?$AAo?$AAp@ 10068c58     dxerr8:dxerr8.obj
 0002:00019cf0       ??_C@_1IC@MCJCOJEO@?$AAT?$AAh?$AAe?$AA?5?$AAs?$AAp?$AAe?$AAc?$AAi?$AAf?$AAi?$AAe?$AAd?$AA?5?$AAp?$AAr?$AAo?$AAp?$AAe?$AAr@ 10068cf0     dxerr8:dxerr8.obj
 0002:00019d78       ??_C@_1IK@BMHCLMDM@?$AAT?$AAh?$AAe?$AA?5?$AAs?$AAp?$AAe?$AAc?$AAi?$AAf?$AAi?$AAe?$AAd?$AA?5?$AAp?$AAr?$AAo?$AAp?$AAe?$AAr@ 10068d78     dxerr8:dxerr8.obj
 0002:00019e08       ??_C@_1FA@FDGHNNPE@?$AAB?$AAu?$AAf?$AAf?$AAe?$AAr?$AA?5?$AAw?$AAa?$AAs?$AA?5?$AAa?$AAl?$AAr?$AAe?$AAa?$AAd?$AAy?$AA?5?$AAd@ 10068e08     dxerr8:dxerr8.obj
 0002:00019e58       ??_C@_1JE@LIEDDGOI@?$AAT?$AAr?$AAi?$AAe?$AAd?$AA?5?$AAt?$AAo?$AA?5?$AAu?$AAn?$AAl?$AAo?$AAa?$AAd?$AA?5?$AAa?$AAn?$AA?5?$AAo@ 10068e58     dxerr8:dxerr8.obj
 0002:00019ef0       ??_C@_1JG@JOAKDLEK@?$AAI?$AAn?$AAv?$AAa?$AAl?$AAi?$AAd?$AA?5?$AAd?$AAo?$AAw?$AAn?$AAl?$AAo?$AAa?$AAd?$AA?5?$AAi?$AAd?$AA?5@ 10068ef0     dxerr8:dxerr8.obj
 0002:00019f88       ??_C@_1IK@PMJLKOPI@?$AAT?$AAh?$AAe?$AA?5?$AAR?$AAI?$AAF?$AAF?$AA?5?$AAp?$AAa?$AAr?$AAs?$AAe?$AAr?$AA?5?$AAd?$AAo?$AAe?$AAs@ 10068f88     dxerr8:dxerr8.obj
 0002:0001a018       ??_C@_1EM@EGDJANPF@?$AAT?$AAh?$AAe?$AA?5?$AAI?$AAS?$AAt?$AAr?$AAe?$AAa?$AAm?$AA?$CK?$AA?5?$AAd?$AAo?$AAe?$AAs?$AAn?$AA?8?$AAt@ 10069018     dxerr8:dxerr8.obj
 0002:0001a068       ??_C@_1EK@FNAIOLLD@?$AAT?$AAh?$AAe?$AA?5?$AAI?$AAS?$AAt?$AAr?$AAe?$AAa?$AAm?$AA?$CK?$AA?5?$AAd?$AAo?$AAe?$AAs?$AAn?$AA?8?$AAt@ 10069068     dxerr8:dxerr8.obj
 0002:0001a0b8       ??_C@_1II@MCJHFFI@?$AAT?$AAh?$AAe?$AAr?$AAe?$AA?5?$AAi?$AAs?$AA?5?$AAn?$AAo?$AA?5?$AAi?$AAn?$AAs?$AAt?$AAr?$AAu?$AAm?$AAe@ 100690b8     dxerr8:dxerr8.obj
 0002:0001a140       ??_C@_1IC@OEPNJNOP@?$AAE?$AAr?$AAr?$AAo?$AAr?$AA?5?$AAr?$AAe?$AAa?$AAd?$AAi?$AAn?$AAg?$AA?5?$AAw?$AAa?$AAv?$AAe?$AA?5?$AAd@ 10069140     dxerr8:dxerr8.obj
 0002:0001a1c8       ??_C@_1JG@GACFIJL@?$AAT?$AAh?$AAe?$AA?5?$AAo?$AAb?$AAj?$AAe?$AAc?$AAt?$AA?5?$AAr?$AAe?$AAq?$AAu?$AAe?$AAs?$AAt?$AAe?$AAd@ 100691c8     dxerr8:dxerr8.obj
 0002:0001a260       ??_C@_1IC@LGCEIMHK@?$AAS?$AAe?$AAc?$AAo?$AAn?$AAd?$AA?5?$AAa?$AAt?$AAt?$AAe?$AAm?$AAp?$AAt?$AA?5?$AAt?$AAo?$AA?5?$AAl?$AAo@ 10069260     dxerr8:dxerr8.obj
 0002:0001a2e8       ??_C@_1HK@KCEFLDD@?$AAW?$AAa?$AAv?$AAe?$AA?5?$AAc?$AAh?$AAu?$AAn?$AAk?$AAs?$AA?5?$AAi?$AAn?$AA?5?$AAD?$AAL?$AAS?$AA?5?$AAc@ 100692e8     dxerr8:dxerr8.obj
 0002:0001a368       ??_C@_1FO@HFIBMCPH@?$AAE?$AAr?$AAr?$AAo?$AAr?$AA?5?$AAp?$AAa?$AAr?$AAs?$AAi?$AAn?$AAg?$AA?5?$AAD?$AAL?$AAS?$AA?5?$AAc?$AAo@ 10069368     dxerr8:dxerr8.obj
 0002:0001a3c8       ??_C@_1IM@BEFJBDHJ@?$AAD?$AAo?$AAw?$AAn?$AAl?$AAo?$AAa?$AAd?$AA?5?$AAf?$AAa?$AAi?$AAl?$AAe?$AAd?$AA?5?$AAd?$AAu?$AAe?$AA?5@ 100693c8     dxerr8:dxerr8.obj
 0002:0001a458       ??_C@_1FM@OCCNFMOD@?$AAN?$AAo?$AA?5?$AAb?$AAu?$AAf?$AAf?$AAe?$AAr?$AA?5?$AAw?$AAa?$AAs?$AA?5?$AAp?$AAr?$AAe?$AAp?$AAa?$AAr@ 10069458     dxerr8:dxerr8.obj
 0002:0001a4b8       ??_C@_1GI@NGPFKIHC@?$AAB?$AAu?$AAf?$AAf?$AAe?$AAr?$AA?5?$AAi?$AAs?$AA?5?$AAn?$AAo?$AAt?$AA?5?$AAl?$AAa?$AAr?$AAg?$AAe?$AA?5@ 100694b8     dxerr8:dxerr8.obj
 0002:0001a520       ??_C@_1NE@ICGALDFA@?$AAT?$AAh?$AAe?$AA?5?$AAr?$AAe?$AAq?$AAu?$AAe?$AAs?$AAt?$AAe?$AAd?$AA?5?$AAd?$AAe?$AAv?$AAi?$AAc?$AAe@ 10069520     dxerr8:dxerr8.obj
 0002:0001a5f8       ??_C@_1NM@GMMJIHHH@?$AAT?$AAh?$AAe?$AA?5?$AAr?$AAe?$AAq?$AAu?$AAe?$AAs?$AAt?$AAe?$AAd?$AA?5?$AAo?$AAp?$AAe?$AAr?$AAa?$AAt@ 100695f8     dxerr8:dxerr8.obj
 0002:0001a6d8       ??_C@_1NM@NPOEPCNF@?$AAA?$AAn?$AA?5?$AAu?$AAn?$AAe?$AAx?$AAp?$AAe?$AAc?$AAt?$AAe?$AAd?$AA?5?$AAe?$AAr?$AAr?$AAo?$AAr?$AA?5@ 100696d8     dxerr8:dxerr8.obj
 0002:0001a7b8       ??_C@_1JI@HEEDDLGC@?$AAT?$AAh?$AAe?$AA?5?$AAG?$AAU?$AAI?$AAD?$AA?5?$AAs?$AAp?$AAe?$AAc?$AAi?$AAf?$AAi?$AAe?$AAd?$AA?5?$AAi@ 100697b8     dxerr8:dxerr8.obj
 0002:0001a850       ??_C@_1KC@CCMGDHLO@?$AAT?$AAr?$AAi?$AAe?$AAd?$AA?5?$AAt?$AAo?$AA?5?$AAc?$AAr?$AAe?$AAa?$AAt?$AAe?$AA?5?$AAa?$AA?5?$AAD?$AAS@ 10069850     dxerr8:dxerr8.obj
 0002:0001a8f8       ??_C@_1JE@HCIGEOPN@?$AAA?$AAt?$AAt?$AAe?$AAm?$AAp?$AAt?$AA?5?$AAt?$AAo?$AA?5?$AAu?$AAs?$AAe?$AA?5?$AAD?$AAi?$AAr?$AAe?$AAc@ 100698f8     dxerr8:dxerr8.obj
 0002:0001a990       ??_C@_1FK@KGCNEMMD@?$AAA?$AA?5?$AAc?$AAi?$AAr?$AAc?$AAu?$AAl?$AAa?$AAr?$AA?5?$AAl?$AAo?$AAo?$AAp?$AA?5?$AAo?$AAf?$AA?5?$AAs@ 10069990     dxerr8:dxerr8.obj
 0002:0001a9f0       ??_C@_1EK@HJOGDJJN@?$AAN?$AAo?$AA?5?$AAs?$AAo?$AAu?$AAn?$AAd?$AA?5?$AAd?$AAr?$AAi?$AAv?$AAe?$AAr?$AA?5?$AAi?$AAs?$AA?5?$AAa@ 100699f0     dxerr8:dxerr8.obj
 0002:0001aa40       ??_C@_1GM@BFCIAOCH@?$AAT?$AAh?$AAe?$AA?5?$AAb?$AAu?$AAf?$AAf?$AAe?$AAr?$AA?5?$AAm?$AAe?$AAm?$AAo?$AAr?$AAy?$AA?5?$AAh?$AAa@ 10069a40     dxerr8:dxerr8.obj
 0002:0001aab0       ??_C@_1JM@GDKAGHIL@?$AAA?$AAn?$AAo?$AAt?$AAh?$AAe?$AAr?$AA?5?$AAa?$AAp?$AAp?$AA?5?$AAh?$AAa?$AAs?$AA?5?$AAa?$AA?5?$AAh?$AAi@ 10069ab0     dxerr8:dxerr8.obj
 0002:0001ab50       ??_C@_1FG@JDFKDBMK@?$AAT?$AAh?$AAe?$AA?5?$AAs?$AAp?$AAe?$AAc?$AAi?$AAf?$AAi?$AAe?$AAd?$AA?5?$AAW?$AAA?$AAV?$AAE?$AA?5?$AAf@ 10069b50     dxerr8:dxerr8.obj
 0002:0001aba8       ??_C@_1IM@CGDGKKIE@?$AAT?$AAh?$AAe?$AA?5?$AAc?$AAo?$AAn?$AAt?$AAr?$AAo?$AAl?$AA?5?$AA?$CI?$AAv?$AAo?$AAl?$AA?0?$AA?5?$AAp?$AAa@ 10069ba8     dxerr8:dxerr8.obj
 0002:0001ac38       ??_C@_1HI@FBMNMABF@?$AAT?$AAh?$AAi?$AAs?$AA?5?$AAc?$AAa?$AAl?$AAl?$AA?5?$AAi?$AAs?$AA?5?$AAn?$AAo?$AAt?$AA?5?$AAv?$AAa?$AAl@ 10069c38     dxerr8:dxerr8.obj
 0002:0001acb0       ??_C@_1KC@HEPEDFEO@?$AAT?$AAh?$AAe?$AA?5?$AAc?$AAa?$AAl?$AAl?$AAe?$AAr?$AA?5?$AAd?$AAo?$AAe?$AAs?$AA?5?$AAn?$AAo?$AAt?$AA?5@ 10069cb0     dxerr8:dxerr8.obj
 0002:0001ad58       ??_C@_1MO@LHJEMJFM@?$AAT?$AAh?$AAe?$AA?5?$AAc?$AAa?$AAl?$AAl?$AA?5?$AAf?$AAa?$AAi?$AAl?$AAe?$AAd?$AA?5?$AAb?$AAe?$AAc?$AAa@ 10069d58     dxerr8:dxerr8.obj
 0002:0001ae28       ??_C@_1CC@EGPIIHJF@?$AAC?$AAa?$AAn?$AAn?$AAo?$AAt?$AA?5?$AAa?$AAt?$AAt?$AAr?$AA?5?$AAs?$AAo?$AAr?$AAt?$AA?$AA@ 10069e28     dxerr8:dxerr8.obj
 0002:0001ae4c       ??_C@_1CO@IEFMOGKL@?$AAS?$AAk?$AAi?$AAn?$AAn?$AAi?$AAn?$AAg?$AA?5?$AAn?$AAo?$AAt?$AA?5?$AAs?$AAu?$AAp?$AAp?$AAo?$AAr?$AAt@ 10069e4c     dxerr8:dxerr8.obj
 0002:0001ae7c       ??_C@_1CI@GEMGDKEH@?$AAT?$AAo?$AAo?$AA?5?$AAm?$AAa?$AAn?$AAy?$AA?5?$AAi?$AAn?$AAf?$AAl?$AAu?$AAe?$AAn?$AAc?$AAe?$AAs?$AA?$AA@ 10069e7c     dxerr8:dxerr8.obj
 0002:0001aea4       ??_C@_1BK@KFPJPCN@?$AAI?$AAn?$AAv?$AAa?$AAl?$AAi?$AAd?$AA?5?$AAd?$AAa?$AAt?$AAa?$AA?$AA@ 10069ea4     dxerr8:dxerr8.obj
 0002:0001aec0       ??_C@_1BK@BCANMFCP@?$AAI?$AAn?$AAv?$AAa?$AAl?$AAi?$AAd?$AA?5?$AAm?$AAe?$AAs?$AAh?$AA?$AA@ 10069ec0     dxerr8:dxerr8.obj
 0002:0001aedc       ??_C@_1BK@PFGMNMHP@?$AAI?$AAn?$AAv?$AAa?$AAl?$AAi?$AAd?$AA?5?$AAc?$AAa?$AAl?$AAl?$AA?$AA@ 10069edc     dxerr8:dxerr8.obj
 0002:0001aef8       ??_C@_1CI@BDBPKAII@?$AAD?$AAr?$AAi?$AAv?$AAe?$AAr?$AA?5?$AAi?$AAn?$AAv?$AAa?$AAl?$AAi?$AAd?$AA?5?$AAc?$AAa?$AAl?$AAl?$AA?$AA@ 10069ef8     dxerr8:dxerr8.obj
 0002:0001af20       ??_C@_1DI@FEOMGDEE@?$AAC?$AAa?$AAn?$AA?5?$AAn?$AAo?$AAt?$AA?5?$AAm?$AAo?$AAd?$AAi?$AAf?$AAy?$AA?5?$AAi?$AAn?$AAd?$AAe?$AAx@ 10069f20     dxerr8:dxerr8.obj
 0002:0001af58       ??_C@_1BO@CPGPKKJJ@?$AAI?$AAn?$AAv?$AAa?$AAl?$AAi?$AAd?$AA?5?$AAd?$AAe?$AAv?$AAi?$AAc?$AAe?$AA?$AA@ 10069f58     dxerr8:dxerr8.obj
 0002:0001af78       ??_C@_1BE@PNNKNJKJ@?$AAM?$AAo?$AAr?$AAe?$AA?5?$AAd?$AAa?$AAt?$AAa?$AA?$AA@ 10069f78     dxerr8:dxerr8.obj
 0002:0001af8c       ??_C@_1BI@OFKIBMCF@?$AAD?$AAe?$AAv?$AAi?$AAc?$AAe?$AA?5?$AAl?$AAo?$AAs?$AAt?$AA?$AA@ 10069f8c     dxerr8:dxerr8.obj
 0002:0001afa4       ??_C@_1CC@KDCECJAJ@?$AAD?$AAe?$AAv?$AAi?$AAc?$AAe?$AA?5?$AAn?$AAo?$AAt?$AA?5?$AAr?$AAe?$AAs?$AAe?$AAt?$AA?$AA@ 10069fa4     dxerr8:dxerr8.obj
 0002:0001afc8       ??_C@_1BM@FAFGHBGO@?$AAN?$AAo?$AAt?$AA?5?$AAa?$AAv?$AAa?$AAi?$AAl?$AAa?$AAb?$AAl?$AAe?$AA?$AA@ 10069fc8     dxerr8:dxerr8.obj
 0002:0001afe4       ??_C@_1BE@IOCEGDOC@?$AAN?$AAo?$AAt?$AA?5?$AAf?$AAo?$AAu?$AAn?$AAd?$AA?$AA@ 10069fe4     dxerr8:dxerr8.obj
 0002:0001aff8       ??_C@_1CM@HMIGCDMM@?$AAD?$AAr?$AAi?$AAv?$AAe?$AAr?$AA?5?$AAi?$AAn?$AAt?$AAe?$AAr?$AAn?$AAa?$AAl?$AA?5?$AAe?$AAr?$AAr?$AAo@ 10069ff8     dxerr8:dxerr8.obj
 0002:0001b024       ??_C@_1DI@LMFCMFEA@?$AAC?$AAo?$AAn?$AAf?$AAl?$AAi?$AAc?$AAt?$AAi?$AAn?$AAg?$AA?5?$AAt?$AAe?$AAx?$AAt?$AAu?$AAr?$AAe?$AA?5@ 1006a024     dxerr8:dxerr8.obj
 0002:0001b05c       ??_C@_1DG@PBCADFF@?$AAU?$AAn?$AAs?$AAu?$AAp?$AAp?$AAo?$AAr?$AAt?$AAe?$AAd?$AA?5?$AAt?$AAe?$AAx?$AAt?$AAu?$AAr?$AAe?$AA?5@ 1006a05c     dxerr8:dxerr8.obj
 0002:0001b094       ??_C@_1DC@PNDHJPOK@?$AAC?$AAo?$AAn?$AAf?$AAl?$AAi?$AAc?$AAt?$AAi?$AAn?$AAg?$AA?5?$AAr?$AAe?$AAn?$AAd?$AAe?$AAr?$AA?5?$AAs@ 1006a094     dxerr8:dxerr8.obj
 0002:0001b0c8       ??_C@_1DC@GGDCPHOL@?$AAU?$AAn?$AAs?$AAu?$AAp?$AAp?$AAo?$AAr?$AAt?$AAe?$AAd?$AA?5?$AAf?$AAa?$AAc?$AAt?$AAo?$AAr?$AA?5?$AAv@ 1006a0c8     dxerr8:dxerr8.obj
 0002:0001b0fc       ??_C@_1DG@PFIFGMPI@?$AAC?$AAo?$AAn?$AAf?$AAl?$AAi?$AAc?$AAt?$AAi?$AAn?$AAg?$AA?5?$AAt?$AAe?$AAx?$AAt?$AAu?$AAr?$AAe?$AA?5@ 1006a0fc     dxerr8:dxerr8.obj
 0002:0001b134       ??_C@_1CI@PEDNHJMD@?$AAT?$AAo?$AAo?$AA?5?$AAm?$AAa?$AAn?$AAy?$AA?5?$AAo?$AAp?$AAe?$AAr?$AAa?$AAt?$AAi?$AAo?$AAn?$AAs?$AA?$AA@ 1006a134     dxerr8:dxerr8.obj
 0002:0001b15c       ??_C@_1CM@LHMNAILH@?$AAU?$AAn?$AAs?$AAu?$AAp?$AAp?$AAo?$AAr?$AAt?$AAe?$AAd?$AA?5?$AAa?$AAl?$AAp?$AAh?$AAa?$AA?5?$AAa?$AAr@ 1006a15c     dxerr8:dxerr8.obj
 0002:0001b188       ??_C@_1DI@CKNGIIKO@?$AAU?$AAn?$AAs?$AAu?$AAp?$AAp?$AAo?$AAr?$AAt?$AAe?$AAd?$AA?5?$AAa?$AAl?$AAp?$AAh?$AAa?$AA?5?$AAo?$AAp@ 1006a188     dxerr8:dxerr8.obj
 0002:0001b1c0       ??_C@_1CM@MIMLNLMD@?$AAU?$AAn?$AAs?$AAu?$AAp?$AAp?$AAo?$AAr?$AAt?$AAe?$AAd?$AA?5?$AAc?$AAo?$AAl?$AAo?$AAr?$AA?5?$AAa?$AAr@ 1006a1c0     dxerr8:dxerr8.obj
 0002:0001b1ec       ??_C@_1DI@LJCDMANM@?$AAU?$AAn?$AAs?$AAu?$AAp?$AAp?$AAo?$AAr?$AAt?$AAe?$AAd?$AA?5?$AAc?$AAo?$AAl?$AAo?$AAr?$AA?5?$AAo?$AAp@ 1006a1ec     dxerr8:dxerr8.obj
 0002:0001b224       ??_C@_1CK@MNHDOMMC@?$AAW?$AAr?$AAo?$AAn?$AAg?$AA?5?$AAt?$AAe?$AAx?$AAt?$AAu?$AAr?$AAe?$AA?5?$AAf?$AAo?$AAr?$AAm?$AAa?$AAt@ 1006a224     dxerr8:dxerr8.obj
 0002:0001b250       ??_C@_1BI@FCOFJKBC@?$AAN?$AAo?$AA?5?$AAi?$AAn?$AAt?$AAe?$AAr?$AAn?$AAe?$AAt?$AA?$AA@ 1006a250     dxerr8:dxerr8.obj
 0002:0001b268       ??_C@_1BO@FMMKLKDG@?$AAB?$AAa?$AAd?$AA?5?$AAc?$AAa?$AAc?$AAh?$AAe?$AA?5?$AAf?$AAi?$AAl?$AAe?$AA?$AA@ 1006a268     dxerr8:dxerr8.obj
 0002:0001b288       ??_C@_1BK@FKLCKGPG@?$AAN?$AAo?$AA?5?$AAm?$AAo?$AAr?$AAe?$AA?5?$AAd?$AAa?$AAt?$AAa?$AA?$AA@ 1006a288     dxerr8:dxerr8.obj
 0002:0001b2a4       ??_C@_1CO@FLOBLPKB@?$AAN?$AAo?$AA?5?$AAm?$AAo?$AAr?$AAe?$AA?5?$AAs?$AAt?$AAr?$AAe?$AAa?$AAm?$AA?5?$AAh?$AAa?$AAn?$AAd?$AAl@ 1006a2a4     dxerr8:dxerr8.obj
 0002:0001b2d4       ??_C@_1BO@NMFLPCKA@?$AAB?$AAa?$AAd?$AA?5?$AAi?$AAn?$AAt?$AAr?$AAi?$AAn?$AAs?$AAi?$AAc?$AAs?$AA?$AA@ 1006a2d4     dxerr8:dxerr8.obj
 0002:0001b2f4       ??_C@_1CA@JHNJMKEG@?$AAN?$AAo?$AA?5?$AAm?$AAo?$AAr?$AAe?$AA?5?$AAo?$AAb?$AAj?$AAe?$AAc?$AAt?$AAs?$AA?$AA@ 1006a2f4     dxerr8:dxerr8.obj
 0002:0001b314       ??_C@_1BO@HHKHPBJO@?$AAI?$AAn?$AAt?$AAe?$AAr?$AAn?$AAa?$AAl?$AA?5?$AAe?$AAr?$AAr?$AAo?$AAr?$AA?$AA@ 1006a314     dxerr8:dxerr8.obj
 0002:0001b334       ??_C@_1CG@ECBGGKFI@?$AAB?$AAa?$AAd?$AA?5?$AAd?$AAa?$AAt?$AAa?$AA?5?$AAr?$AAe?$AAf?$AAe?$AAr?$AAe?$AAn?$AAc?$AAe?$AA?$AA@ 1006a334     dxerr8:dxerr8.obj
 0002:0001b35c       ??_C@_1BO@HJDAHHBF@?$AAB?$AAa?$AAd?$AA?5?$AAa?$AAr?$AAr?$AAa?$AAy?$AA?5?$AAs?$AAi?$AAz?$AAe?$AA?$AA@ 1006a35c     dxerr8:dxerr8.obj
 0002:0001b37c       ??_C@_1BI@EJABDJKP@?$AAN?$AAo?$AA?5?$AAt?$AAe?$AAm?$AAp?$AAl?$AAa?$AAt?$AAe?$AA?$AA@ 1006a37c     dxerr8:dxerr8.obj
 0002:0001b394       ??_C@_1BI@GMECCEIM@?$AAP?$AAa?$AAr?$AAs?$AAe?$AA?5?$AAe?$AAr?$AAr?$AAo?$AAr?$AA?$AA@ 1006a394     dxerr8:dxerr8.obj
 0002:0001b3ac       ??_C@_1BC@FNEHOLDK@?$AAB?$AAa?$AAd?$AA?5?$AAf?$AAi?$AAl?$AAe?$AA?$AA@ 1006a3ac     dxerr8:dxerr8.obj
 0002:0001b3c0       ??_C@_1DE@HLKGCPEH@?$AAB?$AAa?$AAd?$AA?5?$AAf?$AAi?$AAl?$AAe?$AA?5?$AAc?$AAo?$AAm?$AAp?$AAr?$AAe?$AAs?$AAs?$AAi?$AAo?$AAn@ 1006a3c0     dxerr8:dxerr8.obj
 0002:0001b3f4       ??_C@_1CI@CPOAOLJI@?$AAB?$AAa?$AAd?$AA?5?$AAf?$AAi?$AAl?$AAe?$AA?5?$AAf?$AAl?$AAo?$AAa?$AAt?$AA?5?$AAs?$AAi?$AAz?$AAe?$AA?$AA@ 1006a3f4     dxerr8:dxerr8.obj
 0002:0001b41c       ??_C@_1CC@FMALMCAB@?$AAB?$AAa?$AAd?$AA?5?$AAf?$AAi?$AAl?$AAe?$AA?5?$AAv?$AAe?$AAr?$AAs?$AAi?$AAo?$AAn?$AA?$AA@ 1006a41c     dxerr8:dxerr8.obj
 0002:0001b440       ??_C@_1BM@PFLODABF@?$AAB?$AAa?$AAd?$AA?5?$AAf?$AAi?$AAl?$AAe?$AA?5?$AAt?$AAy?$AAp?$AAe?$AA?$AA@ 1006a440     dxerr8:dxerr8.obj
 0002:0001b45c       ??_C@_1BK@ODMBBGCP@?$AAB?$AAa?$AAd?$AA?5?$AAr?$AAe?$AAs?$AAo?$AAu?$AAr?$AAc?$AAe?$AA?$AA@ 1006a45c     dxerr8:dxerr8.obj
 0002:0001b478       ??_C@_1BM@HFLGLDBM@?$AAU?$AAr?$AAl?$AA?5?$AAn?$AAo?$AAt?$AA?5?$AAf?$AAo?$AAu?$AAn?$AAd?$AA?$AA@ 1006a478     dxerr8:dxerr8.obj
 0002:0001b494       ??_C@_1CG@MNJEILLG@?$AAR?$AAe?$AAs?$AAo?$AAu?$AAr?$AAc?$AAe?$AA?5?$AAn?$AAo?$AAt?$AA?5?$AAf?$AAo?$AAu?$AAn?$AAd?$AA?$AA@ 1006a494     dxerr8:dxerr8.obj
 0002:0001b4bc       ??_C@_1BO@NBFENKDJ@?$AAF?$AAi?$AAl?$AAe?$AA?5?$AAn?$AAo?$AAt?$AA?5?$AAf?$AAo?$AAu?$AAn?$AAd?$AA?$AA@ 1006a4bc     dxerr8:dxerr8.obj
 0002:0001b4dc       ??_C@_1BK@IEADPFLI@?$AAN?$AAo?$AAt?$AA?5?$AAd?$AAo?$AAn?$AAe?$AA?5?$AAy?$AAe?$AAt?$AA?$AA@ 1006a4dc     dxerr8:dxerr8.obj
 0002:0001b4f8       ??_C@_1BE@IMIOBIO@?$AAB?$AAa?$AAd?$AA?5?$AAa?$AAl?$AAl?$AAo?$AAc?$AA?$AA@ 1006a4f8     dxerr8:dxerr8.obj
 0002:0001b50c       ??_C@_1CE@CCAJOKHK@?$AAB?$AAa?$AAd?$AA?5?$AAs?$AAt?$AAr?$AAe?$AAa?$AAm?$AA?5?$AAh?$AAa?$AAn?$AAd?$AAl?$AAe?$AA?$AA@ 1006a50c     dxerr8:dxerr8.obj
 0002:0001b530       ??_C@_1BC@HGLDEJCE@?$AAB?$AAa?$AAd?$AA?5?$AAt?$AAy?$AAp?$AAe?$AA?$AA@ 1006a530     dxerr8:dxerr8.obj
 0002:0001b544       ??_C@_1BE@CJABAGM@?$AAB?$AAa?$AAd?$AA?5?$AAv?$AAa?$AAl?$AAu?$AAe?$AA?$AA@ 1006a544     dxerr8:dxerr8.obj
 0002:0001b558       ??_C@_1BG@CICELCDJ@?$AAB?$AAa?$AAd?$AA?5?$AAo?$AAb?$AAj?$AAe?$AAc?$AAt?$AA?$AA@ 1006a558     dxerr8:dxerr8.obj
 0002:0001b570       ??_C@_1ME@MNHEBDFG@?$AAS?$AAu?$AAr?$AAf?$AAa?$AAc?$AAe?$AAs?$AA?5?$AAc?$AAr?$AAe?$AAa?$AAt?$AAe?$AAd?$AA?5?$AAb?$AAy?$AA?5@ 1006a570     dxerr8:dxerr8.obj
 0002:0001b638       ??_C@_1HE@GNKBCHNC@?$AAT?$AAh?$AAe?$AA?5?$AAd?$AAr?$AAi?$AAv?$AAe?$AAr?$AA?5?$AAd?$AAo?$AAe?$AAs?$AA?5?$AAn?$AAo?$AAt?$AA?5@ 1006a638     dxerr8:dxerr8.obj
 0002:0001b6b0       ??_C@_1EK@JPLDHMEF@?$AAT?$AAh?$AAe?$AA?5?$AAm?$AAo?$AAn?$AAi?$AAt?$AAo?$AAr?$AA?5?$AAd?$AAo?$AAe?$AAs?$AA?5?$AAn?$AAo?$AAt@ 1006a6b0     dxerr8:dxerr8.obj
 0002:0001b6fc       ??_C@_1DK@GHJDOMNJ@?$AAT?$AAh?$AAe?$AA?5?$AAv?$AAi?$AAd?$AAe?$AAo?$AA?5?$AAp?$AAo?$AAr?$AAt?$AA?5?$AAi?$AAs?$AA?5?$AAn?$AAo@ 1006a6fc     dxerr8:dxerr8.obj
 0002:0001b738       ??_C@_1EE@GNDLJMOB@?$AAD?$AA3?$AAD?$AA?5?$AAh?$AAa?$AAs?$AA?5?$AAn?$AAo?$AAt?$AA?5?$AAy?$AAe?$AAt?$AA?5?$AAb?$AAe?$AAe?$AAn@ 1006a738     dxerr8:dxerr8.obj
 0002:0001b780       ??_C@_1FE@MELPACHF@?$AAT?$AAh?$AAe?$AA?5?$AAm?$AAo?$AAd?$AAe?$AA?5?$AAt?$AAe?$AAs?$AAt?$AA?5?$AAh?$AAa?$AAs?$AA?5?$AAs?$AAw@ 1006a780     dxerr8:dxerr8.obj
 0002:0001b7d8       ??_C@_1EM@BPCKLEJN@?$AAT?$AAh?$AAe?$AA?5?$AAm?$AAo?$AAd?$AAe?$AA?5?$AAt?$AAe?$AAs?$AAt?$AA?5?$AAh?$AAa?$AAs?$AA?5?$AAf?$AAi@ 1006a7d8     dxerr8:dxerr8.obj
 0002:0001b828       ??_C@_1GO@FFPHOJLF@?$AAT?$AAh?$AAe?$AA?5?$AAd?$AAa?$AAt?$AAa?$AA?5?$AAh?$AAa?$AAs?$AA?5?$AAe?$AAx?$AAp?$AAi?$AAr?$AAe?$AAd@ 1006a828     dxerr8:dxerr8.obj
 0002:0001b898       ??_C@_1IO@NBAOEOPK@?$AAT?$AAh?$AAe?$AAr?$AAe?$AA?5?$AAi?$AAs?$AA?5?$AAm?$AAo?$AAr?$AAe?$AA?5?$AAd?$AAa?$AAt?$AAa?$AA?5?$AAa@ 1006a898     dxerr8:dxerr8.obj
 0002:0001b928       ??_C@_1JK@PCLODNDL@?$AAA?$AAn?$AA?5?$AAa?$AAt?$AAt?$AAe?$AAm?$AAp?$AAt?$AA?5?$AAw?$AAa?$AAs?$AA?5?$AAm?$AAa?$AAd?$AAe?$AA?5@ 1006a928     dxerr8:dxerr8.obj
 0002:0001b9c8       ??_C@_1FK@NFKHFIAL@?$AAT?$AAh?$AAe?$AA?5?$AAa?$AAt?$AAt?$AAe?$AAm?$AAp?$AAt?$AA?5?$AAt?$AAo?$AA?5?$AAp?$AAa?$AAg?$AAe?$AA?5@ 1006a9c8     dxerr8:dxerr8.obj
 0002:0001ba28       ??_C@_1FG@HHIGIOHB@?$AAT?$AAh?$AAe?$AA?5?$AAa?$AAt?$AAt?$AAe?$AAm?$AAp?$AAt?$AA?5?$AAt?$AAo?$AA?5?$AAp?$AAa?$AAg?$AAe?$AA?5@ 1006aa28     dxerr8:dxerr8.obj
 0002:0001ba80       ??_C@_1OG@DBEBCFDJ@?$AAA?$AAn?$AA?5?$AAa?$AAt?$AAt?$AAe?$AAm?$AAp?$AAt?$AA?5?$AAw?$AAa?$AAs?$AA?5?$AAm?$AAa?$AAd?$AAe?$AA?5@ 1006aa80     dxerr8:dxerr8.obj
 0002:0001bb68       ??_C@_1LG@OMDLPOLJ@?$AAA?$AA?5?$AAD?$AAC?$AA?5?$AAh?$AAa?$AAs?$AA?5?$AAa?$AAl?$AAr?$AAe?$AAa?$AAd?$AAy?$AA?5?$AAb?$AAe?$AAe@ 1006ab68     dxerr8:dxerr8.obj
 0002:0001bc20       ??_C@_1GO@PPFIABOO@?$AAA?$AAt?$AAt?$AAe?$AAm?$AAp?$AAt?$AA?5?$AAw?$AAa?$AAs?$AA?5?$AAm?$AAa?$AAd?$AAe?$AA?5?$AAt?$AAo?$AA?5@ 1006ac20     dxerr8:dxerr8.obj
 0002:0001bc90       ??_C@_1LC@HPIMHMBF@?$AAA?$AAt?$AAt?$AAe?$AAm?$AAp?$AAt?$AA?5?$AAw?$AAa?$AAs?$AA?5?$AAm?$AAa?$AAd?$AAe?$AA?5?$AAt?$AAo?$AA?5@ 1006ac90     dxerr8:dxerr8.obj
 0002:0001bd48       ??_C@_1JG@KLNAJPJF@?$AAS?$AAu?$AAr?$AAf?$AAa?$AAc?$AAe?$AA?5?$AAi?$AAs?$AA?5?$AAa?$AAn?$AA?5?$AAo?$AAp?$AAt?$AAi?$AAm?$AAi@ 1006ad48     dxerr8:dxerr8.obj
 0002:0001bde0       ??_C@_1LC@MBOLHEKA@?$AAD?$AAe?$AAv?$AAi?$AAc?$AAe?$AA?5?$AAd?$AAo?$AAe?$AAs?$AA?5?$AAn?$AAo?$AAt?$AA?5?$AAs?$AAu?$AAp?$AAp@ 1006ade0     dxerr8:dxerr8.obj
 0002:0001be98       ??_C@_1KO@LPCGKHMO@?$AAT?$AAh?$AAe?$AA?5?$AAr?$AAe?$AAq?$AAu?$AAe?$AAs?$AAt?$AAe?$AAd?$AA?5?$AAa?$AAc?$AAt?$AAi?$AAo?$AAn@ 1006ae98     dxerr8:dxerr8.obj
 0002:0001bf48       ??_C@_1NM@MCNFGDNM@?$AAO?$AAp?$AAe?$AAr?$AAa?$AAt?$AAi?$AAo?$AAn?$AA?5?$AAc?$AAo?$AAu?$AAl?$AAd?$AA?5?$AAn?$AAo?$AAt?$AA?5@ 1006af48     dxerr8:dxerr8.obj
 0002:0001c028       ??_C@_1GA@FICMEIKC@?$AAT?$AAh?$AAe?$AA?5?$AAd?$AAi?$AAs?$AAp?$AAl?$AAa?$AAy?$AA?5?$AAi?$AAs?$AA?5?$AAc?$AAu?$AAr?$AAr?$AAe@ 1006b028     dxerr8:dxerr8.obj
 0002:0001c088       ??_C@_1GM@HBEDBPAA@?$AAT?$AAh?$AAe?$AA?5?$AAs?$AAu?$AAr?$AAf?$AAa?$AAc?$AAe?$AA?5?$AAb?$AAe?$AAi?$AAn?$AAg?$AA?5?$AAu?$AAs@ 1006b088     dxerr8:dxerr8.obj
 0002:0001c0f8       ??_C@_1JM@LFJDKHFP@?$AAT?$AAh?$AAi?$AAs?$AA?5?$AAs?$AAu?$AAr?$AAf?$AAa?$AAc?$AAe?$AA?5?$AAc?$AAa?$AAn?$AA?5?$AAn?$AAo?$AAt@ 1006b0f8     dxerr8:dxerr8.obj
 0002:0001c198       ??_C@_1JK@DHJGEIGL@?$AAT?$AAh?$AAi?$AAs?$AA?5?$AAs?$AAu?$AAr?$AAf?$AAa?$AAc?$AAe?$AA?5?$AAc?$AAa?$AAn?$AA?5?$AAn?$AAo?$AAt@ 1006b198     dxerr8:dxerr8.obj
 0002:0001c238       ??_C@_1FC@IHAKGGFP@?$AAN?$AAo?$AA?5?$AAD?$AAC?$AA?5?$AAw?$AAa?$AAs?$AA?5?$AAe?$AAv?$AAe?$AAr?$AA?5?$AAc?$AAr?$AAe?$AAa?$AAt@ 1006b238     dxerr8:dxerr8.obj
 0002:0001c290       ??_C@_1BNE@DCLFAPOE@?$AAW?$AAi?$AAn?$AAd?$AAo?$AAw?$AAs?$AA?5?$AAc?$AAa?$AAn?$AA?5?$AAn?$AAo?$AAt?$AA?5?$AAc?$AAr?$AAe?$AAa@ 1006b290     dxerr8:dxerr8.obj
 0002:0001c468       ??_C@_1PI@HBFHOPGK@?$AAS?$AAu?$AAr?$AAf?$AAa?$AAc?$AAe?$AA?5?$AAw?$AAa?$AAs?$AA?5?$AAn?$AAo?$AAt?$AA?5?$AAl?$AAo?$AAc?$AAk@ 1006b468     dxerr8:dxerr8.obj
 0002:0001c560       ??_C@_1KA@DBDBEFFA@?$AAC?$AAa?$AAn?$AA?8?$AAt?$AA?5?$AAd?$AAu?$AAp?$AAl?$AAi?$AAc?$AAa?$AAt?$AAe?$AA?5?$AAp?$AAr?$AAi?$AAm@ 1006b560     dxerr8:dxerr8.obj
 0002:0001c600       ??_C@_1IE@MOFGEGPG@?$AAA?$AAn?$AA?5?$AAa?$AAt?$AAt?$AAe?$AAm?$AAp?$AAt?$AA?5?$AAh?$AAa?$AAs?$AA?5?$AAb?$AAe?$AAe?$AAn?$AA?5@ 1006b600     dxerr8:dxerr8.obj
 0002:0001c688       ??_C@_1KO@JJMHDIFA@?$AAA?$AAn?$AA?5?$AAa?$AAt?$AAt?$AAe?$AAm?$AAp?$AAt?$AA?5?$AAw?$AAa?$AAs?$AA?5?$AAm?$AAa?$AAd?$AAe?$AA?5@ 1006b688     dxerr8:dxerr8.obj
 0002:0001c738       ??_C@_1II@NFNCDPE@?$AAr?$AAe?$AAt?$AAu?$AAr?$AAn?$AAe?$AAd?$AA?5?$AAw?$AAh?$AAe?$AAn?$AA?5?$AAa?$AAn?$AA?5?$AAo?$AAv?$AAe@ 1006b738     dxerr8:dxerr8.obj
 0002:0001c7c0       ??_C@_1NA@HNABAD@?$AAr?$AAe?$AAt?$AAu?$AAr?$AAn?$AAe?$AAd?$AA?5?$AAw?$AAh?$AAe?$AAn?$AA?5?$AAt?$AAh?$AAe?$AA?5?$AAp?$AAo@ 1006b7c0     dxerr8:dxerr8.obj
 0002:0001c890       ??_C@_1BAC@CCLKMAEN@?$AAr?$AAe?$AAt?$AAu?$AAr?$AAn?$AAe?$AAd?$AA?5?$AAw?$AAh?$AAe?$AAn?$AA?5?$AAG?$AAe?$AAt?$AAO?$AAv?$AAe@ 1006b890     dxerr8:dxerr8.obj
 0002:0001c998       ??_C@_1HO@MHIPJFM@?$AAr?$AAe?$AAt?$AAu?$AAr?$AAn?$AAe?$AAd?$AA?5?$AAw?$AAh?$AAe?$AAn?$AA?5?$AAG?$AAe?$AAt?$AAO?$AAv?$AAe@ 1006b998     dxerr8:dxerr8.obj
 0002:0001ca18       ??_C@_1DI@FFDIFFJ@?$AAN?$AAo?$AA?5?$AAD?$AAi?$AAr?$AAe?$AAc?$AAt?$AAD?$AAr?$AAa?$AAw?$AA?5?$AAR?$AAO?$AAP?$AA?5?$AAh?$AAa@ 1006ba18     dxerr8:dxerr8.obj
 0002:0001ca50       ??_C@_1BE@PLOEANLB@?$AAN?$AAo?$AA?5?$AAb?$AAl?$AAt?$AAe?$AAr?$AA?4?$AA?$AA@ 1006ba50     dxerr8:dxerr8.obj
 0002:0001ca68       ??_C@_1KE@CIILHEIA@?$AAI?$AAf?$AA?5?$AAa?$AA?5?$AAc?$AAl?$AAi?$AAp?$AAp?$AAe?$AAr?$AA?5?$AAo?$AAb?$AAj?$AAe?$AAc?$AAt?$AA?5@ 1006ba68     dxerr8:dxerr8.obj
 0002:0001cb10       ??_C@_1GE@NHKPGIAM@?$AAN?$AAo?$AA?5?$AAh?$AAa?$AAr?$AAd?$AAw?$AAa?$AAr?$AAe?$AA?5?$AAs?$AAu?$AAp?$AAp?$AAo?$AAr?$AAt?$AA?5@ 1006bb10     dxerr8:dxerr8.obj
 0002:0001cb78       ??_C@_1FI@ILIDDGPJ@?$AAN?$AAo?$AA?5?$AAp?$AAa?$AAl?$AAe?$AAt?$AAt?$AAe?$AA?5?$AAo?$AAb?$AAj?$AAe?$AAc?$AAt?$AA?5?$AAa?$AAt@ 1006bb78     dxerr8:dxerr8.obj
 0002:0001cbd0       ??_C@_1PA@CNHNCEBD@?$AAT?$AAh?$AAe?$AA?5?$AAC?$AAo?$AAo?$AAp?$AAe?$AAr?$AAa?$AAt?$AAi?$AAv?$AAe?$AAL?$AAe?$AAv?$AAe?$AAl@ 1006bbd0     dxerr8:dxerr8.obj
 0002:0001ccc0       ??_C@_1NK@HKGGANBM@?$AAH?$AAW?$AAN?$AAD?$AA?5?$AAu?$AAs?$AAe?$AAd?$AA?5?$AAb?$AAy?$AA?5?$AAD?$AAi?$AAr?$AAe?$AAc?$AAt?$AAD@ 1006bcc0     dxerr8:dxerr8.obj
 0002:0001cda0       ??_C@_1MO@FKLPHJBB@?$AAC?$AAl?$AAi?$AAp?$AAp?$AAe?$AAr?$AA?5?$AAn?$AAo?$AAt?$AAi?$AAf?$AAi?$AAc?$AAa?$AAt?$AAi?$AAo?$AAn@ 1006bda0     dxerr8:dxerr8.obj
 0002:0001ce70       ??_C@_1FK@PIKOHIAL@?$AAN?$AAo?$AA?5?$AAc?$AAl?$AAi?$AAp?$AAp?$AAe?$AAr?$AA?5?$AAo?$AAb?$AAj?$AAe?$AAc?$AAt?$AA?5?$AAa?$AAt@ 1006be70     dxerr8:dxerr8.obj
 0002:0001ced0       ??_C@_1LO@NPANNHLH@?$AAa?$AAn?$AA?5?$AAa?$AAt?$AAt?$AAe?$AAm?$AAp?$AAt?$AA?5?$AAw?$AAa?$AAs?$AA?5?$AAm?$AAa?$AAd?$AAe?$AA?5@ 1006bed0     dxerr8:dxerr8.obj
 0002:0001cf90       ??_C@_1GI@ENEKHHOK@?$AAr?$AAe?$AAg?$AAi?$AAo?$AAn?$AA?5?$AAp?$AAa?$AAs?$AAs?$AAe?$AAd?$AA?5?$AAt?$AAo?$AA?5?$AAC?$AAl?$AAi@ 1006bf90     dxerr8:dxerr8.obj
 0002:0001cff8       ??_C@_1EE@DIKGAIJN@?$AAs?$AAo?$AAf?$AAt?$AAw?$AAa?$AAr?$AAe?$AA?5?$AAe?$AAm?$AAu?$AAl?$AAa?$AAt?$AAi?$AAo?$AAn?$AA?5?$AAn@ 1006bff8     dxerr8:dxerr8.obj
 0002:0001d040       ??_C@_1GG@BAHIFOKD@?$AAt?$AAh?$AAi?$AAs?$AA?5?$AAp?$AAr?$AAo?$AAc?$AAe?$AAs?$AAs?$AA?5?$AAa?$AAl?$AAr?$AAe?$AAa?$AAd?$AAy@ 1006c040     dxerr8:dxerr8.obj
 0002:0001d0a8       ??_C@_1MM@FDMDCNJB@?$AAA?$AA?5?$AAh?$AAa?$AAr?$AAd?$AAw?$AAa?$AAr?$AAe?$AA?5?$AAo?$AAn?$AAl?$AAy?$AA?5?$AAD?$AAi?$AAr?$AAe@ 1006c0a8     dxerr8:dxerr8.obj
 0002:0001d178       ??_C@_1LA@LCINOCDK@?$AAA?$AA?5?$AAD?$AAi?$AAr?$AAe?$AAc?$AAt?$AAD?$AAr?$AAa?$AAw?$AA?5?$AAo?$AAb?$AAj?$AAe?$AAc?$AAt?$AA?5@ 1006c178     dxerr8:dxerr8.obj
 0002:0001d228       ??_C@_1KC@OPBKBCG@?$AAT?$AAh?$AAe?$AA?5?$AAG?$AAU?$AAI?$AAD?$AA?5?$AAp?$AAa?$AAs?$AAs?$AAe?$AAd?$AA?5?$AAt?$AAo?$AA?5?$AAD@ 1006c228     dxerr8:dxerr8.obj
 0002:0001d2d0       ??_C@_1IE@OICAACEK@?$AAR?$AAe?$AAc?$AAt?$AAa?$AAn?$AAg?$AAl?$AAe?$AA?5?$AAp?$AAr?$AAo?$AAv?$AAi?$AAd?$AAe?$AAd?$AA?5?$AAw@ 1006c2d0     dxerr8:dxerr8.obj
 0002:0001d358       ??_C@_1IM@JNKBEDKF@?$AAT?$AAh?$AAe?$AA?5?$AAs?$AAp?$AAe?$AAc?$AAi?$AAf?$AAi?$AAe?$AAd?$AA?5?$AAs?$AAu?$AAr?$AAf?$AAa?$AAc@ 1006c358     dxerr8:dxerr8.obj
 0002:0001d3e8       ??_C@_1OC@ILAANGEF@?$AAI?$AAn?$AAf?$AAo?$AAr?$AAm?$AAs?$AA?5?$AAD?$AAi?$AAr?$AAe?$AAc?$AAt?$AAD?$AAr?$AAa?$AAw?$AA?5?$AAt@ 1006c3e8     dxerr8:dxerr8.obj
 0002:0001d4cc       ??_C@_1DM@CNANBGOP@?$AAv?$AAe?$AAr?$AAt?$AAi?$AAc?$AAa?$AAl?$AA?5?$AAb?$AAl?$AAa?$AAn?$AAk?$AA?5?$AAi?$AAs?$AA?5?$AAi?$AAn@ 1006c4cc     dxerr8:dxerr8.obj
 0002:0001d508       ??_C@_1FG@CCHDNKNG@?$AAT?$AAh?$AAe?$AA?5?$AAs?$AAp?$AAe?$AAc?$AAi?$AAf?$AAi?$AAe?$AAd?$AA?5?$AAs?$AAt?$AAr?$AAe?$AAa?$AAm@ 1006c508     dxerr8:dxerr8.obj
 0002:0001d560       ??_C@_1IG@LKLPPMKO@?$AAB?$AAi?$AAt?$AAm?$AAa?$AAs?$AAk?$AA?5?$AAi?$AAn?$AA?5?$AAt?$AAh?$AAe?$AA?5?$AAp?$AAi?$AAx?$AAe?$AAl@ 1006c560     dxerr8:dxerr8.obj
 0002:0001d5e8       ??_C@_1KM@DIICPHON@?$AAS?$AAi?$AAz?$AAe?$AA?5?$AAr?$AAe?$AAq?$AAu?$AAe?$AAs?$AAt?$AAe?$AAd?$AA?5?$AAb?$AAy?$AA?5?$AAD?$AAi@ 1006c5e8     dxerr8:dxerr8.obj
 0002:0001d698       ??_C@_1FI@DHCPDJGF@?$AAW?$AAi?$AAd?$AAt?$AAh?$AA?5?$AAr?$AAe?$AAq?$AAu?$AAe?$AAs?$AAt?$AAe?$AAd?$AA?5?$AAb?$AAy?$AA?5?$AAD@ 1006c698     dxerr8:dxerr8.obj
 0002:0001d6f0       ??_C@_1GI@PDAEEOBM@?$AAP?$AAi?$AAx?$AAe?$AAl?$AA?5?$AAf?$AAo?$AAr?$AAm?$AAa?$AAt?$AA?5?$AAr?$AAe?$AAq?$AAu?$AAe?$AAs?$AAt@ 1006c6f0     dxerr8:dxerr8.obj
 0002:0001d758       ??_C@_1FK@MCNLIJJC@?$AAH?$AAe?$AAi?$AAg?$AAh?$AAt?$AA?5?$AAr?$AAe?$AAq?$AAu?$AAe?$AAs?$AAt?$AAe?$AAd?$AA?5?$AAb?$AAy?$AA?5@ 1006c758     dxerr8:dxerr8.obj
 0002:0001d7b8       ??_C@_1CCE@CMKGAPGK@?$AAA?$AAc?$AAc?$AAe?$AAs?$AAs?$AA?5?$AAt?$AAo?$AA?5?$AAt?$AAh?$AAi?$AAs?$AA?5?$AAs?$AAu?$AAr?$AAf?$AAa@ 1006c7b8     dxerr8:dxerr8.obj
 0002:0001d9e0       ??_C@_1GO@LEPKIGFK@?$AAA?$AAc?$AAc?$AAe?$AAs?$AAs?$AA?5?$AAt?$AAo?$AA?5?$AAS?$AAu?$AAr?$AAf?$AAa?$AAc?$AAe?$AA?5?$AAr?$AAe@ 1006c9e0     dxerr8:dxerr8.obj
 0002:0001da50       ??_C@_1BDM@MNKBJHIC@?$AAA?$AAc?$AAc?$AAe?$AAs?$AAs?$AA?5?$AAt?$AAo?$AA?5?$AAt?$AAh?$AAi?$AAs?$AA?5?$AAs?$AAu?$AAr?$AAf?$AAa@ 1006ca50     dxerr8:dxerr8.obj
 0002:0001db90       ??_C@_1EO@CHMBHOIO@?$AAT?$AAh?$AAe?$AA?5?$AAr?$AAe?$AAq?$AAu?$AAe?$AAs?$AAt?$AAe?$AAd?$AA?5?$AAs?$AAu?$AAr?$AAf?$AAa?$AAc@ 1006cb90     dxerr8:dxerr8.obj
 0002:0001dbe0       ??_C@_1MC@MPLJHJCE@?$AAA?$AAc?$AAc?$AAe?$AAs?$AAs?$AA?5?$AAt?$AAo?$AA?5?$AAt?$AAh?$AAi?$AAs?$AA?5?$AAs?$AAu?$AAr?$AAf?$AAa@ 1006cbe0     dxerr8:dxerr8.obj
 0002:0001dca8       ??_C@_1MC@FKPNLEFM@?$AAA?$AAc?$AAc?$AAe?$AAs?$AAs?$AA?5?$AAt?$AAo?$AA?5?$AAt?$AAh?$AAi?$AAs?$AA?5?$AAp?$AAa?$AAl?$AAe?$AAt@ 1006cca8     dxerr8:dxerr8.obj
 0002:0001dd70       ??_C@_1FO@HGEOMCMG@?$AAN?$AAo?$AA?5?$AAs?$AAr?$AAc?$AA?5?$AAc?$AAo?$AAl?$AAo?$AAr?$AA?5?$AAk?$AAe?$AAy?$AA?5?$AAs?$AAp?$AAe@ 1006cd70     dxerr8:dxerr8.obj
 0002:0001ddd0       ??_C@_1JC@DGIGOMBK@?$AAT?$AAh?$AAi?$AAs?$AA?5?$AAs?$AAu?$AAr?$AAf?$AAa?$AAc?$AAe?$AA?5?$AAi?$AAs?$AA?5?$AAa?$AAl?$AAr?$AAe@ 1006cdd0     dxerr8:dxerr8.obj
 0002:0001de68       ??_C@_1KM@IHFEDMJK@?$AAT?$AAh?$AAi?$AAs?$AA?5?$AAs?$AAu?$AAr?$AAf?$AAa?$AAc?$AAe?$AA?5?$AAi?$AAs?$AA?5?$AAa?$AAl?$AAr?$AAe@ 1006ce68     dxerr8:dxerr8.obj
 0002:0001df18       ??_C@_1HI@FHFFGKKH@?$AAC?$AAa?$AAn?$AA?5?$AAo?$AAn?$AAl?$AAy?$AA?5?$AAh?$AAa?$AAv?$AAe?$AA?5?$AAo?$AAn?$AAy?$AA?5?$AAc?$AAo@ 1006cf18     dxerr8:dxerr8.obj
 0002:0001df90       ??_C@_1PM@MJJEFHJO@?$AAO?$AAv?$AAe?$AAr?$AAl?$AAa?$AAy?$AA?5?$AAs?$AAu?$AAr?$AAf?$AAa?$AAc?$AAe?$AAs?$AA?5?$AAc?$AAo?$AAu@ 1006cf90     dxerr8:dxerr8.obj
 0002:0001e090       ??_C@_1JI@CFNGGPPF@?$AAT?$AAh?$AAe?$AA?5?$AAh?$AAa?$AAr?$AAd?$AAw?$AAa?$AAr?$AAe?$AA?5?$AAn?$AAe?$AAe?$AAd?$AAe?$AAd?$AA?5@ 1006d090     dxerr8:dxerr8.obj
 0002:0001e128       ??_C@_1CI@MODDINHH@?$AAO?$AAu?$AAt?$AA?5?$AAo?$AAf?$AA?5?$AAv?$AAi?$AAd?$AAe?$AAo?$AA?5?$AAm?$AAe?$AAm?$AAo?$AAr?$AAy?$AA?$AA@ 1006d128     dxerr8:dxerr8.obj
 0002:0001e150       ??_C@_1FG@IIJBGNH@?$AAh?$AAa?$AAr?$AAd?$AAw?$AAa?$AAr?$AAe?$AA?5?$AAd?$AAo?$AAe?$AAs?$AA?5?$AAn?$AAo?$AAt?$AA?5?$AAs?$AAu@ 1006d150     dxerr8:dxerr8.obj
 0002:0001e1a8       ??_C@_1LI@CMJEKACN@?$AAO?$AAp?$AAe?$AAr?$AAa?$AAt?$AAi?$AAo?$AAn?$AA?5?$AAc?$AAo?$AAu?$AAl?$AAd?$AA?5?$AAn?$AAo?$AAt?$AA?5@ 1006d1a8     dxerr8:dxerr8.obj
 0002:0001e260       ??_C@_1MA@EGPOLAPP@?$AAD?$AAi?$AAr?$AAe?$AAc?$AAt?$AAD?$AAr?$AAa?$AAw?$AA?5?$AAS?$AAu?$AAr?$AAf?$AAa?$AAc?$AAe?$AA?5?$AAi@ 1006d260     dxerr8:dxerr8.obj
 0002:0001e320       ??_C@_1MM@KELGEPFD@?$AAO?$AAp?$AAe?$AAr?$AAa?$AAt?$AAi?$AAo?$AAn?$AA?5?$AAc?$AAo?$AAu?$AAl?$AAd?$AA?5?$AAn?$AAo?$AAt?$AA?5@ 1006d320     dxerr8:dxerr8.obj
 0002:0001e3f0       ??_C@_1OI@BIAJMKGK@?$AAO?$AAp?$AAe?$AAr?$AAa?$AAt?$AAi?$AAo?$AAn?$AA?5?$AAc?$AAo?$AAu?$AAl?$AAd?$AA?5?$AAn?$AAo?$AAt?$AA?5@ 1006d3f0     dxerr8:dxerr8.obj
 0002:0001e4d8       ??_C@_1OM@HICDBBEO@?$AAD?$AAi?$AAr?$AAe?$AAc?$AAt?$AAD?$AAr?$AAa?$AAw?$AAS?$AAu?$AAr?$AAf?$AAa?$AAc?$AAe?$AA?5?$AAi?$AAs@ 1006d4d8     dxerr8:dxerr8.obj
 0002:0001e5c8       ??_C@_1NI@IPOCMLNC@?$AAO?$AAp?$AAe?$AAr?$AAa?$AAt?$AAi?$AAo?$AAn?$AA?5?$AAc?$AAo?$AAu?$AAl?$AAd?$AA?5?$AAn?$AAo?$AAt?$AA?5@ 1006d5c8     dxerr8:dxerr8.obj
 0002:0001e6a0       ??_C@_1LO@DCLODCCP@?$AAO?$AAp?$AAe?$AAr?$AAa?$AAt?$AAi?$AAo?$AAn?$AA?5?$AAc?$AAo?$AAu?$AAl?$AAd?$AA?5?$AAn?$AAo?$AAt?$AA?5@ 1006d6a0     dxerr8:dxerr8.obj
 0002:0001e760       ??_C@_1KO@HHFKPPOP@?$AAO?$AAp?$AAe?$AAr?$AAa?$AAt?$AAi?$AAo?$AAn?$AA?5?$AAc?$AAo?$AAu?$AAl?$AAd?$AA?5?$AAn?$AAo?$AAt?$AA?5@ 1006d760     dxerr8:dxerr8.obj
 0002:0001e810       ??_C@_1NE@OABKDKHH@?$AAD?$AAi?$AAr?$AAe?$AAc?$AAt?$AAD?$AAr?$AAa?$AAw?$AAS?$AAu?$AAr?$AAf?$AAa?$AAc?$AAe?$AA?5?$AAi?$AAs@ 1006d810     dxerr8:dxerr8.obj
 0002:0001e8e8       ??_C@_1BAC@NBPACNOM@?$AAO?$AAp?$AAe?$AAr?$AAa?$AAt?$AAi?$AAo?$AAn?$AA?5?$AAc?$AAo?$AAu?$AAl?$AAd?$AA?5?$AAn?$AAo?$AAt?$AA?5@ 1006d8e8     dxerr8:dxerr8.obj
 0002:0001e9f0       ??_C@_1KM@KOFAAHOP@?$AAO?$AAp?$AAe?$AAr?$AAa?$AAt?$AAi?$AAo?$AAn?$AA?5?$AAc?$AAo?$AAu?$AAl?$AAd?$AA?5?$AAn?$AAo?$AAt?$AA?5@ 1006d9f0     dxerr8:dxerr8.obj
 0002:0001ea9c       ??_C@_1DK@LIKANHON@?$AAR?$AAe?$AAq?$AAu?$AAe?$AAs?$AAt?$AAe?$AAd?$AA?5?$AAi?$AAt?$AAe?$AAm?$AA?5?$AAw?$AAa?$AAs?$AA?5?$AAn@ 1006da9c     dxerr8:dxerr8.obj
 0002:0001ead8       ??_C@_1LM@KPEMJBHC@?$AAO?$AAp?$AAe?$AAr?$AAa?$AAt?$AAi?$AAo?$AAn?$AA?5?$AAc?$AAo?$AAu?$AAl?$AAd?$AA?5?$AAn?$AAo?$AAt?$AA?5@ 1006dad8     dxerr8:dxerr8.obj
 0002:0001eb94       ??_C@_1DC@PDJOPNKN@?$AAT?$AAh?$AAe?$AAr?$AAe?$AA?5?$AAi?$AAs?$AA?5?$AAn?$AAo?$AA?5?$AAG?$AAD?$AAI?$AA?5?$AAp?$AAr?$AAe?$AAs@ 1006db94     dxerr8:dxerr8.obj
 0002:0001ebc8       ??_C@_1LO@PPDCLMDK@?$AAO?$AAp?$AAe?$AAr?$AAa?$AAt?$AAi?$AAo?$AAn?$AA?5?$AAc?$AAo?$AAu?$AAl?$AAd?$AA?5?$AAn?$AAo?$AAt?$AA?5@ 1006dbc8     dxerr8:dxerr8.obj
 0002:0001ec88       ??_C@_1HG@CMJFOHPP@?$AAN?$AAo?$AA?5?$AAD?$AAi?$AAr?$AAe?$AAc?$AAt?$AAD?$AAr?$AAa?$AAw?$AA?5?$AAs?$AAu?$AAp?$AAp?$AAo?$AAr@ 1006dc88     dxerr8:dxerr8.obj
 0002:0001ed00       ??_C@_1NI@HNHBIJDK@?$AAO?$AAp?$AAe?$AAr?$AAa?$AAt?$AAi?$AAo?$AAn?$AA?5?$AAr?$AAe?$AAq?$AAu?$AAi?$AAr?$AAe?$AAs?$AA?5?$AAt@ 1006dd00     dxerr8:dxerr8.obj
 0002:0001edd8       ??_C@_1FI@IMKDDLIF@?$AAF?$AAl?$AAi?$AAp?$AAp?$AAi?$AAn?$AAg?$AA?5?$AAv?$AAi?$AAs?$AAi?$AAb?$AAl?$AAe?$AA?5?$AAs?$AAu?$AAr@ 1006ddd8     dxerr8:dxerr8.obj
 0002:0001ee30       ??_C@_1FG@MHACJCLG@?$AAS?$AAu?$AAr?$AAf?$AAa?$AAc?$AAe?$AA?5?$AAd?$AAo?$AAe?$AAs?$AAn?$AA?8?$AAt?$AA?5?$AAc?$AAu?$AAr?$AAr@ 1006de30     dxerr8:dxerr8.obj
 0002:0001ee88       ??_C@_1CO@GEEJFOLN@?$AAn?$AAo?$AA?5?$AAc?$AAl?$AAi?$AAp?$AA?5?$AAl?$AAi?$AAs?$AAt?$AA?5?$AAa?$AAv?$AAa?$AAi?$AAl?$AAa?$AAb@ 1006de88     dxerr8:dxerr8.obj
 0002:0001eeb8       ??_C@_1MO@MCPDAMPO@?$AAO?$AAp?$AAe?$AAr?$AAa?$AAt?$AAi?$AAo?$AAn?$AA?5?$AAc?$AAo?$AAu?$AAl?$AAd?$AA?5?$AAn?$AAo?$AAt?$AA?5@ 1006deb8     dxerr8:dxerr8.obj
 0002:0001ef88       ??_C@_1LE@CHGOLIBL@?$AAC?$AAr?$AAe?$AAa?$AAt?$AAe?$AA?5?$AAf?$AAu?$AAn?$AAc?$AAt?$AAi?$AAo?$AAn?$AA?5?$AAc?$AAa?$AAl?$AAl@ 1006df88     dxerr8:dxerr8.obj
 0002:0001f040       ??_C@_1MO@OBNLCFIM@?$AAO?$AAp?$AAe?$AAr?$AAa?$AAt?$AAi?$AAo?$AAn?$AA?5?$AAc?$AAo?$AAu?$AAl?$AAd?$AA?5?$AAn?$AAo?$AAt?$AA?5@ 1006e040     dxerr8:dxerr8.obj
 0002:0001f110       ??_C@_1JG@PIJNPIGK@?$AAO?$AAp?$AAe?$AAr?$AAa?$AAt?$AAi?$AAo?$AAn?$AA?5?$AAc?$AAo?$AAu?$AAl?$AAd?$AA?5?$AAn?$AAo?$AAt?$AA?5@ 1006e110     dxerr8:dxerr8.obj
 0002:0001f1a8       ??_C@_1DA@BOIPLNHA@?$AAT?$AAh?$AAe?$AAr?$AAe?$AA?5?$AAi?$AAs?$AA?5?$AAn?$AAo?$AA?5?$AA3?$AAD?$AA?5?$AAp?$AAr?$AAe?$AAs?$AAe@ 1006e1a8     dxerr8:dxerr8.obj
 0002:0001f1d8       ??_C@_1NA@IICLDJIF@?$AAO?$AAp?$AAe?$AAr?$AAa?$AAt?$AAi?$AAo?$AAn?$AA?5?$AAc?$AAo?$AAu?$AAl?$AAd?$AA?5?$AAn?$AAo?$AAt?$AA?5@ 1006e1d8     dxerr8:dxerr8.obj
 0002:0001f2a8       ??_C@_1LK@KFGNANE@?$AAO?$AAp?$AAe?$AAr?$AAa?$AAt?$AAi?$AAo?$AAn?$AA?5?$AAc?$AAo?$AAu?$AAl?$AAd?$AA?5?$AAn?$AAo?$AAt?$AA?5@ 1006e2a8     dxerr8:dxerr8.obj
 0002:0001f368       ??_C@_1EA@HOBAJCLN@?$AAR?$AAe?$AAc?$AAt?$AAa?$AAn?$AAg?$AAl?$AAe?$AA?5?$AAp?$AAr?$AAo?$AAv?$AAi?$AAd?$AAe?$AAd?$AA?5?$AAw@ 1006e368     dxerr8:dxerr8.obj
 0002:0001f3a8       ??_C@_1FO@FDJJKIJK@?$AAD?$AAi?$AAr?$AAe?$AAc?$AAt?$AAD?$AAr?$AAa?$AAw?$AA?5?$AAd?$AAo?$AAe?$AAs?$AA?5?$AAn?$AAo?$AAt?$AA?5@ 1006e3a8     dxerr8:dxerr8.obj
 0002:0001f408       ??_C@_1FO@EOCMPFNH@?$AAD?$AAi?$AAr?$AAe?$AAc?$AAt?$AAD?$AAr?$AAa?$AAw?$AA?5?$AAd?$AAo?$AAe?$AAs?$AA?5?$AAn?$AAo?$AAt?$AA?5@ 1006e408     dxerr8:dxerr8.obj
 0002:0001f468       ??_C@_1IK@EJFOJIEF@?$AAD?$AAi?$AAr?$AAe?$AAc?$AAt?$AAD?$AAr?$AAa?$AAw?$AA?5?$AAr?$AAe?$AAc?$AAe?$AAi?$AAv?$AAe?$AAd?$AA?5@ 1006e468     dxerr8:dxerr8.obj
 0002:0001f4f8       ??_C@_1EM@LPMFPOMH@?$AAp?$AAi?$AAx?$AAe?$AAl?$AA?5?$AAf?$AAo?$AAr?$AAm?$AAa?$AAt?$AA?5?$AAw?$AAa?$AAs?$AA?5?$AAi?$AAn?$AAv@ 1006e4f8     dxerr8:dxerr8.obj
 0002:0001f548       ??_C@_1IG@POKMKCED@?$AAO?$AAn?$AAe?$AA?5?$AAo?$AAr?$AA?5?$AAm?$AAo?$AAr?$AAe?$AA?5?$AAo?$AAf?$AA?5?$AAt?$AAh?$AAe?$AA?5?$AAc@ 1006e548     dxerr8:dxerr8.obj
 0002:0001f5d0       ??_C@_1EI@NFIJHMED@?$AAS?$AAu?$AAp?$AAp?$AAo?$AAr?$AAt?$AA?5?$AAi?$AAs?$AA?5?$AAc?$AAu?$AAr?$AAr?$AAe?$AAn?$AAt?$AAl?$AAy@ 1006e5d0     dxerr8:dxerr8.obj
 0002:0001f618       ??_C@_1IM@BODHOPOP@?$AAA?$AAn?$AA?5?$AAe?$AAx?$AAc?$AAe?$AAp?$AAt?$AAi?$AAo?$AAn?$AA?5?$AAw?$AAa?$AAs?$AA?5?$AAe?$AAn?$AAc@ 1006e618     dxerr8:dxerr8.obj
 0002:0001f6a8       ??_C@_1IC@KIGIKDEF@?$AAH?$AAe?$AAi?$AAg?$AAh?$AAt?$AA?5?$AAo?$AAf?$AA?5?$AAr?$AAe?$AAc?$AAt?$AAa?$AAn?$AAg?$AAl?$AAe?$AA?5@ 1006e6a8     dxerr8:dxerr8.obj
 0002:0001f730       ??_C@_1KA@DKMIGLAO@?$AAU?$AAn?$AAa?$AAb?$AAl?$AAe?$AA?5?$AAt?$AAo?$AA?5?$AAm?$AAa?$AAt?$AAc?$AAh?$AA?5?$AAp?$AAr?$AAi?$AAm@ 1006e730     dxerr8:dxerr8.obj
 0002:0001f7d0       ??_C@_1HK@FINCMHID@?$AAT?$AAh?$AAi?$AAs?$AA?5?$AAs?$AAu?$AAr?$AAf?$AAa?$AAc?$AAe?$AA?5?$AAc?$AAa?$AAn?$AA?5?$AAn?$AAo?$AAt@ 1006e7d0     dxerr8:dxerr8.obj
 0002:0001f84c       ??_C@_1BI@BLDBHGMC@?$AAU?$AAs?$AAe?$AAr?$AA?5?$AAc?$AAa?$AAn?$AAc?$AAe?$AAl?$AA?$AA@ 1006e84c     dxerr8:dxerr8.obj
 0002:0001f868       ??_C@_1HG@KHAOFHBO@?$AAT?$AAh?$AAi?$AAs?$AA?5?$AAs?$AAu?$AAr?$AAf?$AAa?$AAc?$AAe?$AA?5?$AAc?$AAa?$AAn?$AA?5?$AAn?$AAo?$AAt@ 1006e868     dxerr8:dxerr8.obj
 0002:0001f8e0       ??_C@_1BM@BMKDGONF@?$AAU?$AAn?$AAi?$AAn?$AAi?$AAt?$AAi?$AAa?$AAl?$AAi?$AAz?$AAe?$AAd?$AA?$AA@ 1006e8e0     dxerr8:dxerr8.obj
 0002:0001f8fc       ??_C@_1BO@JJOLECJJ@?$AAS?$AAe?$AAn?$AAd?$AA?5?$AAt?$AAo?$AAo?$AA?5?$AAl?$AAa?$AAr?$AAg?$AAe?$AA?$AA@ 1006e8fc     dxerr8:dxerr8.obj
 0002:0001f91c       ??_C@_1BK@IPELHICG@?$AAS?$AAe?$AAs?$AAs?$AAi?$AAo?$AAn?$AA?5?$AAf?$AAu?$AAl?$AAl?$AA?$AA@ 1006e91c     dxerr8:dxerr8.obj
 0002:0001f938       ??_C@_1BG@HIBBNELL@?$AAT?$AAa?$AAb?$AAl?$AAe?$AA?5?$AAf?$AAu?$AAl?$AAl?$AA?$AA@ 1006e938     dxerr8:dxerr8.obj
 0002:0001f950       ??_C@_1BE@JODEDHDG@?$AAT?$AAi?$AAm?$AAe?$AAd?$AA?5?$AAo?$AAu?$AAt?$AA?$AA@ 1006e950     dxerr8:dxerr8.obj
 0002:0001f964       ??_C@_1CK@LCLMKANE@?$AAP?$AAl?$AAa?$AAy?$AAe?$AAr?$AA?5?$AAn?$AAo?$AAt?$AA?5?$AAr?$AAe?$AAa?$AAc?$AAh?$AAa?$AAb?$AAl?$AAe@ 1006e964     dxerr8:dxerr8.obj
 0002:0001f990       ??_C@_1BC@MFANOBHH@?$AAN?$AAo?$AAt?$AA?5?$AAh?$AAo?$AAs?$AAt?$AA?$AA@ 1006e990     dxerr8:dxerr8.obj
 0002:0001f9a4       ??_C@_1BE@GNABLGFN@?$AAN?$AAo?$AAt?$AA?5?$AAr?$AAe?$AAa?$AAd?$AAy?$AA?$AA@ 1006e9a4     dxerr8:dxerr8.obj
 0002:0001f9b8       ??_C@_1BO@JGNEKAPM@?$AAN?$AAo?$AAt?$AA?5?$AAr?$AAe?$AAg?$AAi?$AAs?$AAt?$AAe?$AAr?$AAe?$AAd?$AA?$AA@ 1006e9b8     dxerr8:dxerr8.obj
 0002:0001f9d8       ??_C@_1BI@CCGBBBGB@?$AAP?$AAl?$AAa?$AAy?$AAe?$AAr?$AA?5?$AAl?$AAo?$AAs?$AAt?$AA?$AA@ 1006e9d8     dxerr8:dxerr8.obj
 0002:0001f9f0       ??_C@_1BI@CMKNBKMD@?$AAN?$AAo?$AAt?$AA?5?$AAa?$AAl?$AAl?$AAo?$AAw?$AAe?$AAd?$AA?$AA@ 1006e9f0     dxerr8:dxerr8.obj
 0002:0001fa08       ??_C@_1BM@KICIJHHO@?$AAN?$AAo?$AA?5?$AAc?$AAo?$AAn?$AAn?$AAe?$AAc?$AAt?$AAi?$AAo?$AAn?$AA?$AA@ 1006ea08     dxerr8:dxerr8.obj
 0002:0001fa24       ??_C@_1BO@HJGHBCOL@?$AAN?$AAo?$AA?5?$AAh?$AAo?$AAs?$AAt?$AA?5?$AAp?$AAl?$AAa?$AAy?$AAe?$AAr?$AA?$AA@ 1006ea24     dxerr8:dxerr8.obj
 0002:0001fa44       ??_C@_1DG@MOADKBGL@?$AAN?$AAo?$AA?5?$AAm?$AAo?$AAr?$AAe?$AA?5?$AAa?$AAd?$AAd?$AAr?$AAe?$AAs?$AAs?$AA?5?$AAc?$AAo?$AAm?$AAp@ 1006ea44     dxerr8:dxerr8.obj
 0002:0001fa7c       ??_C@_1BI@MFEGHFNB@?$AAN?$AAo?$AA?5?$AAr?$AAe?$AAs?$AAp?$AAo?$AAn?$AAs?$AAe?$AA?$AA@ 1006ea7c     dxerr8:dxerr8.obj
 0002:0001fa94       ??_C@_1BA@ILPJEJDJ@?$AAN?$AAo?$AA?5?$AAc?$AAa?$AAp?$AAs?$AA?$AA@ 1006ea94     dxerr8:dxerr8.obj
 0002:0001faa4       ??_C@_1BO@KENBOGIJ@?$AAI?$AAn?$AAv?$AAa?$AAl?$AAi?$AAd?$AA?5?$AAs?$AAt?$AAr?$AAi?$AAn?$AAg?$AA?$AA@ 1006eaa4     dxerr8:dxerr8.obj
 0002:0001fac4       ??_C@_1BI@OIJKOCCP@?$AAI?$AAn?$AAv?$AAa?$AAl?$AAi?$AAd?$AA?5?$AAu?$AAr?$AAl?$AA?$AA@ 1006eac4     dxerr8:dxerr8.obj
 0002:0001fadc       ??_C@_1CA@CPCPNKPH@?$AAI?$AAn?$AAv?$AAa?$AAl?$AAi?$AAd?$AA?5?$AAv?$AAe?$AAr?$AAs?$AAi?$AAo?$AAn?$AA?$AA@ 1006eadc     dxerr8:dxerr8.obj
 0002:0001fafc       ??_C@_1CC@KFJKADHO@?$AAI?$AAn?$AAv?$AAa?$AAl?$AAi?$AAd?$AA?5?$AAp?$AAr?$AAi?$AAo?$AAr?$AAi?$AAt?$AAy?$AA?$AA@ 1006eafc     dxerr8:dxerr8.obj
 0002:0001fb20       ??_C@_1CE@FECKCHMJ@?$AAI?$AAn?$AAv?$AAa?$AAl?$AAi?$AAd?$AA?5?$AAi?$AAn?$AAt?$AAe?$AAr?$AAf?$AAa?$AAc?$AAe?$AA?$AA@ 1006eb20     dxerr8:dxerr8.obj
 0002:0001fb44       ??_C@_1BO@JGFHDMCI@?$AAI?$AAn?$AAv?$AAa?$AAl?$AAi?$AAd?$AA?5?$AAo?$AAb?$AAj?$AAe?$AAc?$AAt?$AA?$AA@ 1006eb44     dxerr8:dxerr8.obj
 0002:0001fb64       ??_C@_1CC@IDIOGBAE@?$AAI?$AAn?$AAv?$AAa?$AAl?$AAi?$AAd?$AA?5?$AAp?$AAa?$AAs?$AAs?$AAw?$AAo?$AAr?$AAd?$AA?$AA@ 1006eb64     dxerr8:dxerr8.obj
 0002:0001fb88       ??_C@_1BO@GPIGAEPO@?$AAI?$AAn?$AAv?$AAa?$AAl?$AAi?$AAd?$AA?5?$AAp?$AAl?$AAa?$AAy?$AAe?$AAr?$AA?$AA@ 1006eb88     dxerr8:dxerr8.obj
 0002:0001fba8       ??_C@_1CC@DJHAOMCO@?$AAI?$AAn?$AAv?$AAa?$AAl?$AAi?$AAd?$AA?5?$AAi?$AAn?$AAs?$AAt?$AAa?$AAn?$AAc?$AAe?$AA?$AA@ 1006eba8     dxerr8:dxerr8.obj
 0002:0001fbcc       ??_C@_1BM@MCNHBIGK@?$AAI?$AAn?$AAv?$AAa?$AAl?$AAi?$AAd?$AA?5?$AAf?$AAl?$AAa?$AAg?$AAs?$AA?$AA@ 1006ebcc     dxerr8:dxerr8.obj
 0002:0001fbe8       ??_C@_1BM@CJDEPLBC@?$AAI?$AAn?$AAv?$AAa?$AAl?$AAi?$AAd?$AA?5?$AAg?$AAr?$AAo?$AAu?$AAp?$AA?$AA@ 1006ebe8     dxerr8:dxerr8.obj
 0002:0001fc04       ??_C@_1BO@FILGGGND@?$AAI?$AAn?$AAv?$AAa?$AAl?$AAi?$AAd?$AA?5?$AAh?$AAa?$AAn?$AAd?$AAl?$AAe?$AA?$AA@ 1006ec04     dxerr8:dxerr8.obj
 0002:0001fc24       ??_C@_1CK@FCABGEPC@?$AAI?$AAn?$AAv?$AAa?$AAl?$AAi?$AAd?$AA?5?$AAh?$AAo?$AAs?$AAt?$AA?5?$AAa?$AAd?$AAd?$AAr?$AAe?$AAs?$AAs@ 1006ec24     dxerr8:dxerr8.obj
 0002:0001fc50       ??_C@_1CE@DDNBDAOE@?$AAI?$AAn?$AAv?$AAa?$AAl?$AAi?$AAd?$AA?5?$AAe?$AAn?$AAd?$AA?5?$AAp?$AAo?$AAi?$AAn?$AAt?$AA?$AA@ 1006ec50     dxerr8:dxerr8.obj
 0002:0001fc74       ??_C@_1CO@JMCGMBCL@?$AAI?$AAn?$AAv?$AAa?$AAl?$AAi?$AAd?$AA?5?$AAa?$AAd?$AAd?$AAr?$AAe?$AAs?$AAs?$AA?5?$AAf?$AAo?$AAr?$AAm@ 1006ec74     dxerr8:dxerr8.obj
 0002:0001fca4       ??_C@_1CI@LLFFJIMI@?$AAI?$AAn?$AAv?$AAa?$AAl?$AAi?$AAd?$AA?5?$AAa?$AAp?$AAp?$AAl?$AAi?$AAc?$AAa?$AAt?$AAi?$AAo?$AAn?$AA?$AA@ 1006eca4     dxerr8:dxerr8.obj
 0002:0001fccc       ??_C@_1CA@FBIJAIEG@?$AAI?$AAn?$AAv?$AAa?$AAl?$AAi?$AAd?$AA?5?$AAc?$AAo?$AAm?$AAm?$AAa?$AAn?$AAd?$AA?$AA@ 1006eccc     dxerr8:dxerr8.obj
 0002:0001fcec       ??_C@_1CO@GCGKLDJM@?$AAI?$AAn?$AAv?$AAa?$AAl?$AAi?$AAd?$AA?5?$AAd?$AAe?$AAv?$AAi?$AAc?$AAe?$AA?5?$AAa?$AAd?$AAd?$AAr?$AAe@ 1006ecec     dxerr8:dxerr8.obj
 0002:0001fd1c       ??_C@_1CG@MAOHCKOB@?$AAI?$AAn?$AAc?$AAo?$AAm?$AAp?$AAl?$AAe?$AAt?$AAe?$AA?5?$AAa?$AAd?$AAd?$AAr?$AAe?$AAs?$AAs?$AA?$AA@ 1006ed1c     dxerr8:dxerr8.obj
 0002:0001fd44       ??_C@_1CA@NEDKCIHI@?$AAG?$AAr?$AAo?$AAu?$AAp?$AA?5?$AAn?$AAo?$AAt?$AA?5?$AAe?$AAm?$AAp?$AAt?$AAy?$AA?$AA@ 1006ed44     dxerr8:dxerr8.obj
 0002:0001fd64       ??_C@_1BA@GDLNIKCG@?$AAH?$AAo?$AAs?$AAt?$AAi?$AAn?$AAg?$AA?$AA@ 1006ed64     dxerr8:dxerr8.obj
 0002:0001fd74       ??_C@_1DC@FBOIHGFK@?$AAH?$AAo?$AAs?$AAt?$AA?5?$AAr?$AAe?$AAj?$AAe?$AAc?$AAt?$AAe?$AAd?$AA?5?$AAc?$AAo?$AAn?$AAn?$AAe?$AAc@ 1006ed74     dxerr8:dxerr8.obj
 0002:0001fda8       ??_C@_1DA@ONGCFJHL@?$AAH?$AAo?$AAs?$AAt?$AA?5?$AAt?$AAe?$AAr?$AAm?$AAi?$AAn?$AAa?$AAt?$AAe?$AAd?$AA?5?$AAs?$AAe?$AAs?$AAs@ 1006eda8     dxerr8:dxerr8.obj
 0002:0001fdd8       ??_C@_1DA@MPKEDFMP@?$AAE?$AAn?$AAu?$AAm?$AA?5?$AAr?$AAe?$AAs?$AAp?$AAo?$AAn?$AAs?$AAe?$AA?5?$AAt?$AAo?$AAo?$AA?5?$AAl?$AAa@ 1006edd8     dxerr8:dxerr8.obj
 0002:0001fe08       ??_C@_1BG@LFOEAGBL@?$AAC?$AAo?$AAn?$AAv?$AAe?$AAr?$AAs?$AAi?$AAo?$AAn?$AA?$AA@ 1006ee08     dxerr8:dxerr8.obj
 0002:0001fe20       ??_C@_1BO@FIOAOFAE@?$AAD?$AAa?$AAt?$AAa?$AA?5?$AAt?$AAo?$AAo?$AA?5?$AAl?$AAa?$AAr?$AAg?$AAe?$AA?$AA@ 1006ee20     dxerr8:dxerr8.obj
 0002:0001fe40       ??_C@_1BO@KHOCJOPO@?$AAD?$AAo?$AAe?$AAs?$AA?5?$AAn?$AAo?$AAt?$AA?5?$AAe?$AAx?$AAi?$AAs?$AAt?$AA?$AA@ 1006ee40     dxerr8:dxerr8.obj
 0002:0001fe60       ??_C@_1CE@CJCIMJAM@?$AAD?$AAu?$AAp?$AAl?$AAi?$AAc?$AAa?$AAt?$AAe?$AA?5?$AAc?$AAo?$AAm?$AAm?$AAa?$AAn?$AAd?$AA?$AA@ 1006ee60     dxerr8:dxerr8.obj
 0002:0001fe84       ??_C@_1DA@IMGIAEOM@?$AAE?$AAn?$AAd?$AA?5?$AAp?$AAo?$AAi?$AAn?$AAt?$AA?5?$AAn?$AAo?$AAt?$AA?5?$AAr?$AAe?$AAc?$AAe?$AAi?$AAv@ 1006ee84     dxerr8:dxerr8.obj
 0002:0001feb4       ??_C@_1CK@IOIEHEHL@?$AAE?$AAn?$AAu?$AAm?$AA?5?$AAq?$AAu?$AAe?$AAr?$AAy?$AA?5?$AAt?$AAo?$AAo?$AA?5?$AAl?$AAa?$AAr?$AAg?$AAe@ 1006eeb4     dxerr8:dxerr8.obj
 0002:0001fee0       ??_C@_1BO@NCAPGINE@?$AAC?$AAa?$AAn?$AA?5?$AAn?$AAo?$AAt?$AA?5?$AAc?$AAa?$AAn?$AAc?$AAe?$AAl?$AA?$AA@ 1006eee0     dxerr8:dxerr8.obj
 0002:0001ff00       ??_C@_1CE@MPNFFKNM@?$AAC?$AAa?$AAn?$AAt?$AA?5?$AAc?$AAr?$AAe?$AAa?$AAt?$AAe?$AA?5?$AAg?$AAr?$AAo?$AAu?$AAp?$AA?$AA@ 1006ef00     dxerr8:dxerr8.obj
 0002:0001ff24       ??_C@_1CG@JLCOILKB@?$AAC?$AAa?$AAn?$AAt?$AA?5?$AAc?$AAr?$AAe?$AAa?$AAt?$AAe?$AA?5?$AAp?$AAl?$AAa?$AAy?$AAe?$AAr?$AA?$AA@ 1006ef24     dxerr8:dxerr8.obj
 0002:0001ff4c       ??_C@_1DA@DGJDDNKB@?$AAC?$AAa?$AAn?$AAt?$AA?5?$AAl?$AAa?$AAu?$AAn?$AAc?$AAh?$AA?5?$AAa?$AAp?$AAp?$AAl?$AAi?$AAc?$AAa?$AAt@ 1006ef4c     dxerr8:dxerr8.obj
 0002:0001ff7c       ??_C@_1BG@ODOFIBAP@?$AAC?$AAo?$AAn?$AAn?$AAe?$AAc?$AAt?$AAi?$AAn?$AAg?$AA?$AA@ 1006ef7c     dxerr8:dxerr8.obj
 0002:0001ff94       ??_C@_1CC@GCPGBJFL@?$AAB?$AAu?$AAf?$AAf?$AAe?$AAr?$AA?5?$AAt?$AAo?$AAo?$AA?5?$AAs?$AAm?$AAa?$AAl?$AAl?$AA?$AA@ 1006ef94     dxerr8:dxerr8.obj
 0002:0001ffb8       ??_C@_1BG@ECIDANKL@?$AAA?$AAd?$AAd?$AAr?$AAe?$AAs?$AAs?$AAi?$AAn?$AAg?$AA?$AA@ 1006efb8     dxerr8:dxerr8.obj
 0002:0001ffd0       ??_C@_1CA@BAABJNGC@?$AAA?$AAl?$AAr?$AAe?$AAa?$AAd?$AAy?$AA?5?$AAc?$AAl?$AAo?$AAs?$AAi?$AAn?$AAg?$AA?$AA@ 1006efd0     dxerr8:dxerr8.obj
 0002:0001fff0       ??_C@_1CE@BLFDDLIO@?$AAA?$AAl?$AAr?$AAe?$AAa?$AAd?$AAy?$AA?5?$AAc?$AAo?$AAn?$AAn?$AAe?$AAc?$AAt?$AAe?$AAd?$AA?$AA@ 1006eff0     dxerr8:dxerr8.obj
 0002:00020014       ??_C@_1CM@JLBMMAFJ@?$AAA?$AAl?$AAr?$AAe?$AAa?$AAd?$AAy?$AA?5?$AAd?$AAi?$AAs?$AAc?$AAo?$AAn?$AAn?$AAe?$AAc?$AAt?$AAi?$AAn@ 1006f014     dxerr8:dxerr8.obj
 0002:00020040       ??_C@_1CI@CMBPBGDK@?$AAA?$AAl?$AAr?$AAe?$AAa?$AAd?$AAy?$AA?5?$AAi?$AAn?$AAi?$AAt?$AAi?$AAa?$AAl?$AAi?$AAz?$AAe?$AAd?$AA?$AA@ 1006f040     dxerr8:dxerr8.obj
 0002:00020068       ??_C@_1CG@NPMBDLCJ@?$AAA?$AAl?$AAr?$AAe?$AAa?$AAd?$AAy?$AA?5?$AAr?$AAe?$AAg?$AAi?$AAs?$AAt?$AAe?$AAr?$AAe?$AAd?$AA?$AA@ 1006f068     dxerr8:dxerr8.obj
 0002:00020090       ??_C@_1BA@JCPMFPEO@?$AAA?$AAb?$AAo?$AAr?$AAt?$AAe?$AAd?$AA?$AA@ 1006f090     dxerr8:dxerr8.obj
 0002:000200a0       ??_C@_1BM@OAGJBHNN@?$AAL?$AAo?$AAc?$AAk?$AAe?$AAd?$AA?5?$AAb?$AAu?$AAf?$AAf?$AAe?$AAr?$AA?$AA@ 1006f0a0     dxerr8:dxerr8.obj
 0002:000200bc       ??_C@_1BO@DOKMBDKM@?$AAI?$AAn?$AAv?$AAa?$AAl?$AAi?$AAd?$AA?5?$AAb?$AAu?$AAf?$AAf?$AAe?$AAr?$AA?$AA@ 1006f0bc     dxerr8:dxerr8.obj
 0002:000200dc       ??_C@_1CK@NNCEDMKP@?$AAN?$AAo?$AA?5?$AAr?$AAe?$AAc?$AA?5?$AAv?$AAo?$AAl?$AA?5?$AAa?$AAv?$AAa?$AAi?$AAl?$AAa?$AAb?$AAl?$AAe@ 1006f0dc     dxerr8:dxerr8.obj
 0002:00020108       ??_C@_1BE@NGEMHDGL@?$AAU?$AAs?$AAe?$AAr?$AA?5?$AAb?$AAa?$AAc?$AAk?$AA?$AA@ 1006f108     dxerr8:dxerr8.obj
 0002:0002011c       ??_C@_1CI@HOLDNHCH@?$AAT?$AAr?$AAa?$AAn?$AAs?$AAp?$AAo?$AAr?$AAt?$AA?5?$AAn?$AAo?$AA?5?$AAp?$AAl?$AAa?$AAy?$AAe?$AAr?$AA?$AA@ 1006f11c     dxerr8:dxerr8.obj
 0002:00020144       ??_C@_1CK@IBPDKHID@?$AAT?$AAr?$AAa?$AAn?$AAs?$AAp?$AAo?$AAr?$AAt?$AA?5?$AAn?$AAo?$AA?5?$AAs?$AAe?$AAs?$AAs?$AAi?$AAo?$AAn@ 1006f144     dxerr8:dxerr8.obj
 0002:00020170       ??_C@_1CG@NKGOJLE@?$AAT?$AAr?$AAa?$AAn?$AAs?$AAp?$AAo?$AAr?$AAt?$AA?5?$AAn?$AAo?$AAt?$AA?5?$AAi?$AAn?$AAi?$AAt?$AA?$AA@ 1006f170     dxerr8:dxerr8.obj
 0002:00020198       ??_C@_1BI@CGGFBHPM@?$AAN?$AAo?$AA?5?$AAc?$AAa?$AAl?$AAl?$AAb?$AAa?$AAc?$AAk?$AA?$AA@ 1006f198     dxerr8:dxerr8.obj
 0002:000201b0       ??_C@_1BK@NOKDDNLJ@?$AAN?$AAo?$AA?5?$AAt?$AAr?$AAa?$AAn?$AAs?$AAp?$AAo?$AAr?$AAt?$AA?$AA@ 1006f1b0     dxerr8:dxerr8.obj
 0002:000201cc       ??_C@_1BI@JBHOJFAA@?$AAI?$AAn?$AAi?$AAt?$AAi?$AAa?$AAl?$AAi?$AAz?$AAe?$AAd?$AA?$AA@ 1006f1cc     dxerr8:dxerr8.obj
 0002:000201e4       ??_C@_1CK@DIOLCNGI@?$AAI?$AAn?$AAc?$AAo?$AAm?$AAp?$AAa?$AAt?$AAi?$AAb?$AAl?$AAe?$AA?5?$AAv?$AAe?$AAr?$AAs?$AAi?$AAo?$AAn@ 1006f1e4     dxerr8:dxerr8.obj
 0002:00020210       ??_C@_1BE@GKDPNACC@?$AAR?$AAu?$AAn?$AA?5?$AAs?$AAe?$AAt?$AAu?$AAp?$AA?$AA@ 1006f210     dxerr8:dxerr8.obj
 0002:00020224       ??_C@_1BG@EDMHMEBC@?$AAS?$AAe?$AAn?$AAd?$AA?5?$AAe?$AAr?$AAr?$AAo?$AAr?$AA?$AA@ 1006f224     dxerr8:dxerr8.obj
 0002:0002023c       ??_C@_1CM@GGJBBBG@?$AAP?$AAl?$AAa?$AAy?$AAb?$AAa?$AAc?$AAk?$AA?5?$AAs?$AAy?$AAs?$AAt?$AAe?$AAm?$AA?5?$AAe?$AAr?$AAr?$AAo@ 1006f23c     dxerr8:dxerr8.obj
 0002:00020268       ??_C@_1CI@MGAEIECP@?$AAR?$AAe?$AAc?$AAo?$AAr?$AAd?$AA?5?$AAs?$AAy?$AAs?$AAt?$AAe?$AAm?$AA?5?$AAe?$AAr?$AAr?$AAo?$AAr?$AA?$AA@ 1006f268     dxerr8:dxerr8.obj
 0002:00020290       ??_C@_1BI@DNDGEFGA@?$AAN?$AAo?$AAt?$AA?5?$AAh?$AAo?$AAs?$AAt?$AAi?$AAn?$AAg?$AA?$AA@ 1006f290     dxerr8:dxerr8.obj
 0002:000202a8       ??_C@_1BK@KJMMIGGE@?$AAN?$AAo?$AAt?$AA?5?$AAb?$AAu?$AAf?$AAf?$AAe?$AAr?$AAe?$AAd?$AA?$AA@ 1006f2a8     dxerr8:dxerr8.obj
 0002:000202c4       ??_C@_1CC@PPDCBAGF@?$AAA?$AAl?$AAr?$AAe?$AAa?$AAd?$AAy?$AA?5?$AAb?$AAu?$AAf?$AAf?$AAe?$AAr?$AAe?$AAd?$AA?$AA@ 1006f2c4     dxerr8:dxerr8.obj
 0002:000202e8       ??_C@_1BI@DECAEFCK@?$AAN?$AAo?$AA?5?$AA3?$AAd?$AA?5?$AAs?$AAo?$AAu?$AAn?$AAd?$AA?$AA@ 1006f2e8     dxerr8:dxerr8.obj
 0002:00020300       ??_C@_1CA@FNIHHONP@?$AAC?$AAo?$AAn?$AAn?$AAe?$AAc?$AAt?$AA?5?$AAa?$AAb?$AAo?$AAr?$AAt?$AAe?$AAd?$AA?$AA@ 1006f300     dxerr8:dxerr8.obj
 0002:00020320       ??_C@_1BC@JBKKLGIB@?$AAT?$AAi?$AAm?$AAe?$AA?5?$AAo?$AAu?$AAt?$AA?$AA@ 1006f320     dxerr8:dxerr8.obj
 0002:00020334       ??_C@_1CG@GPHCPJHD@?$AAS?$AAo?$AAu?$AAn?$AAd?$AA?5?$AAi?$AAn?$AAi?$AAt?$AA?5?$AAf?$AAa?$AAi?$AAl?$AAu?$AAr?$AAe?$AA?$AA@ 1006f334     dxerr8:dxerr8.obj
 0002:0002035c       ??_C@_1CA@CPGPDOLA@?$AAA?$AAl?$AAr?$AAe?$AAa?$AAd?$AAy?$AA?5?$AAp?$AAe?$AAn?$AAd?$AAi?$AAn?$AAg?$AA?$AA@ 1006f35c     dxerr8:dxerr8.obj
 0002:0002037c       ??_C@_1DE@MDPFJPGF@?$AAC?$AAo?$AAm?$AAp?$AAr?$AAe?$AAs?$AAs?$AAi?$AAo?$AAn?$AA?5?$AAn?$AAo?$AAt?$AA?5?$AAs?$AAu?$AAp?$AAp@ 1006f37c     dxerr8:dxerr8.obj
 0002:000203b0       ??_C@_1CG@IMIDKDOJ@?$AAT?$AAr?$AAa?$AAn?$AAs?$AAp?$AAo?$AAr?$AAt?$AA?5?$AAn?$AAo?$AAt?$AA?5?$AAh?$AAo?$AAs?$AAt?$AA?$AA@ 1006f3b0     dxerr8:dxerr8.obj
 0002:000203d8       ??_C@_1BO@GIEGMMCF@?$AAI?$AAn?$AAv?$AAa?$AAl?$AAi?$AAd?$AA?5?$AAt?$AAa?$AAr?$AAg?$AAe?$AAt?$AA?$AA@ 1006f3d8     dxerr8:dxerr8.obj
 0002:000203f8       ??_C@_1BE@GLAMIBKP@?$AAC?$AAo?$AAn?$AAn?$AAe?$AAc?$AAt?$AAe?$AAd?$AA?$AA@ 1006f3f8     dxerr8:dxerr8.obj
 0002:0002040c       ??_C@_1BM@BLCEGKEA@?$AAN?$AAo?$AAt?$AA?5?$AAc?$AAo?$AAn?$AAn?$AAe?$AAc?$AAt?$AAe?$AAd?$AA?$AA@ 1006f40c     dxerr8:dxerr8.obj
 0002:00020428       ??_C@_1CC@OBNICBPP@?$AAC?$AAo?$AAn?$AAn?$AAe?$AAc?$AAt?$AA?5?$AAa?$AAb?$AAo?$AAr?$AAt?$AAi?$AAn?$AAg?$AA?$AA@ 1006f428     dxerr8:dxerr8.obj
 0002:0002044c       ??_C@_1CA@LHINCELJ@?$AAN?$AAo?$AAt?$AA?5?$AAi?$AAn?$AAi?$AAt?$AAi?$AAa?$AAl?$AAi?$AAz?$AAe?$AAd?$AA?$AA@ 1006f44c     dxerr8:dxerr8.obj
 0002:0002046c       ??_C@_1BK@BCDPAKDC@?$AAS?$AAe?$AAs?$AAs?$AAi?$AAo?$AAn?$AA?5?$AAl?$AAo?$AAs?$AAt?$AA?$AA@ 1006f46c     dxerr8:dxerr8.obj
 0002:00020488       ??_C@_1CC@IOLGMKOG@?$AAN?$AAo?$AA?5?$AAv?$AAo?$AAi?$AAc?$AAe?$AA?5?$AAs?$AAe?$AAs?$AAs?$AAi?$AAo?$AAn?$AA?$AA@ 1006f488     dxerr8:dxerr8.obj
 0002:000204ac       ??_C@_1CA@MKKJHDGK@?$AAC?$AAo?$AAn?$AAn?$AAe?$AAc?$AAt?$AAi?$AAo?$AAn?$AA?5?$AAl?$AAo?$AAs?$AAt?$AA?$AA@ 1006f4ac     dxerr8:dxerr8.obj
 0002:000204cc       ??_C@_1BE@BOIBNEDH@?$AAE?$AAx?$AAc?$AAe?$AAp?$AAt?$AAi?$AAo?$AAn?$AA?$AA@ 1006f4cc     dxerr8:dxerr8.obj
 0002:000204e0       ??_C@_1KE@PEBGMELI@?$AAT?$AAh?$AAe?$AA?5?$AAa?$AAp?$AAp?$AAl?$AAi?$AAc?$AAa?$AAt?$AAi?$AAo?$AAn?$AA?5?$AAw?$AAa?$AAs?$AA?5@ 1006f4e0     dxerr8:dxerr8.obj
 0002:00020588       ??_C@_1JG@FDOEAIHN@?$AAT?$AAh?$AAe?$AA?5?$AAs?$AAp?$AAe?$AAc?$AAi?$AAf?$AAi?$AAe?$AAd?$AA?5?$AAp?$AAr?$AAo?$AAp?$AAe?$AAr@ 1006f588     dxerr8:dxerr8.obj
 0002:00020620       ??_C@_1FK@KPELOGFP@?$AAT?$AAh?$AAe?$AA?5?$AAS?$AAp?$AAe?$AAc?$AAi?$AAf?$AAi?$AAe?$AAd?$AA?5?$AAp?$AAr?$AAo?$AAp?$AAe?$AAr@ 1006f620     dxerr8:dxerr8.obj
 0002:00020680       ??_C@_1EG@NIJBABJA@?$AAT?$AAh?$AAi?$AAs?$AA?5?$AAo?$AAb?$AAj?$AAe?$AAc?$AAt?$AA?5?$AAi?$AAs?$AA?5?$AAa?$AAl?$AAr?$AAe?$AAa@ 1006f680     dxerr8:dxerr8.obj
 0002:000206c8       ??_C@_1HC@IJFNKDE@?$AAT?$AAh?$AAe?$AA?5?$AAa?$AAp?$AAp?$AAl?$AAi?$AAc?$AAa?$AAt?$AAi?$AAo?$AAn?$AA?5?$AAr?$AAe?$AAq?$AAu@ 1006f6c8     dxerr8:dxerr8.obj
 0002:00020740       ??_C@_1HE@PEIJLNKE@?$AAA?$AAn?$AA?5?$AAi?$AAn?$AAv?$AAa?$AAl?$AAi?$AAd?$AA?5?$AAp?$AAa?$AAr?$AAa?$AAm?$AAe?$AAt?$AAe?$AAr@ 1006f740     dxerr8:dxerr8.obj
 0002:000207b8       ??_C@_1OK@JMBPHENL@?$AAT?$AAh?$AAe?$AA?5?$AAo?$AAb?$AAj?$AAe?$AAc?$AAt?$AA?5?$AAc?$AAo?$AAu?$AAl?$AAd?$AA?5?$AAn?$AAo?$AAt@ 1006f7b8     dxerr8:dxerr8.obj
 0002:000208a8       ??_C@_1IA@JNDNNLEG@?$AAT?$AAh?$AAe?$AA?5?$AAo?$AAp?$AAe?$AAr?$AAa?$AAt?$AAi?$AAo?$AAn?$AA?5?$AAc?$AAa?$AAn?$AAn?$AAo?$AAt@ 1006f8a8     dxerr8:dxerr8.obj
 0002:00020928       ??_C@_1BO@FCGMKODF@?$AAN?$AAo?$AA?5?$AAm?$AAo?$AAr?$AAe?$AA?5?$AAi?$AAt?$AAe?$AAm?$AAs?$AA?4?$AA?$AA@ 1006f928     dxerr8:dxerr8.obj
 0002:00020948       ??_C@_1HK@LCMFCILM@?$AAA?$AAc?$AAc?$AAe?$AAs?$AAs?$AA?5?$AAt?$AAo?$AA?5?$AAt?$AAh?$AAe?$AA?5?$AAd?$AAe?$AAv?$AAi?$AAc?$AAe@ 1006f948     dxerr8:dxerr8.obj
 0002:000209c4       ??_C@_1CC@CFPCOIAL@?$AAA?$AAc?$AAc?$AAe?$AAs?$AAs?$AA?5?$AAi?$AAs?$AA?5?$AAd?$AAe?$AAn?$AAi?$AAe?$AAd?$AA?$AA@ 1006f9c4     dxerr8:dxerr8.obj
 0002:000209e8       ??_C@_1IC@ECBPCNEI@?$AAT?$AAh?$AAe?$AA?5?$AAo?$AAp?$AAe?$AAr?$AAa?$AAt?$AAi?$AAo?$AAn?$AA?5?$AAc?$AAa?$AAn?$AAn?$AAo?$AAt@ 1006f9e8     dxerr8:dxerr8.obj
 0002:00020a6c       ??_C@_1CE@CIJNBNGJ@?$AAR?$AAa?$AAn?$AA?5?$AAo?$AAu?$AAt?$AA?5?$AAo?$AAf?$AA?5?$AAm?$AAe?$AAm?$AAo?$AAr?$AAy?$AA?$AA@ 1006fa6c     dxerr8:dxerr8.obj
 0002:00020a90       ??_C@_1EK@ELMOJMCA@?$AAT?$AAh?$AAi?$AAs?$AA?5?$AAo?$AAb?$AAj?$AAe?$AAc?$AAt?$AA?5?$AAh?$AAa?$AAs?$AA?5?$AAn?$AAo?$AAt?$AA?5@ 1006fa90     dxerr8:dxerr8.obj
 0002:00020ae0       ??_C@_1EK@MBDDMKME@?$AAT?$AAh?$AAe?$AA?5?$AAr?$AAe?$AAq?$AAu?$AAe?$AAs?$AAt?$AAe?$AAd?$AA?5?$AAo?$AAb?$AAj?$AAe?$AAc?$AAt@ 1006fae0     dxerr8:dxerr8.obj
 0002:00020b2c       ??_C@_1DC@GNNHKOMM@?$AAD?$AAe?$AAv?$AAi?$AAc?$AAe?$AA?5?$AAi?$AAn?$AAs?$AAt?$AAa?$AAl?$AAl?$AAe?$AAr?$AA?5?$AAe?$AAr?$AAr@ 1006fb2c     dxerr8:dxerr8.obj
 0002:00020b60       ??_C@_1KA@KDPOBMMJ@?$AAR?$AAe?$AAg?$AAi?$AAs?$AAt?$AAr?$AAy?$AA?5?$AAe?$AAn?$AAt?$AAr?$AAy?$AA?5?$AAo?$AAr?$AA?5?$AAD?$AAL@ 1006fb60     dxerr8:dxerr8.obj
 0002:00020c00       ??_C@_1FE@OIPGLLED@?$AAT?$AAh?$AAe?$AA?5?$AAu?$AAs?$AAe?$AAr?$AA?5?$AAc?$AAa?$AAn?$AAc?$AAe?$AAl?$AAl?$AAe?$AAd?$AA?5?$AAt@ 1006fc00     dxerr8:dxerr8.obj
 0002:00020c58       ??_C@_1KK@FMCNPPGL@?$AAT?$AAh?$AAe?$AA?5?$AAI?$AAN?$AAF?$AA?5?$AAf?$AAi?$AAl?$AAe?$AA?5?$AAf?$AAo?$AAr?$AA?5?$AAt?$AAh?$AAe@ 1006fc58     dxerr8:dxerr8.obj
 0002:00020d04       ??_C@_1DK@NIGCACOE@?$AAA?$AA?5?$AAr?$AAe?$AAg?$AAi?$AAs?$AAt?$AAr?$AAy?$AA?5?$AAe?$AAn?$AAt?$AAr?$AAy?$AA?5?$AAi?$AAs?$AA?5@ 1006fd04     dxerr8:dxerr8.obj
 0002:00020d40       ??_C@_1BHC@KDDIALJO@?$AAD?$AAe?$AAv?$AAi?$AAc?$AAe?$AA?5?$AAd?$AAr?$AAi?$AAv?$AAe?$AAr?$AA?9?$AAs?$AAp?$AAe?$AAc?$AAi?$AAf@ 1006fd40     dxerr8:dxerr8.obj
 0002:00020eb8       ??_C@_1GI@OEDEOPAF@?$AAA?$AAn?$AA?5?$AAo?$AAp?$AAe?$AAr?$AAa?$AAt?$AAi?$AAo?$AAn?$AA?5?$AAf?$AAa?$AAi?$AAl?$AAe?$AAd?$AA?5@ 1006feb8     dxerr8:dxerr8.obj
 0002:00020f20       ??_C@_1BBE@MDJDPABB@?$AAI?$AAP?$AAi?$AAn?$AAF?$AAl?$AAo?$AAw?$AAC?$AAo?$AAn?$AAt?$AAr?$AAo?$AAl?$AA?3?$AA?3?$AAB?$AAl?$AAo@ 1006ff20     dxerr8:dxerr8.obj
 0002:00021038       ??_C@_1NG@HODMLPIK@?$AAT?$AAh?$AAi?$AAs?$AA?5?$AAt?$AAh?$AAr?$AAe?$AAa?$AAd?$AA?5?$AAh?$AAa?$AAs?$AA?5?$AAa?$AAl?$AAr?$AAe@ 10070038     dxerr8:dxerr8.obj
 0002:00021110       ??_C@_1FE@GJPNGOIH@?$AAT?$AAh?$AAe?$AAr?$AAe?$AA?5?$AAi?$AAs?$AA?5?$AAc?$AAu?$AAr?$AAr?$AAe?$AAn?$AAt?$AAl?$AAy?$AA?5?$AAn@ 10070110     dxerr8:dxerr8.obj
 0002:00021168       ??_C@_1GO@OKJACMFJ@?$AAT?$AAh?$AAe?$AA?5?$AAs?$AAp?$AAe?$AAc?$AAi?$AAf?$AAi?$AAe?$AAd?$AA?5?$AAp?$AAa?$AAt?$AAh?$AA?5?$AAd@ 10070168     dxerr8:dxerr8.obj
 0002:000211d8       ??_C@_1BEK@MGKELGPD@?$AAT?$AAh?$AAe?$AA?5?$AAo?$AAp?$AAe?$AAr?$AAa?$AAt?$AAi?$AAo?$AAn?$AA?5?$AAd?$AAe?$AAp?$AAe?$AAn?$AAd@ 100701d8     dxerr8:dxerr8.obj
 0002:00021328       ??_C@_1HC@NLBHDCEB@?$AAT?$AAh?$AAe?$AA?5?$AAs?$AAp?$AAe?$AAc?$AAi?$AAf?$AAi?$AAe?$AAd?$AA?5?$AAs?$AAt?$AAr?$AAe?$AAa?$AAm@ 10070328     dxerr8:dxerr8.obj
 0002:000213a0       ??_C@_1GG@HMHIJFDC@?$AAF?$AAr?$AAa?$AAm?$AAe?$AA?5?$AAs?$AAt?$AAe?$AAp?$AA?5?$AAi?$AAs?$AA?5?$AAn?$AAo?$AAt?$AA?5?$AAs?$AAu@ 100703a0     dxerr8:dxerr8.obj
 0002:00021408       ??_C@_1FE@OLLMDGCK@?$AAT?$AAh?$AAe?$AA?5?$AAc?$AAu?$AAr?$AAr?$AAe?$AAn?$AAt?$AA?5?$AAa?$AAu?$AAd?$AAi?$AAo?$AA?5?$AAi?$AAs@ 10070408     dxerr8:dxerr8.obj
 0002:00021460       ??_C@_1FA@FDIMCJJG@?$AAT?$AAh?$AAe?$AA?5?$AAc?$AAu?$AAr?$AAr?$AAe?$AAn?$AAt?$AA?5?$AAp?$AAa?$AAr?$AAe?$AAn?$AAt?$AAa?$AAl@ 10070460     dxerr8:dxerr8.obj
 0002:000214b0       ??_C@_1JA@LCOAKIIE@?$AAC?$AAu?$AAr?$AAr?$AAe?$AAn?$AAt?$AAl?$AAy?$AA?5?$AAt?$AAh?$AAe?$AAr?$AAe?$AA?5?$AAi?$AAs?$AA?5?$AAn@ 100704b0     dxerr8:dxerr8.obj
 0002:00021540       ??_C@_1GG@NKFADOOK@?$AAT?$AAh?$AAe?$AA?5?$AAr?$AAe?$AAq?$AAu?$AAe?$AAs?$AAt?$AAe?$AAd?$AA?5?$AAD?$AAV?$AAD?$AA?5?$AAs?$AAt@ 10070540     dxerr8:dxerr8.obj
 0002:000215a8       ??_C@_1GM@EHJAFDIE@?$AAT?$AAh?$AAe?$AA?5?$AAr?$AAe?$AAg?$AAi?$AAo?$AAn?$AA?5?$AAw?$AAa?$AAs?$AA?5?$AAn?$AAo?$AAt?$AA?5?$AAc@ 100705a8     dxerr8:dxerr8.obj
 0002:00021618       ??_C@_1FC@LPIGDOFI@?$AAT?$AAh?$AAe?$AA?5?$AAs?$AAt?$AAa?$AAt?$AAe?$AA?5?$AAd?$AAa?$AAt?$AAa?$AA?5?$AAi?$AAs?$AA?5?$AAf?$AAr@ 10070618     dxerr8:dxerr8.obj
 0002:0002166c       ??_C@_1DI@CHONKOGF@?$AAT?$AAh?$AAe?$AA?5?$AAs?$AAt?$AAa?$AAt?$AAe?$AA?5?$AAd?$AAa?$AAt?$AAa?$AA?5?$AAw?$AAa?$AAs?$AA?5?$AAc@ 1007066c     dxerr8:dxerr8.obj
 0002:000216a8       ??_C@_1FO@DLPAGMON@?$AAT?$AAh?$AAe?$AA?5?$AAd?$AAa?$AAt?$AAa?$AA?5?$AAd?$AAi?$AAd?$AA?5?$AAn?$AAo?$AAt?$AA?5?$AAc?$AAo?$AAn@ 100706a8     dxerr8:dxerr8.obj
 0002:00021708       ??_C@_1IA@OGHJLEDB@?$AAT?$AAh?$AAe?$AA?5?$AAs?$AAp?$AAe?$AAc?$AAi?$AAf?$AAi?$AAe?$AAd?$AA?5?$AAc?$AAo?$AAm?$AAm?$AAa?$AAn@ 10070708     dxerr8:dxerr8.obj
 0002:00021788       ??_C@_1EE@KKJNEFCE@?$AAT?$AAh?$AAe?$AA?5?$AAs?$AAp?$AAe?$AAc?$AAi?$AAf?$AAi?$AAe?$AAd?$AA?5?$AAm?$AAe?$AAn?$AAu?$AA?5?$AAd@ 10070788     dxerr8:dxerr8.obj
 0002:000217d0       ??_C@_1IC@PBLFPCKK@?$AAT?$AAh?$AAe?$AA?5?$AAo?$AAp?$AAe?$AAr?$AAa?$AAt?$AAi?$AAo?$AAn?$AA?5?$AAc?$AAa?$AAn?$AAn?$AAo?$AAt@ 100707d0     dxerr8:dxerr8.obj
 0002:00021858       ??_C@_1HI@KNFAAHEA@?$AAT?$AAh?$AAi?$AAs?$AA?5?$AAo?$AAb?$AAj?$AAe?$AAc?$AAt?$AA?5?$AAc?$AAa?$AAn?$AAn?$AAo?$AAt?$AA?5?$AAb@ 10070858     dxerr8:dxerr8.obj
 0002:000218d0       ??_C@_1NK@OBGNAILH@?$AAC?$AAo?$AAp?$AAy?$AA?5?$AAp?$AAr?$AAo?$AAt?$AAe?$AAc?$AAt?$AAi?$AAo?$AAn?$AA?5?$AAc?$AAa?$AAn?$AAn@ 100708d0     dxerr8:dxerr8.obj
 0002:000219b0       ??_C@_1KO@KEEJFDFO@?$AAV?$AAe?$AAr?$AAs?$AAi?$AAo?$AAn?$AA?5?$AAn?$AAu?$AAm?$AAb?$AAe?$AAr?$AA?5?$AAo?$AAf?$AA?5?$AAD?$AAi@ 100709b0     dxerr8:dxerr8.obj
 0002:00021a60       ??_C@_1JE@NAFBEIIJ@?$AAD?$AAV?$AAD?$AA?9?$AAV?$AAi?$AAd?$AAe?$AAo?$AA?5?$AAp?$AAl?$AAa?$AAy?$AAb?$AAa?$AAc?$AAk?$AA?5?$AAg@ 10070a60     dxerr8:dxerr8.obj
 0002:00021af8       ??_C@_1FE@HOAAACCI@?$AAD?$AAV?$AAD?$AA?9?$AAV?$AAi?$AAd?$AAe?$AAo?$AA?5?$AAp?$AAl?$AAa?$AAy?$AAb?$AAa?$AAc?$AAk?$AA?5?$AAg@ 10070af8     dxerr8:dxerr8.obj
 0002:00021b50       ??_C@_1GC@NMBJNKKN@?$AAD?$AAV?$AAD?$AA?9?$AAV?$AAi?$AAd?$AAe?$AAo?$AA?5?$AAp?$AAl?$AAa?$AAy?$AAb?$AAa?$AAc?$AAk?$AA?5?$AAg@ 10070b50     dxerr8:dxerr8.obj
 0002:00021bb8       ??_C@_1BAA@CJGBKDB@?$AAT?$AAh?$AAe?$AA?5?$AAs?$AAp?$AAe?$AAc?$AAi?$AAf?$AAi?$AAe?$AAd?$AA?5?$AAb?$AAu?$AAt?$AAt?$AAo?$AAn@ 10070bb8     dxerr8:dxerr8.obj
 0002:00021cb8       ??_C@_1GO@NGGKLHHP@?$AAT?$AAh?$AAi?$AAs?$AA?5?$AAO?$AAp?$AAe?$AAr?$AAa?$AAt?$AAi?$AAo?$AAn?$AA?5?$AAi?$AAs?$AA?5?$AAn?$AAo@ 10070cb8     dxerr8:dxerr8.obj
 0002:00021d28       ??_C@_1HM@KNCPHMAM@?$AAT?$AAh?$AAi?$AAs?$AA?5?$AAU?$AAs?$AAe?$AAr?$AA?5?$AAO?$AAp?$AAe?$AAr?$AAa?$AAt?$AAi?$AAo?$AAn?$AA?5@ 10070d28     dxerr8:dxerr8.obj
 0002:00021da8       ??_C@_1IK@MMNIOIFC@?$AAN?$AAo?$AA?5?$AAC?$AAa?$AAp?$AAt?$AAu?$AAr?$AAe?$AA?5?$AAh?$AAa?$AAr?$AAd?$AAw?$AAa?$AAr?$AAe?$AA?5@ 10070da8     dxerr8:dxerr8.obj
 0002:00021e38       ??_C@_1IO@KBAOODK@?$AAN?$AAo?$AA?5?$AAV?$AAi?$AAd?$AAe?$AAo?$AAP?$AAo?$AAr?$AAt?$AA?5?$AAh?$AAa?$AAr?$AAd?$AAw?$AAa?$AAr@ 10070e38     dxerr8:dxerr8.obj
 0002:00021ec8       ??_C@_1BBC@HMNHHHMB@?$AAE?$AAi?$AAt?$AAh?$AAe?$AAr?$AA?5?$AAD?$AAi?$AAr?$AAe?$AAc?$AAt?$AAD?$AAr?$AAa?$AAw?$AA?5?$AAh?$AAa@ 10070ec8     dxerr8:dxerr8.obj
 0002:00021fe0       ??_C@_1HC@DCFMMNHN@?$AAT?$AAh?$AAe?$AA?5?$AAV?$AAi?$AAd?$AAe?$AAo?$AAP?$AAo?$AAr?$AAt?$AA?5?$AAc?$AAo?$AAn?$AAn?$AAe?$AAc@ 10070fe0     dxerr8:dxerr8.obj
 0002:00022058       ??_C@_1OE@BJFLGMGG@?$AAT?$AAh?$AAe?$AAr?$AAe?$AA?5?$AAi?$AAs?$AA?5?$AAn?$AAo?$AAt?$AA?5?$AAe?$AAn?$AAo?$AAu?$AAg?$AAh?$AA?5@ 10071058     dxerr8:dxerr8.obj
 0002:00022140       ??_C@_1JM@IGHLFLJM@?$AAT?$AAh?$AAe?$AA?5?$AAV?$AAi?$AAd?$AAe?$AAo?$AA?5?$AAC?$AAD?$AA?5?$AAc?$AAa?$AAn?$AA?8?$AAt?$AA?5?$AAb@ 10071140     dxerr8:dxerr8.obj
 0002:000221e0       ??_C@_1HM@HKIPPOCI@?$AAP?$AAi?$AAn?$AAs?$AA?5?$AAc?$AAa?$AAn?$AAn?$AAo?$AAt?$AA?5?$AAc?$AAo?$AAn?$AAn?$AAe?$AAc?$AAt?$AA?5@ 100711e0     dxerr8:dxerr8.obj
 0002:00022260       ??_C@_1HC@LCMLOJFI@?$AAC?$AAa?$AAn?$AAn?$AAo?$AAt?$AA?5?$AAp?$AAl?$AAa?$AAy?$AA?5?$AAb?$AAa?$AAc?$AAk?$AA?5?$AAt?$AAh?$AAe@ 10071260     dxerr8:dxerr8.obj
 0002:000222d4       ??_C@_1DO@FHOACGPM@?$AAT?$AAh?$AAe?$AA?5?$AAb?$AAu?$AAf?$AAf?$AAe?$AAr?$AA?5?$AAi?$AAs?$AA?5?$AAn?$AAo?$AAt?$AA?5?$AAf?$AAu@ 100712d4     dxerr8:dxerr8.obj
 0002:00022318       ??_C@_1LM@LPICOJJL@?$AAT?$AAh?$AAe?$AA?5?$AAc?$AAo?$AAn?$AAn?$AAe?$AAc?$AAt?$AAi?$AAo?$AAn?$AA?5?$AAc?$AAa?$AAn?$AAn?$AAo@ 10071318     dxerr8:dxerr8.obj
 0002:000223d8       ??_C@_1NC@CGDEKNCD@?$AAC?$AAa?$AAn?$AAn?$AAo?$AAt?$AA?5?$AAg?$AAe?$AAt?$AA?5?$AAo?$AAr?$AA?5?$AAs?$AAe?$AAt?$AA?5?$AAt?$AAi@ 100713d8     dxerr8:dxerr8.obj
 0002:000224b0       ??_C@_1KI@OAMCMCG@?$AAC?$AAa?$AAn?$AAn?$AAo?$AAt?$AA?5?$AAp?$AAe?$AAr?$AAf?$AAo?$AAr?$AAm?$AA?5?$AAt?$AAh?$AAe?$AA?5?$AAr@ 100714b0     dxerr8:dxerr8.obj
 0002:00022558       ??_C@_1LK@LAAMKLAP@?$AAA?$AAc?$AAt?$AAi?$AAv?$AAe?$AAM?$AAo?$AAv?$AAi?$AAe?$AA?5?$AAc?$AAa?$AAn?$AAn?$AAo?$AAt?$AA?5?$AAp@ 10071558     dxerr8:dxerr8.obj
 0002:00022618       ??_C@_1IM@DPCIBCFF@?$AAC?$AAa?$AAn?$AAn?$AAo?$AAt?$AA?5?$AAp?$AAl?$AAa?$AAy?$AA?5?$AAb?$AAa?$AAc?$AAk?$AA?5?$AAt?$AAh?$AAe@ 10071618     dxerr8:dxerr8.obj
 0002:000226a8       ??_C@_1IM@MBLFFOPM@?$AAC?$AAa?$AAn?$AAn?$AAo?$AAt?$AA?5?$AAp?$AAl?$AAa?$AAy?$AA?5?$AAb?$AAa?$AAc?$AAk?$AA?5?$AAt?$AAh?$AAe@ 100716a8     dxerr8:dxerr8.obj
 0002:00022738       ??_C@_1GO@GNDOELAK@?$AAA?$AAc?$AAt?$AAi?$AAv?$AAe?$AAM?$AAo?$AAv?$AAi?$AAe?$AA?5?$AAc?$AAa?$AAn?$AAn?$AAo?$AAt?$AA?5?$AAp@ 10071738     dxerr8:dxerr8.obj
 0002:000227a8       ??_C@_1MM@IMEDEKOH@?$AAC?$AAa?$AAn?$AAn?$AAo?$AAt?$AA?5?$AAp?$AAl?$AAa?$AAy?$AA?5?$AAb?$AAa?$AAc?$AAk?$AA?5?$AAt?$AAh?$AAe@ 100717a8     dxerr8:dxerr8.obj
 0002:00022878       ??_C@_1HC@BDFCBEPL@?$AAC?$AAa?$AAn?$AAn?$AAo?$AAt?$AA?5?$AAc?$AAh?$AAa?$AAn?$AAg?$AAe?$AA?5?$AAb?$AAa?$AAl?$AAa?$AAn?$AAc@ 10071878     dxerr8:dxerr8.obj
 0002:000228f0       ??_C@_1FA@OICEICHK@?$AAN?$AAo?$AA?5?$AAm?$AAe?$AAd?$AAi?$AAa?$AA?5?$AAt?$AAi?$AAm?$AAe?$AA?5?$AAf?$AAo?$AAr?$AAm?$AAa?$AAt@ 100718f0     dxerr8:dxerr8.obj
 0002:00022940       ??_C@_1GE@CFMIECB@?$AAN?$AAo?$AA?5?$AAm?$AAe?$AAd?$AAi?$AAa?$AA?5?$AAt?$AAi?$AAm?$AAe?$AA?5?$AAs?$AAt?$AAa?$AAm?$AAp?$AA?5@ 10071940     dxerr8:dxerr8.obj
 0002:000229a8       ??_C@_1FI@JIEHAACP@?$AAN?$AAo?$AA?5?$AAt?$AAi?$AAm?$AAe?$AA?5?$AAs?$AAt?$AAa?$AAm?$AAp?$AA?5?$AAh?$AAa?$AAs?$AA?5?$AAb?$AAe@ 100719a8     dxerr8:dxerr8.obj
 0002:00022a00       ??_C@_1HC@JOBMNEDN@?$AAT?$AAh?$AAi?$AAs?$AA?5?$AAf?$AAi?$AAl?$AAe?$AA?5?$AAi?$AAs?$AA?5?$AAc?$AAo?$AAr?$AAr?$AAu?$AAp?$AAt@ 10071a00     dxerr8:dxerr8.obj
 0002:00022a78       ??_C@_1HO@ICGIAJDA@?$AAT?$AAh?$AAi?$AAs?$AA?5?$AAf?$AAi?$AAl?$AAe?$AA?5?$AAi?$AAs?$AA?5?$AAc?$AAo?$AAr?$AAr?$AAu?$AAp?$AAt@ 10071a78     dxerr8:dxerr8.obj
 0002:00022af8       ??_C@_1FG@BABNHNGJ@?$AAT?$AAh?$AAe?$AA?5?$AAv?$AAe?$AAr?$AAs?$AAi?$AAo?$AAn?$AA?5?$AAn?$AAu?$AAm?$AAb?$AAe?$AAr?$AA?5?$AAo@ 10071af8     dxerr8:dxerr8.obj
 0002:00022b50       ??_C@_1EE@OOPOKJHM@?$AAA?$AA?5?$AAf?$AAi?$AAl?$AAe?$AA?5?$AAa?$AAp?$AAp?$AAe?$AAa?$AAr?$AAe?$AAd?$AA?5?$AAt?$AAo?$AA?5?$AAb@ 10071b50     dxerr8:dxerr8.obj
 0002:00022b98       ??_C@_1GK@FOLILOCO@?$AAT?$AAh?$AAe?$AA?5?$AAs?$AAo?$AAu?$AAr?$AAc?$AAe?$AA?5?$AAf?$AAi?$AAl?$AAt?$AAe?$AAr?$AA?5?$AAf?$AAo@ 10071b98     dxerr8:dxerr8.obj
 0002:00022c08       ??_C@_1FO@PDINEDJP@?$AAT?$AAh?$AAe?$AA?5?$AAm?$AAe?$AAd?$AAi?$AAa?$AA?5?$AAt?$AAy?$AAp?$AAe?$AA?5?$AAo?$AAf?$AA?5?$AAt?$AAh@ 10071c08     dxerr8:dxerr8.obj
 0002:00022c68       ??_C@_1HI@JPHGKJNP@?$AAC?$AAa?$AAn?$AAn?$AAo?$AAt?$AA?5?$AAc?$AAa?$AAl?$AAl?$AA?5?$AAI?$AAV?$AAi?$AAd?$AAe?$AAo?$AAW?$AAi@ 10071c68     dxerr8:dxerr8.obj
 0002:00022ce0       ??_C@_1EK@EHJEFBFE@?$AAA?$AA?5?$AAf?$AAu?$AAl?$AAl?$AA?9?$AAs?$AAc?$AAr?$AAe?$AAe?$AAn?$AA?5?$AAm?$AAo?$AAd?$AAe?$AA?5?$AAi@ 10071ce0     dxerr8:dxerr8.obj
 0002:00022d30       ??_C@_1II@CHNGCCKG@?$AAT?$AAh?$AAi?$AAs?$AA?5?$AAA?$AAd?$AAv?$AAi?$AAs?$AAe?$AA?5?$AAc?$AAa?$AAn?$AAn?$AAo?$AAt?$AA?5?$AAb@ 10071d30     dxerr8:dxerr8.obj
 0002:00022db8       ??_C@_1EI@PKAICKCM@?$AAN?$AAo?$AA?5?$AAf?$AAu?$AAl?$AAl?$AA?9?$AAs?$AAc?$AAr?$AAe?$AAe?$AAn?$AA?5?$AAm?$AAo?$AAd?$AAe?$AAs@ 10071db8     dxerr8:dxerr8.obj
 0002:00022e00       ??_C@_1EO@NJJFKAIL@?$AAA?$AAn?$AA?5?$AAo?$AAv?$AAe?$AAr?$AAl?$AAa?$AAy?$AA?5?$AAa?$AAd?$AAv?$AAi?$AAs?$AAe?$AA?5?$AAl?$AAi@ 10071e00     dxerr8:dxerr8.obj
 0002:00022e50       ??_C@_1FM@MAHJALHC@?$AAC?$AAa?$AAn?$AAn?$AAo?$AAt?$AA?5?$AAr?$AAe?$AAn?$AAd?$AAe?$AAr?$AA?5?$AAt?$AAh?$AAe?$AA?5?$AAf?$AAi@ 10071e50     dxerr8:dxerr8.obj
 0002:00022eb0       ??_C@_1FM@KIMHEHCA@?$AAT?$AAh?$AAe?$AA?5?$AAq?$AAu?$AAe?$AAu?$AAe?$AAd?$AA?5?$AAc?$AAo?$AAm?$AAm?$AAa?$AAn?$AAd?$AA?5?$AAh@ 10071eb0     dxerr8:dxerr8.obj
 0002:00022f10       ??_C@_1HO@HEPDMCCH@?$AAA?$AAn?$AA?5?$AAa?$AAt?$AAt?$AAe?$AAm?$AAp?$AAt?$AA?5?$AAw?$AAa?$AAs?$AA?5?$AAm?$AAa?$AAd?$AAe?$AA?5@ 10071f10     dxerr8:dxerr8.obj
 0002:00022f90       ??_C@_1EO@PDIEJDM@?$AAU?$AAp?$AAd?$AAa?$AAt?$AAe?$AAs?$AA?5?$AAa?$AAr?$AAe?$AA?5?$AAn?$AAo?$AAt?$AA?5?$AAa?$AAl?$AAl?$AAo@ 10071f90     dxerr8:dxerr8.obj
 0002:00022fe0       ??_C@_1DM@HKOMMBGC@?$AAT?$AAh?$AAe?$AA?5?$AAf?$AAi?$AAl?$AAt?$AAe?$AAr?$AA?5?$AAg?$AAr?$AAa?$AAp?$AAh?$AA?5?$AAi?$AAs?$AA?5@ 10071fe0     dxerr8:dxerr8.obj
 0002:00023020       ??_C@_1EK@MHOKPFOP@?$AAT?$AAh?$AAe?$AA?5?$AAl?$AAi?$AAs?$AAt?$AA?5?$AAh?$AAa?$AAs?$AA?5?$AAa?$AAl?$AAr?$AAe?$AAa?$AAd?$AAy@ 10072020     dxerr8:dxerr8.obj
 0002:0002306c       ??_C@_1DI@KBIGFHPC@?$AAT?$AAh?$AAe?$AA?5?$AAf?$AAi?$AAl?$AAe?$AA?5?$AAf?$AAo?$AAr?$AAm?$AAa?$AAt?$AA?5?$AAi?$AAs?$AA?5?$AAi@ 1007206c     dxerr8:dxerr8.obj
 0002:000230a4       ??_C@_1DA@DKCJBJO@?$AAA?$AA?5?$AAt?$AAi?$AAm?$AAe?$AA?9?$AAo?$AAu?$AAt?$AA?5?$AAh?$AAa?$AAs?$AA?5?$AAe?$AAx?$AAp?$AAi?$AAr@ 100720a4     dxerr8:dxerr8.obj
 0002:000230d8       ??_C@_1HC@OCCMCPLP@?$AAA?$AAn?$AA?5?$AAa?$AAt?$AAt?$AAe?$AAm?$AAp?$AAt?$AA?5?$AAt?$AAo?$AA?5?$AAa?$AAd?$AAd?$AA?5?$AAa?$AA?5@ 100720d8     dxerr8:dxerr8.obj
 0002:00023150       ??_C@_1JO@EJPPKEBF@?$AAT?$AAh?$AAi?$AAs?$AA?5?$AAs?$AAa?$AAm?$AAp?$AAl?$AAe?$AA?5?$AAc?$AAa?$AAn?$AAn?$AAo?$AAt?$AA?5?$AAb@ 10072150     dxerr8:dxerr8.obj
 0002:000231f0       ??_C@_1EA@GKFFMOFF@?$AAT?$AAh?$AAi?$AAs?$AA?5?$AAs?$AAa?$AAm?$AAp?$AAl?$AAe?$AA?5?$AAc?$AAa?$AAn?$AAn?$AAo?$AAt?$AA?5?$AAb@ 100721f0     dxerr8:dxerr8.obj
 0002:00023230       ??_C@_1FK@OAKOMHGD@?$AAT?$AAh?$AAi?$AAs?$AA?5?$AAp?$AAi?$AAn?$AA?5?$AAc?$AAa?$AAn?$AAn?$AAo?$AAt?$AA?5?$AAu?$AAs?$AAe?$AA?5@ 10072230     dxerr8:dxerr8.obj
 0002:00023290       ??_C@_1EG@KMEKNDOD@?$AAT?$AAh?$AAe?$AA?5?$AAs?$AAu?$AAp?$AAp?$AAl?$AAi?$AAe?$AAd?$AA?5?$AAr?$AAe?$AAc?$AAt?$AAa?$AAn?$AAg@ 10072290     dxerr8:dxerr8.obj
 0002:000232d8       ??_C@_1GI@MECFEHCL@?$AAT?$AAh?$AAe?$AA?5?$AAs?$AAa?$AAm?$AAp?$AAl?$AAe?$AA?5?$AAs?$AAt?$AAa?$AAr?$AAt?$AA?5?$AAt?$AAi?$AAm@ 100722d8     dxerr8:dxerr8.obj
 0002:00023340       ??_C@_1JO@EAHKBNAI@?$AAT?$AAh?$AAe?$AA?5?$AAo?$AAp?$AAe?$AAr?$AAa?$AAt?$AAi?$AAo?$AAn?$AA?5?$AAc?$AAo?$AAu?$AAl?$AAd?$AA?5@ 10072340     dxerr8:dxerr8.obj
 0002:000233e0       ??_C@_1JA@FCOIGPJH@?$AAT?$AAh?$AAe?$AA?5?$AAo?$AAp?$AAe?$AAr?$AAa?$AAt?$AAi?$AAo?$AAn?$AA?5?$AAc?$AAo?$AAu?$AAl?$AAd?$AA?5@ 100723e0     dxerr8:dxerr8.obj
 0002:00023470       ??_C@_1IO@KEINIFJJ@?$AAT?$AAh?$AAe?$AA?5?$AAo?$AAp?$AAe?$AAr?$AAa?$AAt?$AAi?$AAo?$AAn?$AA?5?$AAc?$AAo?$AAu?$AAl?$AAd?$AA?5@ 10072470     dxerr8:dxerr8.obj
 0002:00023500       ??_C@_1JA@GLLBFDKJ@?$AAT?$AAh?$AAe?$AA?5?$AAo?$AAp?$AAe?$AAr?$AAa?$AAt?$AAi?$AAo?$AAn?$AA?5?$AAc?$AAo?$AAu?$AAl?$AAd?$AA?5@ 10072500     dxerr8:dxerr8.obj
 0002:00023590       ??_C@_1GO@JGCMOHAI@?$AAT?$AAh?$AAe?$AA?5?$AAs?$AAt?$AAa?$AAt?$AAe?$AA?5?$AAc?$AAh?$AAa?$AAn?$AAg?$AAe?$AAd?$AA?5?$AAw?$AAh@ 10072590     dxerr8:dxerr8.obj
 0002:00023600       ??_C@_1GE@NKNDBGGM@?$AAT?$AAo?$AAo?$AA?5?$AAm?$AAa?$AAn?$AAy?$AA?5?$AAc?$AAo?$AAl?$AAo?$AAr?$AAs?$AA?5?$AAf?$AAo?$AAr?$AA?5@ 10072600     dxerr8:dxerr8.obj
 0002:00023668       ??_C@_1EA@ONNKHPOH@?$AAD?$AAi?$AAs?$AAp?$AAl?$AAa?$AAy?$AA?5?$AAd?$AAo?$AAe?$AAs?$AA?5?$AAn?$AAo?$AAt?$AA?5?$AAu?$AAs?$AAe@ 10072668     dxerr8:dxerr8.obj
 0002:000236a8       ??_C@_1DC@IPOALMCN@?$AAN?$AAo?$AA?5?$AAp?$AAa?$AAl?$AAe?$AAt?$AAt?$AAe?$AA?5?$AAi?$AAs?$AA?5?$AAa?$AAv?$AAa?$AAi?$AAl?$AAa@ 100726a8     dxerr8:dxerr8.obj
 0002:000236e0       ??_C@_1EI@GJHNFOKD@?$AAN?$AAo?$AA?5?$AAm?$AAa?$AAt?$AAc?$AAh?$AAi?$AAn?$AAg?$AA?5?$AAc?$AAo?$AAl?$AAo?$AAr?$AA?5?$AAk?$AAe@ 100726e0     dxerr8:dxerr8.obj
 0002:00023728       ??_C@_1IC@NBCDOOIB@?$AAS?$AAe?$AAt?$AAt?$AAi?$AAn?$AAg?$AA?5?$AAa?$AA?5?$AAp?$AAa?$AAl?$AAe?$AAt?$AAt?$AAe?$AA?5?$AAw?$AAo@ 10072728     dxerr8:dxerr8.obj
 0002:000237b0       ??_C@_1IC@PPNOELKK@?$AAS?$AAe?$AAt?$AAt?$AAi?$AAn?$AAg?$AA?5?$AAa?$AA?5?$AAc?$AAo?$AAl?$AAo?$AAr?$AA?5?$AAk?$AAe?$AAy?$AA?5@ 100727b0     dxerr8:dxerr8.obj
 0002:00023838       ??_C@_1IA@NOJIBGMP@?$AAC?$AAu?$AAr?$AAr?$AAe?$AAn?$AAt?$AA?5?$AAp?$AAi?$AAn?$AA?5?$AAc?$AAo?$AAn?$AAn?$AAe?$AAc?$AAt?$AAi@ 10072838     dxerr8:dxerr8.obj
 0002:000238b8       ??_C@_1HI@MJHOOBBM@?$AAC?$AAu?$AAr?$AAr?$AAe?$AAn?$AAt?$AA?5?$AAp?$AAi?$AAn?$AA?5?$AAc?$AAo?$AAn?$AAn?$AAe?$AAc?$AAt?$AAi@ 100728b8     dxerr8:dxerr8.obj
 0002:00023930       ??_C@_1DG@OHCNEOOL@?$AAN?$AAo?$AA?5?$AAc?$AAo?$AAl?$AAo?$AAr?$AA?5?$AAk?$AAe?$AAy?$AA?5?$AAh?$AAa?$AAs?$AA?5?$AAb?$AAe?$AAe@ 10072930     dxerr8:dxerr8.obj
 0002:00023968       ??_C@_1EM@LADNONKF@?$AAC?$AAo?$AAu?$AAl?$AAd?$AA?5?$AAn?$AAo?$AAt?$AA?5?$AAc?$AAh?$AAa?$AAn?$AAg?$AAe?$AA?5?$AAf?$AAo?$AAr@ 10072968     dxerr8:dxerr8.obj
 0002:000239b8       ??_C@_1HO@BOMOAHDO@?$AAN?$AAo?$AA?5?$AAc?$AAo?$AAm?$AAb?$AAi?$AAn?$AAa?$AAt?$AAi?$AAo?$AAn?$AA?5?$AAo?$AAf?$AA?5?$AAf?$AAi@ 100729b8     dxerr8:dxerr8.obj
 0002:00023a38       ??_C@_1JM@EHBMOJIH@?$AAN?$AAo?$AA?5?$AAc?$AAo?$AAm?$AAb?$AAi?$AAn?$AAa?$AAt?$AAi?$AAo?$AAn?$AA?5?$AAo?$AAf?$AA?5?$AAi?$AAn@ 10072a38     dxerr8:dxerr8.obj
 0002:00023ad8       ??_C@_1EC@MCKKMDCG@?$AAA?$AAn?$AA?5?$AAo?$AAb?$AAj?$AAe?$AAc?$AAt?$AA?5?$AAo?$AAr?$AA?5?$AAn?$AAa?$AAm?$AAe?$AA?5?$AAw?$AAa@ 10072ad8     dxerr8:dxerr8.obj
 0002:00023b20       ??_C@_1FO@NDJLDADA@?$AAA?$AA?5?$AAr?$AAe?$AAq?$AAu?$AAi?$AAr?$AAe?$AAd?$AA?5?$AAi?$AAn?$AAt?$AAe?$AAr?$AAf?$AAa?$AAc?$AAe@ 10072b20     dxerr8:dxerr8.obj
 0002:00023b80       ??_C@_1JK@HIFAPMKN@?$AAQ?$AAu?$AAa?$AAl?$AAi?$AAt?$AAy?$AA?5?$AAm?$AAe?$AAs?$AAs?$AAa?$AAg?$AAe?$AAs?$AA?5?$AAc?$AAo?$AAu@ 10072b80     dxerr8:dxerr8.obj
 0002:00023c20       ??_C@_1IG@NNIEAMGJ@?$AAC?$AAa?$AAn?$AAn?$AAo?$AAt?$AA?5?$AAl?$AAo?$AAc?$AAk?$AA?5?$AAf?$AAo?$AAr?$AA?5?$AAs?$AAy?$AAn?$AAc@ 10072c20     dxerr8:dxerr8.obj
 0002:00023ca8       ??_C@_1GK@PMKHMDME@?$AAC?$AAa?$AAn?$AAn?$AAo?$AAt?$AA?5?$AAa?$AAl?$AAl?$AAo?$AAc?$AAa?$AAt?$AAe?$AA?5?$AAm?$AAe?$AAm?$AAo@ 10072ca8     dxerr8:dxerr8.obj
 0002:00023d18       ??_C@_1HG@CFDJMFH@?$AAC?$AAa?$AAn?$AAn?$AAo?$AAt?$AA?5?$AAa?$AAl?$AAl?$AAo?$AAc?$AAa?$AAt?$AAe?$AA?5?$AAa?$AA?5?$AAs?$AAa@ 10072d18     dxerr8:dxerr8.obj
 0002:00023d90       ??_C@_1EM@KFDKIFMH@?$AAO?$AAn?$AAe?$AA?5?$AAo?$AAr?$AA?5?$AAm?$AAo?$AAr?$AAe?$AA?5?$AAb?$AAu?$AAf?$AAf?$AAe?$AAr?$AAs?$AA?5@ 10072d90     dxerr8:dxerr8.obj
 0002:00023de0       ??_C@_1HG@FDLPOLHJ@?$AAC?$AAa?$AAn?$AAn?$AAo?$AAt?$AA?5?$AAc?$AAh?$AAa?$AAn?$AAg?$AAe?$AA?5?$AAa?$AAl?$AAl?$AAo?$AAc?$AAa@ 10072de0     dxerr8:dxerr8.obj
 0002:00023e58       ??_C@_1EI@JKJHJFDC@?$AAA?$AAn?$AA?5?$AAi?$AAn?$AAv?$AAa?$AAl?$AAi?$AAd?$AA?5?$AAa?$AAl?$AAi?$AAg?$AAn?$AAm?$AAe?$AAn?$AAt@ 10072e58     dxerr8:dxerr8.obj
 0002:00023ea0       ??_C@_1DM@OABAKGNF@?$AAT?$AAh?$AAe?$AA?5?$AAb?$AAu?$AAf?$AAf?$AAe?$AAr?$AA?5?$AAi?$AAs?$AA?5?$AAn?$AAo?$AAt?$AA?5?$AAb?$AAi@ 10072ea0     dxerr8:dxerr8.obj
 0002:00023edc       ??_C@_1DK@CEIOCHLF@?$AAN?$AAo?$AA?5?$AAb?$AAu?$AAf?$AAf?$AAe?$AAr?$AA?5?$AAs?$AAp?$AAa?$AAc?$AAe?$AA?5?$AAh?$AAa?$AAs?$AA?5@ 10072edc     dxerr8:dxerr8.obj
 0002:00023f18       ??_C@_1PI@EFALDJLH@?$AAA?$AA?5?$AAm?$AAa?$AAp?$AAp?$AAe?$AAr?$AA?5?$AAf?$AAi?$AAl?$AAe?$AA?5?$AAf?$AAu?$AAn?$AAc?$AAt?$AAi@ 10072f18     dxerr8:dxerr8.obj
 0002:00024010       ??_C@_1CGM@HAMHPMDC@?$AAS?$AAe?$AAn?$AAd?$AAD?$AAe?$AAv?$AAi?$AAc?$AAe?$AAD?$AAa?$AAt?$AAa?$AA?5?$AAf?$AAa?$AAi?$AAl?$AAe@ 10073010     dxerr8:dxerr8.obj
 0002:00024280       ??_C@_1BCG@LMNFKCAF@?$AAT?$AAh?$AAe?$AA?5?$AAo?$AAp?$AAe?$AAr?$AAa?$AAt?$AAi?$AAo?$AAn?$AA?5?$AAc?$AAo?$AAu?$AAl?$AAd?$AA?5@ 10073280     dxerr8:dxerr8.obj
 0002:000243a8       ??_C@_1BMM@LCNNMOFJ@?$AAA?$AAn?$AA?5?$AAa?$AAt?$AAt?$AAe?$AAm?$AAp?$AAt?$AA?5?$AAw?$AAa?$AAs?$AA?5?$AAm?$AAa?$AAd?$AAe?$AA?5@ 100733a8     dxerr8:dxerr8.obj
 0002:00024578       ??_C@_1PO@PAOINCDB@?$AAA?$AAt?$AAt?$AAe?$AAm?$AAp?$AAt?$AAe?$AAd?$AA?5?$AAt?$AAo?$AA?5?$AAr?$AAe?$AAa?$AAd?$AA?5?$AAb?$AAu@ 10073578     dxerr8:dxerr8.obj
 0002:00024678       ??_C@_1BDM@CAOHKBBK@?$AAT?$AAh?$AAe?$AA?5?$AAd?$AAe?$AAv?$AAi?$AAc?$AAe?$AA?5?$AAc?$AAa?$AAn?$AAn?$AAo?$AAt?$AA?5?$AAb?$AAe@ 10073678     dxerr8:dxerr8.obj
 0002:000247b8       ??_C@_1BDI@JLNFPFKK@?$AAT?$AAh?$AAe?$AA?5?$AAo?$AAp?$AAe?$AAr?$AAa?$AAt?$AAi?$AAo?$AAn?$AA?5?$AAc?$AAa?$AAn?$AAn?$AAo?$AAt@ 100737b8     dxerr8:dxerr8.obj
 0002:000248f0       ??_C@_1BOA@DGKJMONA@?$AAT?$AAh?$AAe?$AA?5?$AAe?$AAf?$AAf?$AAe?$AAc?$AAt?$AA?5?$AAc?$AAo?$AAu?$AAl?$AAd?$AA?5?$AAn?$AAo?$AAt@ 100738f0     dxerr8:dxerr8.obj
 0002:00024ad0       ??_C@_1IG@GHMJNLNN@?$AAT?$AAh?$AAe?$AA?5?$AAe?$AAf?$AAf?$AAe?$AAc?$AAt?$AA?5?$AAi?$AAs?$AA?5?$AAn?$AAo?$AAt?$AA?5?$AAd?$AAo@ 10073ad0     dxerr8:dxerr8.obj
 0002:00024b58       ??_C@_1EM@FLPMGJJO@?$AAC?$AAo?$AAI?$AAn?$AAi?$AAt?$AAi?$AAa?$AAl?$AAi?$AAz?$AAe?$AA?5?$AAh?$AAa?$AAs?$AA?5?$AAa?$AAl?$AAr@ 10073b58     dxerr8:dxerr8.obj
 0002:00024ba8       ??_C@_1BFC@JGECONNK@?$AAU?$AAn?$AAa?$AAb?$AAl?$AAe?$AA?5?$AAt?$AAo?$AA?5?$AAI?$AAD?$AAi?$AAr?$AAe?$AAc?$AAt?$AAI?$AAn?$AAp@ 10073ba8     dxerr8:dxerr8.obj
 0002:00024d00       ??_C@_1HM@LDAKCLNB@?$AAT?$AAh?$AAe?$AA?5?$AAd?$AAe?$AAv?$AAi?$AAc?$AAe?$AA?5?$AAi?$AAs?$AA?5?$AAf?$AAu?$AAl?$AAl?$AA?4?$AA?5@ 10073d00     dxerr8:dxerr8.obj
 0002:00024d80       ??_C@_1OE@PJHKBBA@?$AAN?$AAo?$AAt?$AA?5?$AAa?$AAl?$AAl?$AA?5?$AAt?$AAh?$AAe?$AA?5?$AAr?$AAe?$AAq?$AAu?$AAe?$AAs?$AAt?$AAe@ 10073d80     dxerr8:dxerr8.obj
 0002:00024e68       ??_C@_1EE@PGHHGPDJ@?$AAC?$AAo?$AAI?$AAn?$AAi?$AAt?$AAi?$AAa?$AAl?$AAi?$AAz?$AAe?$AA?5?$AAh?$AAa?$AAs?$AA?5?$AAn?$AAo?$AAt@ 10073e68     dxerr8:dxerr8.obj
 0002:00024eac       ??_C@_1DO@KPDNBDGN@?$AAA?$AAn?$AA?5?$AAu?$AAn?$AAd?$AAe?$AAt?$AAe?$AAr?$AAm?$AAi?$AAn?$AAe?$AAd?$AA?5?$AAe?$AAr?$AAr?$AAo@ 10073eac     dxerr8:dxerr8.obj
 0002:00024eec       ??_C@_1CK@KJIELLHF@?$AAC?$AAa?$AAt?$AAa?$AAs?$AAt?$AAr?$AAo?$AAp?$AAh?$AAi?$AAc?$AA?5?$AAf?$AAa?$AAi?$AAl?$AAu?$AAr?$AAe@ 10073eec     dxerr8:dxerr8.obj
 0002:00024f18       ??_C@_1FC@DBBLOKEL@?$AAT?$AAh?$AAi?$AAs?$AA?5?$AAo?$AAb?$AAj?$AAe?$AAc?$AAt?$AA?5?$AAd?$AAo?$AAe?$AAs?$AA?5?$AAn?$AAo?$AAt@ 10073f18     dxerr8:dxerr8.obj
 0002:00024f6c       ??_C@_1CK@JMPBMGNM@?$AAC?$AAl?$AAa?$AAs?$AAs?$AA?5?$AAn?$AAo?$AAt?$AA?5?$AAr?$AAe?$AAg?$AAi?$AAs?$AAt?$AAe?$AAr?$AAe?$AAd@ 10073f6c     dxerr8:dxerr8.obj
 0002:00024f98       ??_C@_1CE@DFOHHPFH@?$AAO?$AAp?$AAe?$AAr?$AAa?$AAt?$AAi?$AAo?$AAn?$AA?5?$AAa?$AAb?$AAo?$AAr?$AAt?$AAe?$AAd?$AA?$AA@ 10073f98     dxerr8:dxerr8.obj
 0002:00024fc0       ??_C@_1II@GPPMGIPO@?$AAT?$AAh?$AAe?$AA?5?$AAd?$AAa?$AAt?$AAa?$AA?5?$AAn?$AAe?$AAc?$AAe?$AAs?$AAs?$AAa?$AAr?$AAy?$AA?5?$AAt@ 10073fc0     dxerr8:dxerr8.obj
 0002:00025048       ??_C@_1GE@CHGCMKHI@?$AAT?$AAh?$AAe?$AA?5?$AAf?$AAu?$AAn?$AAc?$AAt?$AAi?$AAo?$AAn?$AA?5?$AAc?$AAa?$AAl?$AAl?$AAe?$AAd?$AA?5@ 10074048     dxerr8:dxerr8.obj
 0002:000250b0       ??_C@_1FK@CADCCOAI@?$AAT?$AAh?$AAe?$AA?5?$AAr?$AAe?$AAq?$AAu?$AAe?$AAs?$AAt?$AAe?$AAd?$AA?5?$AAC?$AAO?$AAM?$AA?5?$AAi?$AAn@ 100740b0     dxerr8:dxerr8.obj
 0002:0002510c       ??_C@_1CA@FNLJMFJJ@?$AAI?$AAn?$AAv?$AAa?$AAl?$AAi?$AAd?$AA?5?$AAp?$AAo?$AAi?$AAn?$AAt?$AAe?$AAr?$AA?$AA@ 1007410c     dxerr8:dxerr8.obj
 0002:0002512c       ??_C@_1DK@EMALLDKA@?$AAU?$AAn?$AAe?$AAx?$AAp?$AAe?$AAc?$AAt?$AAe?$AAd?$AA?5?$AAe?$AAr?$AAr?$AAo?$AAr?$AA?5?$AAe?$AAn?$AAc@ 1007412c     dxerr8:dxerr8.obj
 0002:00025168       ??_C@_1FK@JJFBALGA@?$AAF?$AAi?$AAl?$AAe?$AA?3?$AA?5?$AA?$CF?$AAS?$AA?6?$AAL?$AAi?$AAn?$AAe?$AA?3?$AA?5?$AA?$CF?$AAs?$AA?6?$AAE?$AAr@ 10074168     dxerr8:dxerr8.obj
 0002:000251c4       ??_C@_13LBAGMAIH@?$AA?6?$AA?$AA@ 100741c4     dxerr8:dxerr8.obj
 0002:000251c8       ??_C@_1BC@KKGMBIKF@?$AA?5?$AA?$CI?$AAh?$AAr?$AA?$DN?$AA?$CF?$AAs?$AA?$CJ?$AA?$AA@ 100741c8     dxerr8:dxerr8.obj
 0002:000251dc       ??_C@_1BK@FNABPLOJ@?$AA?$CF?$AAs?$AA?5?$AA?$CI?$AA0?$AAx?$AA?$CF?$AA0?$AA?4?$AA8?$AAx?$AA?$CJ?$AA?$AA@ 100741dc     dxerr8:dxerr8.obj
 0002:000251f8       ??_C@_1BC@EAPCJDOG@?$AA?$CF?$AAS?$AA?$CI?$AA?$CF?$AAs?$AA?$CJ?$AA?3?$AA?5?$AA?$AA@ 100741f8     dxerr8:dxerr8.obj
 0002:0002520c       ??_C@_17OADJODNB@?$AA?$CF?$AAl?$AAd?$AA?$AA@ 1007420c     dxerr8:dxerr8.obj
 0002:00025214       ??_C@_0BN@PEIAILMG@Unexpected?5error?5encountered?$AA@ 10074214     dxerr8:dxerr8.obj
 0002:00025234       ??_C@_0CN@EDCHMMHF@File?3?5?$CFs?6Line?3?5?$CFs?6Error?5Code?3?5?$CFs@ 10074234     dxerr8:dxerr8.obj
 0002:00025264       ??_C@_01EEMJAFIK@?6?$AA@   10074264     dxerr8:dxerr8.obj
 0002:00025268       ??_C@_08JDILNEIA@?5?$CIhr?$DN?$CFs?$CJ?$AA@ 10074268     dxerr8:dxerr8.obj
 0002:00025274       ??_C@_0N@EKKJGCCF@?$CFs?5?$CI0x?$CF0?48x?$CJ?$AA@ 10074274     dxerr8:dxerr8.obj
 0002:00025284       ??_C@_08IHEMGHPP@?$CFs?$CI?$CFs?$CJ?3?5?$AA@ 10074284     dxerr8:dxerr8.obj
 0002:00025290       ??_C@_03JALODAI@?$CFld?$AA@ 10074290     dxerr8:dxerr8.obj
 0002:00025294       _KSDATAFORMAT_SUBTYPE_DIRECTMUSIC 10074294     dxguid:dxguid.obj
 0002:000252a4       _KSDATAFORMAT_SUBTYPE_MIDI 100742a4     dxguid:dxguid.obj
 0002:000252b4       _IID_IKsControl            100742b4     dxguid:dxguid.obj
 0002:000252c4       _IID_IDirectMusicAudioPath 100742c4     dxguid:dxguid.obj
 0002:000252d4       _IID_IDirectMusicSong      100742d4     dxguid:dxguid.obj
 0002:000252e4       _IID_IDirectMusicContainer 100742e4     dxguid:dxguid.obj
 0002:000252f4       _IID_IDirectMusicScript    100742f4     dxguid:dxguid.obj
 0002:00025304       _IID_IDirectMusicPatternTrack 10074304     dxguid:dxguid.obj
 0002:00025314       _IID_IDirectMusicStyle8    10074314     dxguid:dxguid.obj
 0002:00025324       _IID_IDirectMusicSegmentState8 10074324     dxguid:dxguid.obj
 0002:00025334       _IID_IDirectMusicSegment8  10074334     dxguid:dxguid.obj
 0002:00025344       _IID_IDirectMusicPerformance8 10074344     dxguid:dxguid.obj
 0002:00025354       _IID_IDirectMusicLoader8   10074354     dxguid:dxguid.obj
 0002:00025364       _IID_IDirectMusicSegment2  10074364     dxguid:dxguid.obj
 0002:00025374       _IID_IDirectMusicPerformance2 10074374     dxguid:dxguid.obj
 0002:00025384       _IID_IDirectMusicBand      10074384     dxguid:dxguid.obj
 0002:00025394       _IID_IDirectMusicComposer  10074394     dxguid:dxguid.obj
 0002:000253a4       _IID_IDirectMusicChordMap  100743a4     dxguid:dxguid.obj
 0002:000253b4       _IID_IDirectMusicStyle     100743b4     dxguid:dxguid.obj
 0002:000253c4       _IID_IDirectMusicGraph     100743c4     dxguid:dxguid.obj
 0002:000253d4       _IID_IDirectMusicPerformance 100743d4     dxguid:dxguid.obj
 0002:000253e4       _IID_IDirectMusicSegmentState 100743e4     dxguid:dxguid.obj
 0002:000253f4       _IID_IDirectMusicSegment   100743f4     dxguid:dxguid.obj
 0002:00025404       _IID_IDirectMusicObject    10074404     dxguid:dxguid.obj
 0002:00025414       _IID_IDirectMusicGetLoader 10074414     dxguid:dxguid.obj
 0002:00025424       _IID_IDirectMusicLoader    10074424     dxguid:dxguid.obj
 0002:00025434       _GUID_Buffer_Mono          10074434     dxguid:dxguid.obj
 0002:00025444       _GUID_Buffer_3D_Dry        10074444     dxguid:dxguid.obj
 0002:00025454       _GUID_Buffer_Stereo        10074454     dxguid:dxguid.obj
 0002:00025464       _GUID_Buffer_EnvReverb     10074464     dxguid:dxguid.obj
 0002:00025474       _GUID_Buffer_Reverb        10074474     dxguid:dxguid.obj
 0002:00025484       _GUID_Synth_Default        10074484     dxguid:dxguid.obj
 0002:00025494       _GUID_DefaultGMCollection  10074494     dxguid:dxguid.obj
 0002:000254a4       _GUID_PerfAutoDownload     100744a4     dxguid:dxguid.obj
 0002:000254b4       _GUID_PerfMasterGrooveLevel 100744b4     dxguid:dxguid.obj
 0002:000254c4       _GUID_PerfMasterVolume     100744c4     dxguid:dxguid.obj
 0002:000254d4       _GUID_PerfMasterTempo      100744d4     dxguid:dxguid.obj
 0002:000254e4       _GUID_UnloadFromAudioPath  100744e4     dxguid:dxguid.obj
 0002:000254f4       _GUID_DownloadToAudioPath  100744f4     dxguid:dxguid.obj
 0002:00025504       _GUID_Variations           10074504     dxguid:dxguid.obj
 0002:00025514       _GUID_Clear_All_MelodyFragments 10074514     dxguid:dxguid.obj
 0002:00025524       _GUID_MelodyFragment       10074524     dxguid:dxguid.obj
 0002:00025534       _GUID_SeedVariations       10074534     dxguid:dxguid.obj
 0002:00025544       _GUID_EnableTempo          10074544     dxguid:dxguid.obj
 0002:00025554       _GUID_DisableTempo         10074554     dxguid:dxguid.obj
 0002:00025564       _GUID_EnableTimeSig        10074564     dxguid:dxguid.obj
 0002:00025574       _GUID_DisableTimeSig       10074574     dxguid:dxguid.obj
 0002:00025584       _GUID_StandardMIDIFile     10074584     dxguid:dxguid.obj
 0002:00025594       _GUID_Clear_All_Bands      10074594     dxguid:dxguid.obj
 0002:000255a4       _GUID_Disable_Auto_Download 100745a4     dxguid:dxguid.obj
 0002:000255b4       _GUID_Enable_Auto_Download 100745b4     dxguid:dxguid.obj
 0002:000255c4       _GUID_ConnectToDLSCollection 100745c4     dxguid:dxguid.obj
 0002:000255d4       _GUID_Unload               100745d4     dxguid:dxguid.obj
 0002:000255e4       _GUID_Download             100745e4     dxguid:dxguid.obj
 0002:000255f4       _GUID_MuteParam            100745f4     dxguid:dxguid.obj
 0002:00025604       _GUID_IDirectMusicChordMap 10074604     dxguid:dxguid.obj
 0002:00025614       _GUID_IDirectMusicBand     10074614     dxguid:dxguid.obj
 0002:00025624       _GUID_BandParam            10074624     dxguid:dxguid.obj
 0002:00025634       _GUID_Play_Marker          10074634     dxguid:dxguid.obj
 0002:00025644       _GUID_Valid_Start_Time     10074644     dxguid:dxguid.obj
 0002:00025654       _GUID_TempoParam           10074654     dxguid:dxguid.obj
 0002:00025664       _GUID_TimeSignature        10074664     dxguid:dxguid.obj
 0002:00025674       _GUID_IDirectMusicStyle    10074674     dxguid:dxguid.obj
 0002:00025684       _GUID_RhythmParam          10074684     dxguid:dxguid.obj
 0002:00025694       _GUID_ChordParam           10074694     dxguid:dxguid.obj
 0002:000256a4       _GUID_CommandParamNext     100746a4     dxguid:dxguid.obj
 0002:000256b4       _GUID_CommandParam2        100746b4     dxguid:dxguid.obj
 0002:000256c4       _GUID_CommandParam         100746c4     dxguid:dxguid.obj
 0002:000256d4       _GUID_NOTIFICATION_RECOMPOSE 100746d4     dxguid:dxguid.obj
 0002:000256e4       _GUID_NOTIFICATION_COMMAND 100746e4     dxguid:dxguid.obj
 0002:000256f4       _GUID_NOTIFICATION_CHORD   100746f4     dxguid:dxguid.obj
 0002:00025704       _GUID_NOTIFICATION_MEASUREANDBEAT 10074704     dxguid:dxguid.obj
 0002:00025714       _GUID_NOTIFICATION_PERFORMANCE 10074714     dxguid:dxguid.obj
 0002:00025724       _GUID_NOTIFICATION_SEGMENT 10074724     dxguid:dxguid.obj
 0002:00025734       _GUID_DirectMusicAllTypes  10074734     dxguid:dxguid.obj
 0002:00025744       _CLSID_DirectMusicAudioPathConfig 10074744     dxguid:dxguid.obj
 0002:00025754       _CLSID_DirectMusicSong     10074754     dxguid:dxguid.obj
 0002:00025764       _CLSID_DirectSoundWave     10074764     dxguid:dxguid.obj
 0002:00025774       _CLSID_DirectMusicContainer 10074774     dxguid:dxguid.obj
 0002:00025784       _CLSID_DirectMusicScript   10074784     dxguid:dxguid.obj
 0002:00025794       _CLSID_DirectMusicPatternTrack 10074794     dxguid:dxguid.obj
 0002:000257a4       _CLSID_DirectMusicBand     100747a4     dxguid:dxguid.obj
 0002:000257b4       _CLSID_DirectMusicLoader   100747b4     dxguid:dxguid.obj
 0002:000257c4       _CLSID_DirectMusicComposer 100747c4     dxguid:dxguid.obj
 0002:000257d4       _CLSID_DirectMusicChordMap 100747d4     dxguid:dxguid.obj
 0002:000257e4       _CLSID_DirectMusicStyle    100747e4     dxguid:dxguid.obj
 0002:000257f4       _CLSID_DirectMusicGraph    100747f4     dxguid:dxguid.obj
 0002:00025804       _CLSID_DirectMusicSegmentState 10074804     dxguid:dxguid.obj
 0002:00025814       _CLSID_DirectMusicSegment  10074814     dxguid:dxguid.obj
 0002:00025824       _CLSID_DirectMusicPerformance 10074824     dxguid:dxguid.obj
 0002:00025834       _IID_IDirectMusicTrack8    10074834     dxguid:dxguid.obj
 0002:00025844       _IID_IDirectMusicTool8     10074844     dxguid:dxguid.obj
 0002:00025854       _IID_IDirectMusicTool      10074854     dxguid:dxguid.obj
 0002:00025864       _IID_IDirectMusicTrack     10074864     dxguid:dxguid.obj
 0002:00025874       _CLSID_DirectMusicWaveTrack 10074874     dxguid:dxguid.obj
 0002:00025884       _CLSID_DirectMusicMelodyFormulationTrack 10074884     dxguid:dxguid.obj
 0002:00025894       _CLSID_DirectMusicParamControlTrack 10074894     dxguid:dxguid.obj
 0002:000258a4       _CLSID_DirectMusicLyricsTrack 100748a4     dxguid:dxguid.obj
 0002:000258b4       _CLSID_DirectMusicSegmentTriggerTrack 100748b4     dxguid:dxguid.obj
 0002:000258c4       _CLSID_DirectMusicMarkerTrack 100748c4     dxguid:dxguid.obj
 0002:000258d4       _CLSID_DirectMusicScriptTrack 100748d4     dxguid:dxguid.obj
 0002:000258e4       _CLSID_DirectMusicMuteTrack 100748e4     dxguid:dxguid.obj
 0002:000258f4       _CLSID_DirectMusicChordMapTrack 100748f4     dxguid:dxguid.obj
 0002:00025904       _CLSID_DirectMusicBandTrack 10074904     dxguid:dxguid.obj
 0002:00025914       _CLSID_DirectMusicSignPostTrack 10074914     dxguid:dxguid.obj
 0002:00025924       _CLSID_DirectMusicMotifTrack 10074924     dxguid:dxguid.obj
 0002:00025934       _CLSID_DirectMusicStyleTrack 10074934     dxguid:dxguid.obj
 0002:00025944       _CLSID_DirectMusicCommandTrack 10074944     dxguid:dxguid.obj
 0002:00025954       _CLSID_DirectMusicChordTrack 10074954     dxguid:dxguid.obj
 0002:00025964       _CLSID_DirectMusicTimeSigTrack 10074964     dxguid:dxguid.obj
 0002:00025974       _CLSID_DirectMusicSysExTrack 10074974     dxguid:dxguid.obj
 0002:00025984       _CLSID_DirectMusicSeqTrack 10074984     dxguid:dxguid.obj
 0002:00025994       _CLSID_DirectMusicTempoTrack 10074994     dxguid:dxguid.obj
 0002:000259a4       _GUID_DMUS_PROP_Volume     100749a4     dxguid:dxguid.obj
 0002:000259b4       _GUID_DMUS_PROP_LegacyCaps 100749b4     dxguid:dxguid.obj
 0002:000259c4       _GUID_DMUS_PROP_Effects    100749c4     dxguid:dxguid.obj
 0002:000259d4       _GUID_DMUS_PROP_WavesReverb 100749d4     dxguid:dxguid.obj
 0002:000259e4       _GUID_DMUS_PROP_MemorySize 100749e4     dxguid:dxguid.obj
 0002:000259f4       _GUID_DMUS_PROP_WritePeriod 100749f4     dxguid:dxguid.obj
 0002:00025a04       _GUID_DMUS_PROP_WriteLatency 10074a04     dxguid:dxguid.obj
 0002:00025a14       _GUID_DMUS_PROP_SamplePlaybackRate 10074a14     dxguid:dxguid.obj
 0002:00025a24       _GUID_DMUS_PROP_SampleMemorySize 10074a24     dxguid:dxguid.obj
 0002:00025a34       _GUID_DMUS_PROP_SynthSink_WAVE 10074a34     dxguid:dxguid.obj
 0002:00025a44       _GUID_DMUS_PROP_SynthSink_DSOUND 10074a44     dxguid:dxguid.obj
 0002:00025a54       _GUID_DMUS_PROP_INSTRUMENT2 10074a54     dxguid:dxguid.obj
 0002:00025a64       _GUID_DMUS_PROP_DLS2       10074a64     dxguid:dxguid.obj
 0002:00025a74       _GUID_DMUS_PROP_DLS1       10074a74     dxguid:dxguid.obj
 0002:00025a84       _GUID_DMUS_PROP_GS_Capable 10074a84     dxguid:dxguid.obj
 0002:00025a94       _GUID_DMUS_PROP_XG_Capable 10074a94     dxguid:dxguid.obj
 0002:00025aa4       _GUID_DMUS_PROP_XG_Hardware 10074aa4     dxguid:dxguid.obj
 0002:00025ab4       _GUID_DMUS_PROP_GS_Hardware 10074ab4     dxguid:dxguid.obj
 0002:00025ac4       _GUID_DMUS_PROP_GM_Hardware 10074ac4     dxguid:dxguid.obj
 0002:00025ad4       _IID_IDirectMusic8         10074ad4     dxguid:dxguid.obj
 0002:00025ae4       _IID_IDirectMusic2         10074ae4     dxguid:dxguid.obj
 0002:00025af4       _IID_IDirectMusicDownloadedInstrument 10074af4     dxguid:dxguid.obj
 0002:00025b04       _IID_IDirectMusicInstrument 10074b04     dxguid:dxguid.obj
 0002:00025b14       _IID_IDirectMusicCollection 10074b14     dxguid:dxguid.obj
 0002:00025b24       _IID_IDirectMusicDownload  10074b24     dxguid:dxguid.obj
 0002:00025b34       _IID_IDirectMusicPortDownload 10074b34     dxguid:dxguid.obj
 0002:00025b44       _IID_IDirectMusicThru      10074b44     dxguid:dxguid.obj
 0002:00025b54       _IID_IDirectMusicPort      10074b54     dxguid:dxguid.obj
 0002:00025b64       _IID_IDirectMusicBuffer    10074b64     dxguid:dxguid.obj
 0002:00025b74       _IID_IDirectMusic          10074b74     dxguid:dxguid.obj
 0002:00025b84       _CLSID_DirectMusicSynth    10074b84     dxguid:dxguid.obj
 0002:00025b94       _CLSID_DirectMusicCollection 10074b94     dxguid:dxguid.obj
 0002:00025ba4       _CLSID_DirectMusic         10074ba4     dxguid:dxguid.obj
 0002:00025bb4       _IID_IDirectPlay8LobbyClient 10074bb4     dxguid:dxguid.obj
 0002:00025bc4       _IID_IDirectPlay8LobbiedApplication 10074bc4     dxguid:dxguid.obj
 0002:00025bd4       _CLSID_DirectPlay8LobbyClient 10074bd4     dxguid:dxguid.obj
 0002:00025be4       _CLSID_DirectPlay8LobbiedApplication 10074be4     dxguid:dxguid.obj
 0002:00025bf4       _DPVCTGUID_VR12            10074bf4     dxguid:dxguid.obj
 0002:00025c04       _DPVCTGUID_TRUESPEECH      10074c04     dxguid:dxguid.obj
 0002:00025c14       _DPVCTGUID_SC06            10074c14     dxguid:dxguid.obj
 0002:00025c24       _DPVCTGUID_SC03            10074c24     dxguid:dxguid.obj
 0002:00025c34       _DPVCTGUID_NONE            10074c34     dxguid:dxguid.obj
 0002:00025c44       _DPVCTGUID_GSM             10074c44     dxguid:dxguid.obj
 0002:00025c54       _DPVCTGUID_ADPCM           10074c54     dxguid:dxguid.obj
 0002:00025c64       _IID_IDirectPlayVoiceTest  10074c64     dxguid:dxguid.obj
 0002:00025c74       _IID_IDirectPlayVoiceServer 10074c74     dxguid:dxguid.obj
 0002:00025c84       _IID_IDirectPlayVoiceClient 10074c84     dxguid:dxguid.obj
 0002:00025c94       _CLSID_DirectPlayVoiceTest 10074c94     dxguid:dxguid.obj
 0002:00025ca4       _CLSID_DirectPlayVoiceServer 10074ca4     dxguid:dxguid.obj
 0002:00025cb4       _CLSID_DirectPlayVoiceClient 10074cb4     dxguid:dxguid.obj
 0002:00025cc4       _GUID_DSCFX_SYSTEM_NS      10074cc4     dxguid:dxguid.obj
 0002:00025cd4       _GUID_DSCFX_MS_NS          10074cd4     dxguid:dxguid.obj
 0002:00025ce4       _GUID_DSCFX_CLASS_NS       10074ce4     dxguid:dxguid.obj
 0002:00025cf4       _GUID_DSCFX_SYSTEM_AEC     10074cf4     dxguid:dxguid.obj
 0002:00025d04       _GUID_DSCFX_MS_AEC         10074d04     dxguid:dxguid.obj
 0002:00025d14       _GUID_DSCFX_CLASS_AEC      10074d14     dxguid:dxguid.obj
 0002:00025d24       _GUID_DSFX_WAVES_REVERB    10074d24     dxguid:dxguid.obj
 0002:00025d34       _GUID_DSFX_STANDARD_I3DL2REVERB 10074d34     dxguid:dxguid.obj
 0002:00025d44       _GUID_DSFX_STANDARD_PARAMEQ 10074d44     dxguid:dxguid.obj
 0002:00025d54       _GUID_DSFX_STANDARD_COMPRESSOR 10074d54     dxguid:dxguid.obj
 0002:00025d64       _GUID_DSFX_STANDARD_DISTORTION 10074d64     dxguid:dxguid.obj
 0002:00025d74       _GUID_DSFX_STANDARD_ECHO   10074d74     dxguid:dxguid.obj
 0002:00025d84       _GUID_DSFX_STANDARD_FLANGER 10074d84     dxguid:dxguid.obj
 0002:00025d94       _GUID_DSFX_STANDARD_CHORUS 10074d94     dxguid:dxguid.obj
 0002:00025da4       _GUID_DSFX_STANDARD_GARGLE 10074da4     dxguid:dxguid.obj
 0002:00025db4       _DS3DALG_HRTF_LIGHT        10074db4     dxguid:dxguid.obj
 0002:00025dc4       _DS3DALG_HRTF_FULL         10074dc4     dxguid:dxguid.obj
 0002:00025dd4       _DS3DALG_NO_VIRTUALIZATION 10074dd4     dxguid:dxguid.obj
 0002:00025de4       _IID_IDirectSoundFullDuplex 10074de4     dxguid:dxguid.obj
 0002:00025df4       _IID_IDirectSoundCaptureFXNoiseSuppress 10074df4     dxguid:dxguid.obj
 0002:00025e04       _IID_IDirectSoundCaptureFXAec 10074e04     dxguid:dxguid.obj
 0002:00025e14       _IID_IDirectSoundFXWavesReverb 10074e14     dxguid:dxguid.obj
 0002:00025e24       _IID_IDirectSoundFXI3DL2Reverb 10074e24     dxguid:dxguid.obj
 0002:00025e34       _IID_IDirectSoundFXParamEq 10074e34     dxguid:dxguid.obj
 0002:00025e44       _IID_IDirectSoundFXCompressor 10074e44     dxguid:dxguid.obj
 0002:00025e54       _IID_IDirectSoundFXDistortion 10074e54     dxguid:dxguid.obj
 0002:00025e64       _IID_IDirectSoundFXEcho    10074e64     dxguid:dxguid.obj
 0002:00025e74       _IID_IDirectSoundFXFlanger 10074e74     dxguid:dxguid.obj
 0002:00025e84       _IID_IDirectSoundFXChorus  10074e84     dxguid:dxguid.obj
 0002:00025e94       _IID_IDirectSoundFXGargle  10074e94     dxguid:dxguid.obj
 0002:00025ea4       _IID_IKsPropertySet        10074ea4     dxguid:dxguid.obj
 0002:00025eb4       _IID_IDirectSoundNotify    10074eb4     dxguid:dxguid.obj
 0002:00025ec4       _IID_IDirectSoundCaptureBuffer8 10074ec4     dxguid:dxguid.obj
 0002:00025ed4       _IID_IDirectSoundCaptureBuffer 10074ed4     dxguid:dxguid.obj
 0002:00025ee4       _IID_IDirectSoundCapture   10074ee4     dxguid:dxguid.obj
 0002:00025ef4       _IID_IDirectSound3DBuffer  10074ef4     dxguid:dxguid.obj
 0002:00025f04       _IID_IDirectSound3DListener 10074f04     dxguid:dxguid.obj
 0002:00025f14       _GUID_All_Objects          10074f14     dxguid:dxguid.obj
 0002:00025f24       _IID_IDirectSoundBuffer8   10074f24     dxguid:dxguid.obj
 0002:00025f34       _IID_IDirectSoundBuffer    10074f34     dxguid:dxguid.obj
 0002:00025f44       _IID_IDirectSound8         10074f44     dxguid:dxguid.obj
 0002:00025f54       _IID_IDirectSound          10074f54     dxguid:dxguid.obj
 0002:00025f64       _IID_IReferenceClock       10074f64     dxguid:dxguid.obj
 0002:00025f74       _DSDEVID_DefaultVoiceCapture 10074f74     dxguid:dxguid.obj
 0002:00025f84       _DSDEVID_DefaultVoicePlayback 10074f84     dxguid:dxguid.obj
 0002:00025f94       _DSDEVID_DefaultCapture    10074f94     dxguid:dxguid.obj
 0002:00025fa4       _DSDEVID_DefaultPlayback   10074fa4     dxguid:dxguid.obj
 0002:00025fb4       _CLSID_DirectSoundFullDuplex 10074fb4     dxguid:dxguid.obj
 0002:00025fc4       _CLSID_DirectSoundCapture8 10074fc4     dxguid:dxguid.obj
 0002:00025fd4       _CLSID_DirectSoundCapture  10074fd4     dxguid:dxguid.obj
 0002:00025fe4       _CLSID_DirectSound8        10074fe4     dxguid:dxguid.obj
 0002:00025ff4       _CLSID_DirectSound         10074ff4     dxguid:dxguid.obj
 0002:00026004       _CLSID_DP8SP_TCPIP         10075004     dxguid:dxguid.obj
 0002:00026014       _CLSID_DP8SP_SERIAL        10075014     dxguid:dxguid.obj
 0002:00026024       _CLSID_DP8SP_MODEM         10075024     dxguid:dxguid.obj
 0002:00026034       _CLSID_DP8SP_IPX           10075034     dxguid:dxguid.obj
 0002:00026044       _IID_IDirectPlay8Server    10075044     dxguid:dxguid.obj
 0002:00026054       _IID_IDirectPlay8Peer      10075054     dxguid:dxguid.obj
 0002:00026064       _IID_IDirectPlay8Client    10075064     dxguid:dxguid.obj
 0002:00026074       _CLSID_DirectPlay8Server   10075074     dxguid:dxguid.obj
 0002:00026084       _CLSID_DirectPlay8Peer     10075084     dxguid:dxguid.obj
 0002:00026094       _CLSID_DirectPlay8Client   10075094     dxguid:dxguid.obj
 0002:000260a4       _IID_IDirectPlay8AddressIP 100750a4     dxguid:dxguid.obj
 0002:000260b4       _IID_IDirectPlay8Address   100750b4     dxguid:dxguid.obj
 0002:000260c4       _CLSID_DirectPlay8Address  100750c4     dxguid:dxguid.obj
 0002:000260d4       _DPAID_ComPort             100750d4     dxguid:dxguid.obj
 0002:000260e4       _DPAID_INetPort            100750e4     dxguid:dxguid.obj
 0002:000260f4       _DPAID_INetW               100750f4     dxguid:dxguid.obj
 0002:00026104       _DPAID_INet                10075104     dxguid:dxguid.obj
 0002:00026114       _DPAID_ModemW              10075114     dxguid:dxguid.obj
 0002:00026124       _DPAID_Modem               10075124     dxguid:dxguid.obj
 0002:00026134       _DPAID_PhoneW              10075134     dxguid:dxguid.obj
 0002:00026144       _DPAID_Phone               10075144     dxguid:dxguid.obj
 0002:00026154       _DPAID_LobbyProvider       10075154     dxguid:dxguid.obj
 0002:00026164       _DPAID_ServiceProvider     10075164     dxguid:dxguid.obj
 0002:00026174       _DPAID_TotalSize           10075174     dxguid:dxguid.obj
 0002:00026184       _DPLPROPERTY_PlayerScore   10075184     dxguid:dxguid.obj
 0002:00026194       _DPLPROPERTY_PlayerGuid    10075194     dxguid:dxguid.obj
 0002:000261a4       _DPLPROPERTY_LobbyGuid     100751a4     dxguid:dxguid.obj
 0002:000261b4       _DPLPROPERTY_MessagesSupported 100751b4     dxguid:dxguid.obj
 0002:000261c4       _CLSID_DirectPlayLobby     100751c4     dxguid:dxguid.obj
 0002:000261d4       _IID_IDirectPlayLobby3A    100751d4     dxguid:dxguid.obj
 0002:000261e4       _IID_IDirectPlayLobby3     100751e4     dxguid:dxguid.obj
 0002:000261f4       _IID_IDirectPlayLobby2A    100751f4     dxguid:dxguid.obj
 0002:00026204       _IID_IDirectPlayLobby2     10075204     dxguid:dxguid.obj
 0002:00026214       _IID_IDirectPlayLobbyA     10075214     dxguid:dxguid.obj
 0002:00026224       _IID_IDirectPlayLobby      10075224     dxguid:dxguid.obj
 0002:00026234       _IID_IDirectPlay           10075234     dxguid:dxguid.obj
 0002:00026244       _DPSPGUID_MODEM            10075244     dxguid:dxguid.obj
 0002:00026254       _DPSPGUID_SERIAL           10075254     dxguid:dxguid.obj
 0002:00026264       _DPSPGUID_TCPIP            10075264     dxguid:dxguid.obj
 0002:00026274       _DPSPGUID_IPX              10075274     dxguid:dxguid.obj
 0002:00026284       _CLSID_DirectPlay          10075284     dxguid:dxguid.obj
 0002:00026294       _IID_IDirectPlay4A         10075294     dxguid:dxguid.obj
 0002:000262a4       _IID_IDirectPlay4          100752a4     dxguid:dxguid.obj
 0002:000262b4       _IID_IDirectPlay3A         100752b4     dxguid:dxguid.obj
 0002:000262c4       _IID_IDirectPlay3          100752c4     dxguid:dxguid.obj
 0002:000262d4       _IID_IDirectPlay2A         100752d4     dxguid:dxguid.obj
 0002:000262e4       _IID_IDirectPlay2          100752e4     dxguid:dxguid.obj
 0002:000262f4       _GUID_HIDClass             100752f4     dxguid:dxguid.obj
 0002:00026304       _GUID_MouseClass           10075304     dxguid:dxguid.obj
 0002:00026314       _GUID_MediaClass           10075314     dxguid:dxguid.obj
 0002:00026324       _GUID_KeyboardClass        10075324     dxguid:dxguid.obj
 0002:00026334       _IID_IDirectInputJoyConfig8 10075334     dxguid:dxguid.obj
 0002:00026344       _IID_IDirectInputPIDDriver 10075344     dxguid:dxguid.obj
 0002:00026354       _IID_IDirectInputJoyConfig 10075354     dxguid:dxguid.obj
 0002:00026364       _IID_IDirectInputEffectDriver 10075364     dxguid:dxguid.obj
 0002:00026374       _GUID_CustomForce          10075374     dxguid:dxguid.obj
 0002:00026384       _GUID_Friction             10075384     dxguid:dxguid.obj
 0002:00026394       _GUID_Inertia              10075394     dxguid:dxguid.obj
 0002:000263a4       _GUID_Damper               100753a4     dxguid:dxguid.obj
 0002:000263b4       _GUID_Spring               100753b4     dxguid:dxguid.obj
 0002:000263c4       _GUID_SawtoothDown         100753c4     dxguid:dxguid.obj
 0002:000263d4       _GUID_SawtoothUp           100753d4     dxguid:dxguid.obj
 0002:000263e4       _GUID_Triangle             100753e4     dxguid:dxguid.obj
 0002:000263f4       _GUID_Sine                 100753f4     dxguid:dxguid.obj
 0002:00026404       _GUID_Square               10075404     dxguid:dxguid.obj
 0002:00026414       _GUID_RampForce            10075414     dxguid:dxguid.obj
 0002:00026424       _GUID_ConstantForce        10075424     dxguid:dxguid.obj
 0002:00026434       _GUID_SysKeyboardEm2       10075434     dxguid:dxguid.obj
 0002:00026444       _GUID_SysKeyboardEm        10075444     dxguid:dxguid.obj
 0002:00026454       _GUID_SysMouseEm2          10075454     dxguid:dxguid.obj
 0002:00026464       _GUID_SysMouseEm           10075464     dxguid:dxguid.obj
 0002:00026474       _GUID_Joystick             10075474     dxguid:dxguid.obj
 0002:00026484       _GUID_SysKeyboard          10075484     dxguid:dxguid.obj
 0002:00026494       _GUID_SysMouse             10075494     dxguid:dxguid.obj
 0002:000264a4       _GUID_Unknown              100754a4     dxguid:dxguid.obj
 0002:000264b4       _GUID_POV                  100754b4     dxguid:dxguid.obj
 0002:000264c4       _GUID_Key                  100754c4     dxguid:dxguid.obj
 0002:000264d4       _GUID_Button               100754d4     dxguid:dxguid.obj
 0002:000264e4       _GUID_Slider               100754e4     dxguid:dxguid.obj
 0002:000264f4       _GUID_RzAxis               100754f4     dxguid:dxguid.obj
 0002:00026504       _GUID_RyAxis               10075504     dxguid:dxguid.obj
 0002:00026514       _GUID_RxAxis               10075514     dxguid:dxguid.obj
 0002:00026524       _GUID_ZAxis                10075524     dxguid:dxguid.obj
 0002:00026534       _GUID_YAxis                10075534     dxguid:dxguid.obj
 0002:00026544       _GUID_XAxis                10075544     dxguid:dxguid.obj
 0002:00026554       _IID_IDirectInputEffect    10075554     dxguid:dxguid.obj
 0002:00026564       _IID_IDirectInputDevice8W  10075564     dxguid:dxguid.obj
 0002:00026574       _IID_IDirectInputDevice8A  10075574     dxguid:dxguid.obj
 0002:00026584       _IID_IDirectInputDevice7W  10075584     dxguid:dxguid.obj
 0002:00026594       _IID_IDirectInputDevice7A  10075594     dxguid:dxguid.obj
 0002:000265a4       _IID_IDirectInputDevice2W  100755a4     dxguid:dxguid.obj
 0002:000265b4       _IID_IDirectInputDevice2A  100755b4     dxguid:dxguid.obj
 0002:000265c4       _IID_IDirectInputDeviceW   100755c4     dxguid:dxguid.obj
 0002:000265d4       _IID_IDirectInputDeviceA   100755d4     dxguid:dxguid.obj
 0002:000265e4       _IID_IDirectInput8W        100755e4     dxguid:dxguid.obj
 0002:000265f4       _IID_IDirectInput8A        100755f4     dxguid:dxguid.obj
 0002:00026604       _IID_IDirectInput7W        10075604     dxguid:dxguid.obj
 0002:00026614       _IID_IDirectInput7A        10075614     dxguid:dxguid.obj
 0002:00026624       _IID_IDirectInput2W        10075624     dxguid:dxguid.obj
 0002:00026634       _IID_IDirectInput2A        10075634     dxguid:dxguid.obj
 0002:00026644       _IID_IDirectInputW         10075644     dxguid:dxguid.obj
 0002:00026654       _IID_IDirectInputA         10075654     dxguid:dxguid.obj
 0002:00026664       _CLSID_DirectInputDevice8  10075664     dxguid:dxguid.obj
 0002:00026674       _CLSID_DirectInput8        10075674     dxguid:dxguid.obj
 0002:00026684       _CLSID_DirectInputDevice   10075684     dxguid:dxguid.obj
 0002:00026694       _CLSID_DirectInput         10075694     dxguid:dxguid.obj
 0002:000266a4       _TID_DXFILEHeader          100756a4     dxguid:dxguid.obj
 0002:000266b4       _IID_IDirectXFileBinary    100756b4     dxguid:dxguid.obj
 0002:000266c4       _IID_IDirectXFileDataReference 100756c4     dxguid:dxguid.obj
 0002:000266d4       _IID_IDirectXFileData      100756d4     dxguid:dxguid.obj
 0002:000266e4       _IID_IDirectXFileObject    100756e4     dxguid:dxguid.obj
 0002:000266f4       _IID_IDirectXFileSaveObject 100756f4     dxguid:dxguid.obj
 0002:00026704       _IID_IDirectXFileEnumObject 10075704     dxguid:dxguid.obj
 0002:00026714       _IID_IDirectXFile          10075714     dxguid:dxguid.obj
 0002:00026724       _CLSID_CDirectXFile        10075724     dxguid:dxguid.obj
 0002:00026734       _TID_D3DRMRightHanded      10075734     dxguid:dxguid.obj
 0002:00026744       _TID_D3DRMPropertyBag      10075744     dxguid:dxguid.obj
 0002:00026754       _TID_D3DRMStringProperty   10075754     dxguid:dxguid.obj
 0002:00026764       _TID_D3DRMExternalVisual   10075764     dxguid:dxguid.obj
 0002:00026774       _TID_D3DRMProgressiveMesh  10075774     dxguid:dxguid.obj
 0002:00026784       _TID_D3DRMUrl              10075784     dxguid:dxguid.obj
 0002:00026794       _TID_D3DRMInlineData       10075794     dxguid:dxguid.obj
 0002:000267a4       _TID_D3DRMLightAttenuation 100757a4     dxguid:dxguid.obj
 0002:000267b4       _TID_D3DRMLightPenumbra    100757b4     dxguid:dxguid.obj
 0002:000267c4       _TID_D3DRMLightRange       100757c4     dxguid:dxguid.obj
 0002:000267d4       _TID_D3DRMLightUmbra       100757d4     dxguid:dxguid.obj
 0002:000267e4       _TID_D3DRMAppData          100757e4     dxguid:dxguid.obj
 0002:000267f4       _TID_D3DRMCamera           100757f4     dxguid:dxguid.obj
 0002:00026804       _TID_D3DRMLight            10075804     dxguid:dxguid.obj
 0002:00026814       _TID_D3DRMFrameRotation    10075814     dxguid:dxguid.obj
 0002:00026824       _TID_D3DRMFrameVelocity    10075824     dxguid:dxguid.obj
 0002:00026834       _TID_D3DRMFramePosition    10075834     dxguid:dxguid.obj
 0002:00026844       _TID_D3DRMAnimationOptions 10075844     dxguid:dxguid.obj
 0002:00026854       _TID_D3DRMTimedFloatKeys   10075854     dxguid:dxguid.obj
 0002:00026864       _TID_D3DRMBoolean2d        10075864     dxguid:dxguid.obj
 0002:00026874       _TID_D3DRMMeshFaceWraps    10075874     dxguid:dxguid.obj
 0002:00026884       _TID_D3DRMBoolean          10075884     dxguid:dxguid.obj
 0002:00026894       _TID_D3DRMMaterialWrap     10075894     dxguid:dxguid.obj
 0002:000268a4       _TID_D3DRMMeshVertexColors 100758a4     dxguid:dxguid.obj
 0002:000268b4       _TID_D3DRMIndexedColor     100758b4     dxguid:dxguid.obj
 0002:000268c4       _TID_D3DRMTextureReference 100758c4     dxguid:dxguid.obj
 0002:000268d4       _TID_D3DRMTextureFilename  100758d4     dxguid:dxguid.obj
 0002:000268e4       _TID_D3DRMGuid             100758e4     dxguid:dxguid.obj
 0002:000268f4       _TID_D3DRMColorRGB         100758f4     dxguid:dxguid.obj
 0002:00026904       _TID_D3DRMColorRGBA        10075904     dxguid:dxguid.obj
 0002:00026914       _TID_D3DRMMaterialPower    10075914     dxguid:dxguid.obj
 0002:00026924       _TID_D3DRMMaterialEmissiveColor 10075924     dxguid:dxguid.obj
 0002:00026934       _TID_D3DRMMaterialSpecularColor 10075934     dxguid:dxguid.obj
 0002:00026944       _TID_D3DRMMaterialDiffuseColor 10075944     dxguid:dxguid.obj
 0002:00026954       _TID_D3DRMMaterialAmbientColor 10075954     dxguid:dxguid.obj
 0002:00026964       _TID_D3DRMFloatKeys        10075964     dxguid:dxguid.obj
 0002:00026974       _TID_D3DRMAnimationKey     10075974     dxguid:dxguid.obj
 0002:00026984       _TID_D3DRMAnimationSet     10075984     dxguid:dxguid.obj
 0002:00026994       _TID_D3DRMAnimation        10075994     dxguid:dxguid.obj
 0002:000269a4       _TID_D3DRMMatrix4x4        100759a4     dxguid:dxguid.obj
 0002:000269b4       _TID_D3DRMCoords2d         100759b4     dxguid:dxguid.obj
 0002:000269c4       _TID_D3DRMMeshNormals      100759c4     dxguid:dxguid.obj
 0002:000269d4       _TID_D3DRMMeshTextureCoords 100759d4     dxguid:dxguid.obj
 0002:000269e4       _TID_D3DRMMeshMaterialList 100759e4     dxguid:dxguid.obj
 0002:000269f4       _TID_D3DRMFrameTransformMatrix 100759f4     dxguid:dxguid.obj
 0002:00026a04       _TID_D3DRMFrame            10075a04     dxguid:dxguid.obj
 0002:00026a14       _TID_D3DRMMaterialArray    10075a14     dxguid:dxguid.obj
 0002:00026a24       _TID_D3DRMMaterial         10075a24     dxguid:dxguid.obj
 0002:00026a34       _TID_D3DRMMeshFace         10075a34     dxguid:dxguid.obj
 0002:00026a44       _TID_D3DRMVector           10075a44     dxguid:dxguid.obj
 0002:00026a54       _TID_D3DRMMesh             10075a54     dxguid:dxguid.obj
 0002:00026a64       _TID_D3DRMInfo             10075a64     dxguid:dxguid.obj
 0002:00026a74       _IID_IDirect3DRMWinDevice  10075a74     dxguid:dxguid.obj
 0002:00026a84       _CLSID_CDirect3DRM         10075a84     dxguid:dxguid.obj
 0002:00026a94       _IID_IDirect3DRM3          10075a94     dxguid:dxguid.obj
 0002:00026aa4       _IID_IDirect3DRM2          10075aa4     dxguid:dxguid.obj
 0002:00026ab4       _IID_IDirect3DRM           10075ab4     dxguid:dxguid.obj
 0002:00026ac4       _IID_IDirect3DRMClippedVisual 10075ac4     dxguid:dxguid.obj
 0002:00026ad4       _IID_IDirect3DRMPicked2Array 10075ad4     dxguid:dxguid.obj
 0002:00026ae4       _IID_IDirect3DRMProgressiveMesh 10075ae4     dxguid:dxguid.obj
 0002:00026af4       _IID_IDirect3DRMInterpolator 10075af4     dxguid:dxguid.obj
 0002:00026b04       _IID_IDirect3DRMShadow2    10075b04     dxguid:dxguid.obj
 0002:00026b14       _IID_IDirect3DRMShadow     10075b14     dxguid:dxguid.obj
 0002:00026b24       _IID_IDirect3DRMUserVisual 10075b24     dxguid:dxguid.obj
 0002:00026b34       _IID_IDirect3DRMAnimationArray 10075b34     dxguid:dxguid.obj
 0002:00026b44       _IID_IDirect3DRMFaceArray  10075b44     dxguid:dxguid.obj
 0002:00026b54       _IID_IDirect3DRMPickedArray 10075b54     dxguid:dxguid.obj
 0002:00026b64       _IID_IDirect3DRMLightArray 10075b64     dxguid:dxguid.obj
 0002:00026b74       _IID_IDirect3DRMVisualArray 10075b74     dxguid:dxguid.obj
 0002:00026b84       _IID_IDirect3DRMFrameArray 10075b84     dxguid:dxguid.obj
 0002:00026b94       _IID_IDirect3DRMViewportArray 10075b94     dxguid:dxguid.obj
 0002:00026ba4       _IID_IDirect3DRMDeviceArray 10075ba4     dxguid:dxguid.obj
 0002:00026bb4       _IID_IDirect3DRMObjectArray 10075bb4     dxguid:dxguid.obj
 0002:00026bc4       _IID_IDirect3DRMAnimationSet2 10075bc4     dxguid:dxguid.obj
 0002:00026bd4       _IID_IDirect3DRMAnimationSet 10075bd4     dxguid:dxguid.obj
 0002:00026be4       _IID_IDirect3DRMAnimation2 10075be4     dxguid:dxguid.obj
 0002:00026bf4       _IID_IDirect3DRMAnimation  10075bf4     dxguid:dxguid.obj
 0002:00026c04       _IID_IDirect3DRMMaterial2  10075c04     dxguid:dxguid.obj
 0002:00026c14       _IID_IDirect3DRMMaterial   10075c14     dxguid:dxguid.obj
 0002:00026c24       _IID_IDirect3DRMWrap       10075c24     dxguid:dxguid.obj
 0002:00026c34       _IID_IDirect3DRMTexture3   10075c34     dxguid:dxguid.obj
 0002:00026c44       _IID_IDirect3DRMTexture2   10075c44     dxguid:dxguid.obj
 0002:00026c54       _IID_IDirect3DRMTexture    10075c54     dxguid:dxguid.obj
 0002:00026c64       _IID_IDirect3DRMLight      10075c64     dxguid:dxguid.obj
 0002:00026c74       _IID_IDirect3DRMFace2      10075c74     dxguid:dxguid.obj
 0002:00026c84       _IID_IDirect3DRMFace       10075c84     dxguid:dxguid.obj
 0002:00026c94       _IID_IDirect3DRMMeshBuilder3 10075c94     dxguid:dxguid.obj
 0002:00026ca4       _IID_IDirect3DRMMeshBuilder2 10075ca4     dxguid:dxguid.obj
 0002:00026cb4       _IID_IDirect3DRMMeshBuilder 10075cb4     dxguid:dxguid.obj
 0002:00026cc4       _IID_IDirect3DRMMesh       10075cc4     dxguid:dxguid.obj
 0002:00026cd4       _IID_IDirect3DRMVisual     10075cd4     dxguid:dxguid.obj
 0002:00026ce4       _IID_IDirect3DRMFrame3     10075ce4     dxguid:dxguid.obj
 0002:00026cf4       _IID_IDirect3DRMFrame2     10075cf4     dxguid:dxguid.obj
 0002:00026d04       _IID_IDirect3DRMFrame      10075d04     dxguid:dxguid.obj
 0002:00026d14       _IID_IDirect3DRMViewport2  10075d14     dxguid:dxguid.obj
 0002:00026d24       _IID_IDirect3DRMViewport   10075d24     dxguid:dxguid.obj
 0002:00026d34       _IID_IDirect3DRMDevice3    10075d34     dxguid:dxguid.obj
 0002:00026d44       _IID_IDirect3DRMDevice2    10075d44     dxguid:dxguid.obj
 0002:00026d54       _IID_IDirect3DRMDevice     10075d54     dxguid:dxguid.obj
 0002:00026d64       _IID_IDirect3DRMObject2    10075d64     dxguid:dxguid.obj
 0002:00026d74       _IID_IDirect3DRMObject     10075d74     dxguid:dxguid.obj
 0002:00026d84       _CLSID_CDirect3DRMClippedVisual 10075d84     dxguid:dxguid.obj
 0002:00026d94       _CLSID_CDirect3DRMProgressiveMesh 10075d94     dxguid:dxguid.obj
 0002:00026da4       _CLSID_CDirect3DRMTextureInterpolator 10075da4     dxguid:dxguid.obj
 0002:00026db4       _CLSID_CDirect3DRMMaterialInterpolator 10075db4     dxguid:dxguid.obj
 0002:00026dc4       _CLSID_CDirect3DRMLightInterpolator 10075dc4     dxguid:dxguid.obj
 0002:00026dd4       _CLSID_CDirect3DRMMeshInterpolator 10075dd4     dxguid:dxguid.obj
 0002:00026de4       _CLSID_CDirect3DRMFrameInterpolator 10075de4     dxguid:dxguid.obj
 0002:00026df4       _CLSID_CDirect3DRMViewportInterpolator 10075df4     dxguid:dxguid.obj
 0002:00026e04       _CLSID_CDirect3DRMShadow   10075e04     dxguid:dxguid.obj
 0002:00026e14       _CLSID_CDirect3DRMUserVisual 10075e14     dxguid:dxguid.obj
 0002:00026e24       _CLSID_CDirect3DRMAnimationSet 10075e24     dxguid:dxguid.obj
 0002:00026e34       _CLSID_CDirect3DRMAnimation 10075e34     dxguid:dxguid.obj
 0002:00026e44       _CLSID_CDirect3DRMMaterial 10075e44     dxguid:dxguid.obj
 0002:00026e54       _CLSID_CDirect3DRMWrap     10075e54     dxguid:dxguid.obj
 0002:00026e64       _CLSID_CDirect3DRMTexture  10075e64     dxguid:dxguid.obj
 0002:00026e74       _CLSID_CDirect3DRMLight    10075e74     dxguid:dxguid.obj
 0002:00026e84       _CLSID_CDirect3DRMFace     10075e84     dxguid:dxguid.obj
 0002:00026e94       _CLSID_CDirect3DRMMeshBuilder 10075e94     dxguid:dxguid.obj
 0002:00026ea4       _CLSID_CDirect3DRMMesh     10075ea4     dxguid:dxguid.obj
 0002:00026eb4       _CLSID_CDirect3DRMFrame    10075eb4     dxguid:dxguid.obj
 0002:00026ec4       _CLSID_CDirect3DRMViewport 10075ec4     dxguid:dxguid.obj
 0002:00026ed4       _CLSID_CDirect3DRMDevice   10075ed4     dxguid:dxguid.obj
 0002:00026ee4       _IID_ID3DXBuffer           10075ee4     dxguid:dxguid.obj
 0002:00026ef4       _IID_ID3DXEffect           10075ef4     dxguid:dxguid.obj
 0002:00026f04       _IID_ID3DXTechnique        10075f04     dxguid:dxguid.obj
 0002:00026f14       _IID_ID3DXMatrixStack      10075f14     dxguid:dxguid.obj
 0002:00026f24       _IID_ID3DXSkinMesh         10075f24     dxguid:dxguid.obj
 0002:00026f34       _IID_ID3DXSPMesh           10075f34     dxguid:dxguid.obj
 0002:00026f44       _IID_ID3DXPMesh            10075f44     dxguid:dxguid.obj
 0002:00026f54       _IID_ID3DXMesh             10075f54     dxguid:dxguid.obj
 0002:00026f64       _IID_ID3DXBaseMesh         10075f64     dxguid:dxguid.obj
 0002:00026f74       _IID_IDirect3DSwapChain8   10075f74     dxguid:dxguid.obj
 0002:00026f84       _IID_IDirect3DVolume8      10075f84     dxguid:dxguid.obj
 0002:00026f94       _IID_IDirect3DSurface8     10075f94     dxguid:dxguid.obj
 0002:00026fa4       _IID_IDirect3DIndexBuffer8 10075fa4     dxguid:dxguid.obj
 0002:00026fb4       _IID_IDirect3DVertexBuffer8 10075fb4     dxguid:dxguid.obj
 0002:00026fc4       _IID_IDirect3DVolumeTexture8 10075fc4     dxguid:dxguid.obj
 0002:00026fd4       _IID_IDirect3DCubeTexture8 10075fd4     dxguid:dxguid.obj
 0002:00026fe4       _IID_IDirect3DTexture8     10075fe4     dxguid:dxguid.obj
 0002:00026ff4       _IID_IDirect3DBaseTexture8 10075ff4     dxguid:dxguid.obj
 0002:00027004       _IID_IDirect3DResource8    10076004     dxguid:dxguid.obj
 0002:00027014       _IID_IDirect3DDevice8      10076014     dxguid:dxguid.obj
 0002:00027024       _IID_IDirect3D8            10076024     dxguid:dxguid.obj
 0002:00027034       _IID_IDirect3DVertexBuffer7 10076034     dxguid:dxguid.obj
 0002:00027044       _IID_IDirect3DVertexBuffer 10076044     dxguid:dxguid.obj
 0002:00027054       _IID_IDirect3DViewport3    10076054     dxguid:dxguid.obj
 0002:00027064       _IID_IDirect3DViewport2    10076064     dxguid:dxguid.obj
 0002:00027074       _IID_IDirect3DViewport     10076074     dxguid:dxguid.obj
 0002:00027084       _IID_IDirect3DExecuteBuffer 10076084     dxguid:dxguid.obj
 0002:00027094       _IID_IDirect3DMaterial3    10076094     dxguid:dxguid.obj
 0002:000270a4       _IID_IDirect3DMaterial2    100760a4     dxguid:dxguid.obj
 0002:000270b4       _IID_IDirect3DMaterial     100760b4     dxguid:dxguid.obj
 0002:000270c4       _IID_IDirect3DLight        100760c4     dxguid:dxguid.obj
 0002:000270d4       _IID_IDirect3DTexture2     100760d4     dxguid:dxguid.obj
 0002:000270e4       _IID_IDirect3DTexture      100760e4     dxguid:dxguid.obj
 0002:000270f4       _IID_IDirect3DDevice7      100760f4     dxguid:dxguid.obj
 0002:00027104       _IID_IDirect3DDevice3      10076104     dxguid:dxguid.obj
 0002:00027114       _IID_IDirect3DDevice2      10076114     dxguid:dxguid.obj
 0002:00027124       _IID_IDirect3DDevice       10076124     dxguid:dxguid.obj
 0002:00027134       _IID_IDirect3DTnLHalDevice 10076134     dxguid:dxguid.obj
 0002:00027144       _IID_IDirect3DNullDevice   10076144     dxguid:dxguid.obj
 0002:00027154       _IID_IDirect3DRefDevice    10076154     dxguid:dxguid.obj
 0002:00027164       _IID_IDirect3DMMXDevice    10076164     dxguid:dxguid.obj
 0002:00027174       _IID_IDirect3DHALDevice    10076174     dxguid:dxguid.obj
 0002:00027184       _IID_IDirect3DRGBDevice    10076184     dxguid:dxguid.obj
 0002:00027194       _IID_IDirect3DRampDevice   10076194     dxguid:dxguid.obj
 0002:000271a4       _IID_IDirect3D7            100761a4     dxguid:dxguid.obj
 0002:000271b4       _IID_IDirect3D3            100761b4     dxguid:dxguid.obj
 0002:000271c4       _IID_IDirect3D2            100761c4     dxguid:dxguid.obj
 0002:000271d4       _IID_IDirect3D             100761d4     dxguid:dxguid.obj
 0002:000271e4       _DDVPTYPE_PHILIPS          100761e4     dxguid:dxguid.obj
 0002:000271f4       _DDVPTYPE_BROOKTREE        100761f4     dxguid:dxguid.obj
 0002:00027204       _DDVPTYPE_CCIR656          10076204     dxguid:dxguid.obj
 0002:00027214       _DDVPTYPE_E_HREFL_VREFL    10076214     dxguid:dxguid.obj
 0002:00027224       _DDVPTYPE_E_HREFL_VREFH    10076224     dxguid:dxguid.obj
 0002:00027234       _DDVPTYPE_E_HREFH_VREFL    10076234     dxguid:dxguid.obj
 0002:00027244       _DDVPTYPE_E_HREFH_VREFH    10076244     dxguid:dxguid.obj
 0002:00027254       _IID_IDirectDrawVideoPortNotify 10076254     dxguid:dxguid.obj
 0002:00027264       _IID_IDirectDrawVideoPort  10076264     dxguid:dxguid.obj
 0002:00027274       _IID_IDDVideoPortContainer 10076274     dxguid:dxguid.obj
 0002:00027284       _GUID_DDMoreCaps           10076284     dxguid:dxguid.obj
 0002:00027294       _GUID_Miscellaneous2Callbacks 10076294     dxguid:dxguid.obj
 0002:000272a4       _GUID_NTCallbacks          100762a4     dxguid:dxguid.obj
 0002:000272b4       _GUID_MotionCompCallbacks  100762b4     dxguid:dxguid.obj
 0002:000272c4       _GUID_D3DParseUnknownCommandCallback 100762c4     dxguid:dxguid.obj
 0002:000272d4       _GUID_UserModeDriverPassword 100762d4     dxguid:dxguid.obj
 0002:000272e4       _GUID_UserModeDriverInfo   100762e4     dxguid:dxguid.obj
 0002:000272f4       _GUID_OptSurfaceUmodeInfo  100762f4     dxguid:dxguid.obj
 0002:00027304       _GUID_OptSurfaceKmodeInfo  10076304     dxguid:dxguid.obj
 0002:00027314       _GUID_DDStereoMode         10076314     dxguid:dxguid.obj
 0002:00027324       _GUID_DDMoreSurfaceCaps    10076324     dxguid:dxguid.obj
 0002:00027334       _GUID_ZPixelFormats        10076334     dxguid:dxguid.obj
 0002:00027344       _GUID_D3DExtendedCaps      10076344     dxguid:dxguid.obj
 0002:00027354       _GUID_KernelCaps           10076354     dxguid:dxguid.obj
 0002:00027364       _GUID_KernelCallbacks      10076364     dxguid:dxguid.obj
 0002:00027374       _GUID_NonLocalVidMemCaps   10076374     dxguid:dxguid.obj
 0002:00027384       _GUID_D3DCallbacks3        10076384     dxguid:dxguid.obj
 0002:00027394       _GUID_D3DCallbacks2        10076394     dxguid:dxguid.obj
 0002:000273a4       _GUID_VideoPortCaps        100763a4     dxguid:dxguid.obj
 0002:000273b4       _GUID_ColorControlCallbacks 100763b4     dxguid:dxguid.obj
 0002:000273c4       _GUID_VideoPortCallbacks   100763c4     dxguid:dxguid.obj
 0002:000273d4       _GUID_MiscellaneousCallbacks 100763d4     dxguid:dxguid.obj
 0002:000273e4       _IID_IDirectDrawGammaControl 100763e4     dxguid:dxguid.obj
 0002:000273f4       _IID_IDirectDrawColorControl 100763f4     dxguid:dxguid.obj
 0002:00027404       _IID_IDirectDrawClipper    10076404     dxguid:dxguid.obj
 0002:00027414       _IID_IDirectDrawPalette    10076414     dxguid:dxguid.obj
 0002:00027424       _IID_IDirectDrawPalette2   10076424     dxguid:dxguid.obj
 0002:00027434       _IID_IDirectDrawOptSurface 10076434     dxguid:dxguid.obj
 0002:00027444       _GUID_DirectDrawPaletteStream 10076444     dxguid:dxguid.obj
 0002:00027454       _GUID_DirectDrawSurfaceStream 10076454     dxguid:dxguid.obj
 0002:00027464       _IID_IDirectDrawFactory2   10076464     dxguid:dxguid.obj
 0002:00027474       _CLSID_DirectDrawFactory2  10076474     dxguid:dxguid.obj
 0002:00027484       _IID_IDirectDrawSurfaceNew 10076484     dxguid:dxguid.obj
 0002:00027494       _IID_IDirectDrawSurface7   10076494     dxguid:dxguid.obj
 0002:000274a4       _IID_IDirectDrawSurface4   100764a4     dxguid:dxguid.obj
 0002:000274b4       _IID_IDirectDrawSurface3   100764b4     dxguid:dxguid.obj
 0002:000274c4       _IID_IDirectDrawSurface2   100764c4     dxguid:dxguid.obj
 0002:000274d4       _IID_IDirectDrawSurface    100764d4     dxguid:dxguid.obj
 0002:000274e4       _IID_IDirectDraw7          100764e4     dxguid:dxguid.obj
 0002:000274f4       _IID_IDirectDraw4          100764f4     dxguid:dxguid.obj
 0002:00027504       _IID_IDirectDraw2          10076504     dxguid:dxguid.obj
 0002:00027514       _IID_IDirectDraw           10076514     dxguid:dxguid.obj
 0002:00027524       _CLSID_DirectDrawClipper   10076524     dxguid:dxguid.obj
 0002:00027534       _CLSID_DirectDraw7         10076534     dxguid:dxguid.obj
 0002:00027544       _CLSID_DirectDraw          10076544     dxguid:dxguid.obj
 0002:00027558       _GUID_NULL                 10076558     uuid:cguid_i_guid0.obj
 0002:00027568       ??_C@_0L@OFGA@dbgdel?4cpp?$AA@ 10076568     LIBCMTD:dbgdel.obj
 0002:00027574       ??_C@_0CH@PHOC@_BLOCK_TYPE_IS_VALID?$CIpHead?9?$DOnBlo@ 10076574     LIBCMTD:dbgdel.obj
 0002:0002759c       ??_C@_0O@FHMD@i386?2chkesp?4c?$AA@ 1007659c     LIBCMTD:chkesp.obj
 0002:000275ac       ??_C@_00A@?$AA@            100765ac     LIBCMTD:chkesp.obj
 0002:000275b0       ??_C@_0NM@ELEE@The?5value?5of?5ESP?5was?5not?5properl@ 100765b0     LIBCMTD:chkesp.obj
 0002:0002768c       ??_C@_0P@LNLA@format?5?$CB?$DN?5NULL?$AA@ 1007668c     LIBCMTD:sprintf.obj
 0002:0002769c       ??_C@_09NEAG@sprintf?4c?$AA@ 1007669c     LIBCMTD:sprintf.obj
 0002:000276a8       ??_C@_0P@OOIN@string?5?$CB?$DN?5NULL?$AA@ 100766a8     LIBCMTD:sprintf.obj
 0002:000276b8       ??_C@_0L@HE@vsprintf?4c?$AA@ 100766b8     LIBCMTD:vsnprint.obj
 0002:000276c4       ??_C@_08EJDA@sscanf?4c?$AA@ 100766c4     LIBCMTD:sscanf.obj
 0002:000276d0       ??_C@_0L@LJJP@swprintf?4c?$AA@ 100766d0     LIBCMTD:swprintf.obj
 0002:000276dc       ??_C@_07PDLA@mlock?4c?$AA@ 100766dc     LIBCMTD:mlock.obj
 0002:000276e4       ??_C@_06DPMO@Client?$AA@   100766e4     LIBCMTD:dbgheap.obj
 0002:000276ec       ??_C@_06BAFM@Ignore?$AA@   100766ec     LIBCMTD:dbgheap.obj
 0002:000276f4       ??_C@_03DICE@CRT?$AA@      100766f4     LIBCMTD:dbgheap.obj
 0002:000276f8       ??_C@_06BILL@Normal?$AA@   100766f8     LIBCMTD:dbgheap.obj
 0002:00027700       ??_C@_04NEN@Free?$AA@      10076700     LIBCMTD:dbgheap.obj
 0002:00027714       ??_C@_0DC@CGID@Error?3?5memory?5allocation?3?5bad?5me@ 10076714     LIBCMTD:dbgheap.obj
 0002:00027748       ??_C@_0CE@FMIA@Invalid?5allocation?5size?3?5?$CFu?5byte@ 10076748     LIBCMTD:dbgheap.obj
 0002:0002776c       ??_C@_02DILL@?$CFs?$AA@    1007676c     LIBCMTD:dbgheap.obj
 0002:00027770       ??_C@_0CB@CPBI@Client?5hook?5allocation?5failure?4?6@ 10076770     LIBCMTD:dbgheap.obj
 0002:00027794       ??_C@_0DF@DKHF@Client?5hook?5allocation?5failure?5a@ 10076794     LIBCMTD:dbgheap.obj
 0002:000277cc       ??_C@_09IMJC@dbgheap?4c?$AA@ 100767cc     LIBCMTD:dbgheap.obj
 0002:000277d8       ??_C@_0BC@EPKL@_CrtCheckMemory?$CI?$CJ?$AA@ 100767d8     LIBCMTD:dbgheap.obj
 0002:000277fc       ??_C@_0BK@JDHA@_pFirstBlock?5?$DN?$DN?5pOldBlock?$AA@ 100767fc     LIBCMTD:dbgheap.obj
 0002:00027818       ??_C@_0BJ@NMEF@_pLastBlock?5?$DN?$DN?5pOldBlock?$AA@ 10076818     LIBCMTD:dbgheap.obj
 0002:00027834       ??_C@_0DC@BOCN@fRealloc?5?$HM?$HM?5?$CI?$CBfRealloc?5?$CG?$CG?5pNewBl@ 10076834     LIBCMTD:dbgheap.obj
 0002:00027868       ??_C@_0DK@DKOM@_BLOCK_TYPE?$CIpOldBlock?9?$DOnBlockUse@ 10076868     LIBCMTD:dbgheap.obj
 0002:000278a4       ??_C@_0EF@EDKM@pOldBlock?9?$DOnLine?5?$DN?$DN?5IGNORE_LINE?5@ 100768a4     LIBCMTD:dbgheap.obj
 0002:000278ec       ??_C@_0CC@GPMO@_CrtIsValidHeapPointer?$CIpUserData@ 100768ec     LIBCMTD:dbgheap.obj
 0002:00027910       ??_C@_0CN@FHGE@Allocation?5too?5large?5or?5negative@ 10076910     LIBCMTD:dbgheap.obj
 0002:00027940       ??_C@_0CE@EAMN@Client?5hook?5re?9allocation?5failur@ 10076940     LIBCMTD:dbgheap.obj
 0002:00027964       ??_C@_0DI@KKMM@Client?5hook?5re?9allocation?5failur@ 10076964     LIBCMTD:dbgheap.obj
 0002:000279bc       ??_C@_0BG@JCEC@_pFirstBlock?5?$DN?$DN?5pHead?$AA@ 100769bc     LIBCMTD:dbgheap.obj
 0002:000279d4       ??_C@_0BF@NLNN@_pLastBlock?5?$DN?$DN?5pHead?$AA@ 100769d4     LIBCMTD:dbgheap.obj
 0002:000279ec       ??_C@_0BO@PLHH@pHead?9?$DOnBlockUse?5?$DN?$DN?5nBlockUse?$AA@ 100769ec     LIBCMTD:dbgheap.obj
 0002:00027a0c       ??_C@_0DN@KKIO@pHead?9?$DOnLine?5?$DN?$DN?5IGNORE_LINE?5?$CG?$CG?5p@ 10076a0c     LIBCMTD:dbgheap.obj
 0002:00027a4c       ??_C@_0CK@OJNB@DAMAGE?3?5after?5?$CFhs?5block?5?$CI?$CD?$CFd?$CJ?5at@ 10076a4c     LIBCMTD:dbgheap.obj
 0002:00027a78       ??_C@_0CL@IJIL@DAMAGE?3?5before?5?$CFhs?5block?5?$CI?$CD?$CFd?$CJ?5a@ 10076a78     LIBCMTD:dbgheap.obj
 0002:00027aa4       ??_C@_0BL@MBNA@Client?5hook?5free?5failure?4?6?$AA@ 10076aa4     LIBCMTD:dbgheap.obj
 0002:00027adc       ??_C@_0DK@EKKL@memory?5check?5error?5at?50x?$CF08X?5?$DN?50@ 10076adc     LIBCMTD:dbgheap.obj
 0002:00027b18       ??_C@_0CJ@GCII@?$CFhs?5located?5at?50x?$CF08X?5is?5?$CFu?5byte@ 10076b18     LIBCMTD:dbgheap.obj
 0002:00027b44       ??_C@_0CA@EJPI@?$CFhs?5allocated?5at?5file?5?$CFhs?$CI?$CFd?$CJ?4?6?$AA@ 10076b44     LIBCMTD:dbgheap.obj
 0002:00027b64       ??_C@_0CJ@LHHG@DAMAGE?3?5on?5top?5of?5Free?5block?5at?5@ 10076b64     LIBCMTD:dbgheap.obj
 0002:00027b90       ??_C@_07GJHM@DAMAGED?$AA@  10076b90     LIBCMTD:dbgheap.obj
 0002:00027b98       ??_C@_0CL@ODIE@_heapchk?5fails?5with?5unknown?5retu@ 10076b98     LIBCMTD:dbgheap.obj
 0002:00027bc4       ??_C@_0CC@EHNC@_heapchk?5fails?5with?5_HEAPBADPTR?4@ 10076bc4     LIBCMTD:dbgheap.obj
 0002:00027be8       ??_C@_0CC@JNDP@_heapchk?5fails?5with?5_HEAPBADEND?4@ 10076be8     LIBCMTD:dbgheap.obj
 0002:00027c0c       ??_C@_0CD@DNMG@_heapchk?5fails?5with?5_HEAPBADNODE@ 10076c0c     LIBCMTD:dbgheap.obj
 0002:00027c30       ??_C@_0CE@JMCB@_heapchk?5fails?5with?5_HEAPBADBEGI@ 10076c30     LIBCMTD:dbgheap.obj
 0002:00027c84       ??_C@_0CD@MEMI@Bad?5memory?5block?5found?5at?50x?$CF08X@ 10076c84     LIBCMTD:dbgheap.obj
 0002:00027ca8       ??_C@_0CI@GMAO@_CrtMemCheckPoint?3?5NULL?5state?5po@ 10076ca8     LIBCMTD:dbgheap.obj
 0002:00027cdc       ??_C@_0CI@MNAE@_CrtMemDifference?3?5NULL?5state?5po@ 10076cdc     LIBCMTD:dbgheap.obj
 0002:00027d04       ??_C@_0BH@PKIJ@Object?5dump?5complete?4?6?$AA@ 10076d04     LIBCMTD:dbgheap.obj
 0002:00027d1c       ??_C@_0DB@DBPF@crt?5block?5at?50x?$CF08X?0?5subtype?5?$CFx?0@ 10076d1c     LIBCMTD:dbgheap.obj
 0002:00027d50       ??_C@_0CI@JLM@normal?5block?5at?50x?$CF08X?0?5?$CFu?5bytes@ 10076d50     LIBCMTD:dbgheap.obj
 0002:00027d78       ??_C@_0DE@PFEA@client?5block?5at?50x?$CF08X?0?5subtype?5@ 10076d78     LIBCMTD:dbgheap.obj
 0002:00027dac       ??_C@_06MBCE@?$HL?$CFld?$HN?5?$AA@ 10076dac     LIBCMTD:dbgheap.obj
 0002:00027db4       ??_C@_0L@BLDJ@?$CFhs?$CI?$CFd?$CJ?5?3?5?$AA@ 10076db4     LIBCMTD:dbgheap.obj
 0002:00027dc0       ??_C@_0BE@FEMA@?$CDFile?5Error?$CD?$CI?$CFd?$CJ?5?3?5?$AA@ 10076dc0     LIBCMTD:dbgheap.obj
 0002:00027dd4       ??_C@_0BE@FPPM@Dumping?5objects?5?9?$DO?6?$AA@ 10076dd4     LIBCMTD:dbgheap.obj
 0002:00027df4       ??_C@_0BA@POLM@?5Data?3?5?$DM?$CFs?$DO?5?$CFs?6?$AA@ 10076df4     LIBCMTD:dbgheap.obj
 0002:00027e04       ??_C@_05JLAO@?$CF?42X?5?$AA@ 10076e04     LIBCMTD:dbgheap.obj
 0002:00027e0c       ??_C@_0BI@KONA@Detected?5memory?5leaks?$CB?6?$AA@ 10076e0c     LIBCMTD:dbgheap.obj
 0002:00027e24       ??_C@_0BP@LCCN@Total?5allocations?3?5?$CFld?5bytes?4?6?$AA@ 10076e24     LIBCMTD:dbgheap.obj
 0002:00027e44       ??_C@_0CB@COID@Largest?5number?5used?3?5?$CFld?5bytes?4?6@ 10076e44     LIBCMTD:dbgheap.obj
 0002:00027e68       ??_C@_0BO@MEJD@?$CFld?5bytes?5in?5?$CFld?5?$CFhs?5Blocks?4?6?$AA@ 10076e68     LIBCMTD:dbgheap.obj
 0002:00027e88       ??_C@_0BB@BLL@Assertion?5Failed?$AA@ 10076e88     LIBCMTD:dbgrpt.obj
 0002:00027e9c       ??_C@_05CKBG@Error?$AA@    10076e9c     LIBCMTD:dbgrpt.obj
 0002:00027ea4       ??_C@_07JCGI@Warning?$AA@  10076ea4     LIBCMTD:dbgrpt.obj
 0002:00027eac       ??_C@_0M@ODEP@?$CFs?$CI?$CFd?$CJ?5?3?5?$CFs?$AA@ 10076eac     LIBCMTD:dbgrpt.obj
 0002:00027eb8       ??_C@_01FEHD@?$AN?$AA@     10076eb8     LIBCMTD:dbgrpt.obj
 0002:00027ebc       ??_C@_0BC@OIMC@Assertion?5failed?$CB?$AA@ 10076ebc     LIBCMTD:dbgrpt.obj
 0002:00027ed0       ??_C@_0BD@BEAK@Assertion?5failed?3?5?$AA@ 10076ed0     LIBCMTD:dbgrpt.obj
 0002:00027ee4       ??_C@_0CL@LCCP@_CrtDbgReport?3?5String?5too?5long?5o@ 10076ee4     LIBCMTD:dbgrpt.obj
 0002:00027f10       ??_C@_0DC@EMDK@Second?5Chance?5Assertion?5Failed?3?5@ 10076f10     LIBCMTD:dbgrpt.obj
 0002:00027f44       ??_C@_09NJAK@wsprintfA?$AA@ 10076f44     LIBCMTD:dbgrpt.obj
 0002:00027f50       ??_C@_0L@HKL@user32?4dll?$AA@ 10076f50     LIBCMTD:dbgrpt.obj
 0002:00027f5c       ??_C@_0CD@GCMD@Microsoft?5Visual?5C?$CL?$CL?5Debug?5Libra@ 10076f5c     LIBCMTD:dbgrpt.obj
 0002:00027f80       ??_C@_0FD@EBDD@Debug?5?$CFs?$CB?6?6Program?3?5?$CFs?$CFs?$CFs?$CFs?$CFs?$CFs@ 10076f80     LIBCMTD:dbgrpt.obj
 0002:00027fd4       ??_C@_09DCKN@?6Module?3?5?$AA@ 10076fd4     LIBCMTD:dbgrpt.obj
 0002:00027fe0       ??_C@_07HJII@?6File?3?5?$AA@ 10076fe0     LIBCMTD:dbgrpt.obj
 0002:00027fe8       ??_C@_07LFGN@?6Line?3?5?$AA@ 10076fe8     LIBCMTD:dbgrpt.obj
 0002:00027ff0       ??_C@_02JJJH@?6?6?$AA@     10076ff0     LIBCMTD:dbgrpt.obj
 0002:00027ff4       ??_C@_0N@NOAB@Expression?3?5?$AA@ 10076ff4     LIBCMTD:dbgrpt.obj
 0002:00028004       ??_C@_0HD@BHFH@?6?6For?5information?5on?5how?5your?5pr@ 10077004     LIBCMTD:dbgrpt.obj
 0002:00028078       ??_C@_03NAME@?4?4?4?$AA@   10077078     LIBCMTD:dbgrpt.obj
 0002:0002807c       ??_C@_0BH@NNCD@?$DMprogram?5name?5unknown?$DO?$AA@ 1007707c     LIBCMTD:dbgrpt.obj
 0002:00028094       ??_C@_08GFHP@dbgrpt?4c?$AA@ 10077094     LIBCMTD:dbgrpt.obj
 0002:000280a0       ??_C@_0BG@FBEA@szUserMessage?5?$CB?$DN?5NULL?$AA@ 100770a0     LIBCMTD:dbgrpt.obj
 0002:000280fc       ??_C@_0L@ENLJ@tidtable?4c?$AA@ 100770fc     LIBCMTD:tidtable.obj
 0002:00028138       ??_C@_0DP@IHIN@?$CI?$CCinconsistent?5IOB?5fields?$CC?0?5stre@ 10077138     LIBCMTD:_flsbuf.obj
 0002:00028178       ??_C@_09LGEI@_flsbuf?4c?$AA@ 10077178     LIBCMTD:_flsbuf.obj
 0002:00028184       ??_C@_0M@KJPK@str?5?$CB?$DN?5NULL?$AA@ 10077184     LIBCMTD:_flsbuf.obj
 0002:00028190       ___lookuptable             10077190     LIBCMTD:output.obj
 0002:000281ec       ??_C@_1O@POHA@?$AA?$CI?$AAn?$AAu?$AAl?$AAl?$AA?$CJ?$AA?$AA@ 100771ec     LIBCMTD:output.obj
 0002:000281fc       ??_C@_06ONKE@?$CInull?$CJ?$AA@ 100771fc     LIBCMTD:output.obj
 0002:00028204       ??_C@_08MIHI@output?4c?$AA@ 10077204     LIBCMTD:output.obj
 0002:00028210       ??_C@_0P@PIHB@ch?5?$CB?$DN?5_T?$CI?8?20?8?$CJ?$AA@ 10077210     LIBCMTD:output.obj
 0002:00028220       __real@8@3fff8000000000000000 10077220     LIBCMTD:testfdiv.obj
 0002:00028228       ??_C@_0BK@JEGK@IsProcessorFeaturePresent?$AA@ 10077228     LIBCMTD:testfdiv.obj
 0002:00028244       ??_C@_08OBID@KERNEL32?$AA@ 10077244     LIBCMTD:testfdiv.obj
 0002:00028250       ??_C@_05OFLO@e?$CL000?$AA@ 10077250     LIBCMTD:cvt.obj
 0002:00028258       ??_C@_0P@FHEA@stream?5?$CB?$DN?5NULL?$AA@ 10077258     LIBCMTD:input.obj
 0002:00028268       ??_C@_07IEFA@input?4c?$AA@ 10077268     LIBCMTD:input.obj
 0002:00028270       ??_C@_08KFDJ@ioinit?4c?$AA@ 10077270     LIBCMTD:ioinit.obj
 0002:0002827c       ??_C@_09IGKD@stdenvp?4c?$AA@ 1007727c     LIBCMTD:stdenvp.obj
 0002:00028288       ??_C@_09MPMN@stdargv?4c?$AA@ 10077288     LIBCMTD:stdargv.obj
 0002:00028294       ??_C@_07BNNE@a_env?4c?$AA@ 10077294     LIBCMTD:a_env.obj
 0002:0002829c       ??_C@_0BH@PHHF@__GLOBAL_HEAP_SELECTED?$AA@ 1007729c     LIBCMTD:heapinit.obj
 0002:000282b4       ??_C@_0BF@BBGL@__MSVCRT_HEAP_SELECT?$AA@ 100772b4     LIBCMTD:heapinit.obj
 0002:000282cc       ??_C@_0P@GGKG@runtime?5error?5?$AA@ 100772cc     LIBCMTD:crt0msg.obj
 0002:000282dc       ??_C@_02PIMC@?$AN?6?$AA@   100772dc     LIBCMTD:crt0msg.obj
 0002:000282e0       ??_C@_0O@DELO@TLOSS?5error?$AN?6?$AA@ 100772e0     LIBCMTD:crt0msg.obj
 0002:000282f0       ??_C@_0N@OMLL@SING?5error?$AN?6?$AA@ 100772f0     LIBCMTD:crt0msg.obj
 0002:00028300       ??_C@_0P@OJAK@DOMAIN?5error?$AN?6?$AA@ 10077300     LIBCMTD:crt0msg.obj
 0002:00028310       ??_C@_0CF@EANP@R6028?$AN?6?9?5unable?5to?5initialize?5he@ 10077310     LIBCMTD:crt0msg.obj
 0002:00028338       ??_C@_0DF@ECGN@R6027?$AN?6?9?5not?5enough?5space?5for?5lo@ 10077338     LIBCMTD:crt0msg.obj
 0002:00028370       ??_C@_0DF@FKAC@R6026?$AN?6?9?5not?5enough?5space?5for?5st@ 10077370     LIBCMTD:crt0msg.obj
 0002:000283a8       ??_C@_0CG@DPMN@R6025?$AN?6?9?5pure?5virtual?5function?5c@ 100773a8     LIBCMTD:crt0msg.obj
 0002:000283d0       ??_C@_0DF@CKIP@R6024?$AN?6?9?5not?5enough?5space?5for?5_o@ 100773d0     LIBCMTD:crt0msg.obj
 0002:00028408       ??_C@_0CJ@GGOE@R6019?$AN?6?9?5unable?5to?5open?5console?5@ 10077408     LIBCMTD:crt0msg.obj
 0002:00028434       ??_C@_0CB@LBOB@R6018?$AN?6?9?5unexpected?5heap?5error?$AN?6@ 10077434     LIBCMTD:crt0msg.obj
 0002:00028458       ??_C@_0CN@FPEG@R6017?$AN?6?9?5unexpected?5multithread?5@ 10077458     LIBCMTD:crt0msg.obj
 0002:00028488       ??_C@_0CM@OBIC@R6016?$AN?6?9?5not?5enough?5space?5for?5th@ 10077488     LIBCMTD:crt0msg.obj
 0002:000284b4       ??_C@_0CB@HPAL@?$AN?6abnormal?5program?5termination?$AN?6@ 100774b4     LIBCMTD:crt0msg.obj
 0002:000284d8       ??_C@_0CM@JOOB@R6009?$AN?6?9?5not?5enough?5space?5for?5en@ 100774d8     LIBCMTD:crt0msg.obj
 0002:00028504       ??_C@_0CK@OIBL@R6008?$AN?6?9?5not?5enough?5space?5for?5ar@ 10077504     LIBCMTD:crt0msg.obj
 0002:00028530       ??_C@_0CF@LKPB@R6002?$AN?6?9?5floating?5point?5not?5load@ 10077530     LIBCMTD:crt0msg.obj
 0002:00028558       ??_C@_0CF@JPDF@Microsoft?5Visual?5C?$CL?$CL?5Runtime?5Lib@ 10077558     LIBCMTD:crt0msg.obj
 0002:00028580       ??_C@_0BK@DEOK@Runtime?5Error?$CB?6?6Program?3?5?$AA@ 10077580     LIBCMTD:crt0msg.obj
 0002:00028618       ??_C@_08CNMA@winsig?4c?$AA@ 10077618     LIBCMTD:winsig.obj
 0002:00028624       ??_C@_0BD@NJFP@GetLastActivePopup?$AA@ 10077624     LIBCMTD:crtmbox.obj
 0002:00028638       ??_C@_0BA@GILI@GetActiveWindow?$AA@ 10077638     LIBCMTD:crtmbox.obj
 0002:00028648       ??_C@_0M@PKCK@MessageBoxA?$AA@ 10077648     LIBCMTD:crtmbox.obj
 0002:00028654       ??_C@_09EMDO@_getbuf?4c?$AA@ 10077654     LIBCMTD:_getbuf.obj
 0002:00028660       ??_C@_07HPAH@_file?4c?$AA@ 10077660     LIBCMTD:_file.obj
 0002:00028668       ??_C@_08MOLN@mbtowc?4c?$AA@ 10077668     LIBCMTD:mbtowc.obj
 0002:00028674       ??_C@_0CD@NPPL@MB_CUR_MAX?5?$DN?$DN?51?5?$HM?$HM?5MB_CUR_MAX?5?$DN?$DN@ 10077674     LIBCMTD:mbtowc.obj
 0002:00028698       ??_C@_09DNOI@_filbuf?4c?$AA@ 10077698     LIBCMTD:_filbuf.obj
 0002:000286a4       ??_C@_08JKP@ungetc?4c?$AA@ 100776a4     LIBCMTD:ungetc.obj
 0002:000286b0       ??_C@_08JFHL@fputwc?4c?$AA@ 100776b0     LIBCMTD:fputwc.obj
 0002:000286bc       ??_C@_01A@?$AA?$AA@        100776bc     LIBCMTD:a_str.obj
 0002:000286c0       ??_C@_13A@?$AA?$AA?$AA?$AA@ 100776c0     LIBCMTD:a_str.obj
 0002:000286d4       ??_C@_09LNLM@osfinfo?4c?$AA@ 100776d4     LIBCMTD:osfinfo.obj
 0002:000286e0       ??_C@_07PCLE@LC_TIME?$AA@  100776e0     LIBCMTD:setlocal.obj
 0002:000286e8       ??_C@_0L@NKG@LC_NUMERIC?$AA@ 100776e8     LIBCMTD:setlocal.obj
 0002:000286f4       ??_C@_0M@CBIH@LC_MONETARY?$AA@ 100776f4     LIBCMTD:setlocal.obj
 0002:00028700       ??_C@_08LFGE@LC_CTYPE?$AA@ 10077700     LIBCMTD:setlocal.obj
 0002:0002870c       ??_C@_0L@CFLC@LC_COLLATE?$AA@ 1007770c     LIBCMTD:setlocal.obj
 0002:00028718       ??_C@_06GCPK@LC_ALL?$AA@   10077718     LIBCMTD:setlocal.obj
 0002:00028720       ??_C@_01FAJB@?$DL?$AA@     10077720     LIBCMTD:setlocal.obj
 0002:00028724       ??_C@_02BGDO@?$DN?$DL?$AA@ 10077724     LIBCMTD:setlocal.obj
 0002:00028728       ??_C@_0L@MOEE@setlocal?4c?$AA@ 10077728     LIBCMTD:setlocal.obj
 0002:00028734       ??_C@_01KPOD@?$DN?$AA@     10077734     LIBCMTD:setlocal.obj
 0002:00028738       ??_C@_03DBOJ@_?4?0?$AA@    10077738     LIBCMTD:setlocal.obj
 0002:0002873c       ??_C@_01PJCK@?4?$AA@       1007773c     LIBCMTD:setlocal.obj
 0002:00028740       ??_C@_01NON@_?$AA@         10077740     LIBCMTD:setlocal.obj
 0002:00028760       ??_C@_06PAPI@1?$CDQNAN?$AA@ 10077760     LIBCMTD:x10fout.obj
 0002:00028768       ??_C@_05BGNL@1?$CDINF?$AA@ 10077768     LIBCMTD:x10fout.obj
 0002:00028770       ??_C@_05EDPF@1?$CDIND?$AA@ 10077770     LIBCMTD:x10fout.obj
 0002:00028778       ??_C@_06LKFM@1?$CDSNAN?$AA@ 10077778     LIBCMTD:x10fout.obj
 0002:00028780       ??_C@_08PHBD@fclose?4c?$AA@ 10077780     LIBCMTD:fclose.obj
 0002:0002878c       ??_C@_0L@EEGJ@inittime?4c?$AA@ 1007778c     LIBCMTD:inittime.obj
 0002:00028798       ??_C@_09IMJJ@initnum?4c?$AA@ 10077798     LIBCMTD:initnum.obj
 0002:000287a4       ??_C@_09KPNI@initmon?4c?$AA@ 100777a4     LIBCMTD:initmon.obj
 0002:000287b0       ??_C@_0L@COIL@initctyp?4c?$AA@ 100777b0     LIBCMTD:initctyp.obj
 0002:000287bc       ??_C@_08OBJD@Paraguay?$AA@ 100777bc     LIBCMTD:getqloc.obj
 0002:000287c8       ??_C@_07GLKH@Uruguay?$AA@  100777c8     LIBCMTD:getqloc.obj
 0002:000287d0       ??_C@_05FPFC@Chile?$AA@    100777d0     LIBCMTD:getqloc.obj
 0002:000287d8       ??_C@_07IIGF@Ecuador?$AA@  100777d8     LIBCMTD:getqloc.obj
 0002:000287e0       ??_C@_09PKAL@Argentina?$AA@ 100777e0     LIBCMTD:getqloc.obj
 0002:000287ec       ??_C@_04LKAH@Peru?$AA@     100777ec     LIBCMTD:getqloc.obj
 0002:000287f4       ??_C@_08NEEM@Colombia?$AA@ 100777f4     LIBCMTD:getqloc.obj
 0002:00028800       ??_C@_09ODEB@Venezuela?$AA@ 10077800     LIBCMTD:getqloc.obj
 0002:0002880c       ??_C@_0BD@CLEL@Dominican?5Republic?$AA@ 1007780c     LIBCMTD:getqloc.obj
 0002:00028820       ??_C@_0N@MDGL@South?5Africa?$AA@ 10077820     LIBCMTD:getqloc.obj
 0002:00028830       ??_C@_06NKBG@Panama?$AA@   10077830     LIBCMTD:getqloc.obj
 0002:00028838       ??_C@_0L@BMHO@Luxembourg?$AA@ 10077838     LIBCMTD:getqloc.obj
 0002:00028844       ??_C@_0L@IMDK@Costa?5Rica?$AA@ 10077844     LIBCMTD:getqloc.obj
 0002:00028850       ??_C@_0M@BLJF@Switzerland?$AA@ 10077850     LIBCMTD:getqloc.obj
 0002:0002885c       ??_C@_09KBOL@Guatemala?$AA@ 1007785c     LIBCMTD:getqloc.obj
 0002:00028868       ??_C@_06JNAK@Canada?$AA@   10077868     LIBCMTD:getqloc.obj
 0002:00028870       ??_C@_0BG@OLLP@Spanish?5?9?5Modern?5Sort?$AA@ 10077870     LIBCMTD:getqloc.obj
 0002:00028888       ??_C@_09IDKE@Australia?$AA@ 10077888     LIBCMTD:getqloc.obj
 0002:00028894       ??_C@_07JJJJ@English?$AA@  10077894     LIBCMTD:getqloc.obj
 0002:0002889c       ??_C@_07NMDO@Austria?$AA@  1007789c     LIBCMTD:getqloc.obj
 0002:000288a4       ??_C@_06DEFE@German?$AA@   100778a4     LIBCMTD:getqloc.obj
 0002:000288ac       ??_C@_07JAIH@Belgium?$AA@  100778ac     LIBCMTD:getqloc.obj
 0002:000288b4       ??_C@_06BNLJ@Mexico?$AA@   100778b4     LIBCMTD:getqloc.obj
 0002:000288bc       ??_C@_07JHAG@Spanish?$AA@  100778bc     LIBCMTD:getqloc.obj
 0002:000288c4       ??_C@_06DADE@Basque?$AA@   100778c4     LIBCMTD:getqloc.obj
 0002:000288cc       ??_C@_06ENFP@Sweden?$AA@   100778cc     LIBCMTD:getqloc.obj
 0002:000288d4       ??_C@_07JPMH@Swedish?$AA@  100778d4     LIBCMTD:getqloc.obj
 0002:000288dc       ??_C@_07IEKF@Iceland?$AA@  100778dc     LIBCMTD:getqloc.obj
 0002:000288e4       ??_C@_09KNEA@Icelandic?$AA@ 100778e4     LIBCMTD:getqloc.obj
 0002:000288f0       ??_C@_06IJOD@France?$AA@   100778f0     LIBCMTD:getqloc.obj
 0002:000288f8       ??_C@_06EINI@French?$AA@   100778f8     LIBCMTD:getqloc.obj
 0002:00028900       ??_C@_07FOOE@Finland?$AA@  10077900     LIBCMTD:getqloc.obj
 0002:00028908       ??_C@_07OJOM@Finnish?$AA@  10077908     LIBCMTD:getqloc.obj
 0002:00028910       ??_C@_05FFAC@Spain?$AA@    10077910     LIBCMTD:getqloc.obj
 0002:00028918       ??_C@_0BL@BIHM@Spanish?5?9?5Traditional?5Sort?$AA@ 10077918     LIBCMTD:getqloc.obj
 0002:00028934       ??_C@_0O@GLHB@united?9states?$AA@ 10077934     LIBCMTD:getqloc.obj
 0002:00028944       ??_C@_0P@IIKK@united?9kingdom?$AA@ 10077944     LIBCMTD:getqloc.obj
 0002:00028954       ??_C@_0BC@FHBO@trinidad?5?$CG?5tobago?$AA@ 10077954     LIBCMTD:getqloc.obj
 0002:00028968       ??_C@_0M@BDFM@south?9korea?$AA@ 10077968     LIBCMTD:getqloc.obj
 0002:00028974       ??_C@_0N@CKFA@south?9africa?$AA@ 10077974     LIBCMTD:getqloc.obj
 0002:00028984       ??_C@_0M@HNHN@south?5korea?$AA@ 10077984     LIBCMTD:getqloc.obj
 0002:00028990       ??_C@_0N@MKDO@south?5africa?$AA@ 10077990     LIBCMTD:getqloc.obj
 0002:000289a0       ??_C@_06KFFJ@slovak?$AA@   100779a0     LIBCMTD:getqloc.obj
 0002:000289a8       ??_C@_0M@NMAC@puerto?9rico?$AA@ 100779a8     LIBCMTD:getqloc.obj
 0002:000289b4       ??_C@_08EJOH@pr?9china?$AA@ 100779b4     LIBCMTD:getqloc.obj
 0002:000289c0       ??_C@_08CHMG@pr?5china?$AA@ 100779c0     LIBCMTD:getqloc.obj
 0002:000289cc       ??_C@_02OCJK@nz?$AA@       100779cc     LIBCMTD:getqloc.obj
 0002:000289d0       ??_C@_0M@MMKA@new?9zealand?$AA@ 100779d0     LIBCMTD:getqloc.obj
 0002:000289dc       ??_C@_09MGEH@hong?9kong?$AA@ 100779dc     LIBCMTD:getqloc.obj
 0002:000289e8       ??_C@_07CCAK@holland?$AA@  100779e8     LIBCMTD:getqloc.obj
 0002:000289f0       ??_C@_0O@MEPL@great?5britain?$AA@ 100779f0     LIBCMTD:getqloc.obj
 0002:00028a00       ??_C@_07LGIB@england?$AA@  10077a00     LIBCMTD:getqloc.obj
 0002:00028a08       ??_C@_05BMOA@czech?$AA@    10077a08     LIBCMTD:getqloc.obj
 0002:00028a10       ??_C@_05NMPB@china?$AA@    10077a10     LIBCMTD:getqloc.obj
 0002:00028a18       ??_C@_07GN@britain?$AA@    10077a18     LIBCMTD:getqloc.obj
 0002:00028a20       ??_C@_07DLAK@america?$AA@  10077a20     LIBCMTD:getqloc.obj
 0002:00028a28       ??_C@_03IPEP@usa?$AA@      10077a28     LIBCMTD:getqloc.obj
 0002:00028a2c       ??_C@_02PILH@us?$AA@       10077a2c     LIBCMTD:getqloc.obj
 0002:00028a30       ??_C@_02FHP@uk?$AA@        10077a30     LIBCMTD:getqloc.obj
 0002:00028a34       ??_C@_05DEAI@swiss?$AA@    10077a34     LIBCMTD:getqloc.obj
 0002:00028a3c       ??_C@_0BA@LIAF@swedish?9finland?$AA@ 10077a3c     LIBCMTD:getqloc.obj
 0002:00028a4c       ??_C@_0BC@FMEG@spanish?9venezuela?$AA@ 10077a4c     LIBCMTD:getqloc.obj
 0002:00028a60       ??_C@_0BA@BNMG@spanish?9uruguay?$AA@ 10077a60     LIBCMTD:getqloc.obj
 0002:00028a70       ??_C@_0BE@BKDJ@spanish?9puerto?5rico?$AA@ 10077a70     LIBCMTD:getqloc.obj
 0002:00028a84       ??_C@_0N@JIBL@spanish?9peru?$AA@ 10077a84     LIBCMTD:getqloc.obj
 0002:00028a94       ??_C@_0BB@OGOF@spanish?9paraguay?$AA@ 10077a94     LIBCMTD:getqloc.obj
 0002:00028aa8       ??_C@_0P@LLFA@spanish?9panama?$AA@ 10077aa8     LIBCMTD:getqloc.obj
 0002:00028ab8       ??_C@_0BC@BBJM@spanish?9nicaragua?$AA@ 10077ab8     LIBCMTD:getqloc.obj
 0002:00028acc       ??_C@_0P@NJBN@spanish?9modern?$AA@ 10077acc     LIBCMTD:getqloc.obj
 0002:00028adc       ??_C@_0BA@NHDN@spanish?9mexican?$AA@ 10077adc     LIBCMTD:getqloc.obj
 0002:00028aec       ??_C@_0BB@JHOJ@spanish?9honduras?$AA@ 10077aec     LIBCMTD:getqloc.obj
 0002:00028b00       ??_C@_0BC@BOOM@spanish?9guatemala?$AA@ 10077b00     LIBCMTD:getqloc.obj
 0002:00028b14       ??_C@_0BE@EELI@spanish?9el?5salvador?$AA@ 10077b14     LIBCMTD:getqloc.obj
 0002:00028b28       ??_C@_0BA@POAE@spanish?9ecuador?$AA@ 10077b28     LIBCMTD:getqloc.obj
 0002:00028b38       ??_C@_0BL@LDKN@spanish?9dominican?5republic?$AA@ 10077b38     LIBCMTD:getqloc.obj
 0002:00028b54       ??_C@_0BD@HPMH@spanish?9costa?5rica?$AA@ 10077b54     LIBCMTD:getqloc.obj
 0002:00028b68       ??_C@_0BB@NDDK@spanish?9colombia?$AA@ 10077b68     LIBCMTD:getqloc.obj
 0002:00028b7c       ??_C@_0O@BJHA@spanish?9chile?$AA@ 10077b7c     LIBCMTD:getqloc.obj
 0002:00028b8c       ??_C@_0BA@OBNG@spanish?9bolivia?$AA@ 10077b8c     LIBCMTD:getqloc.obj
 0002:00028b9c       ??_C@_0BC@EFAM@spanish?9argentina?$AA@ 10077b9c     LIBCMTD:getqloc.obj
 0002:00028bb0       ??_C@_0BF@KMMM@portuguese?9brazilian?$AA@ 10077bb0     LIBCMTD:getqloc.obj
 0002:00028bc8       ??_C@_0BC@BAAE@norwegian?9nynorsk?$AA@ 10077bc8     LIBCMTD:getqloc.obj
 0002:00028bdc       ??_C@_0BB@PBHK@norwegian?9bokmal?$AA@ 10077bdc     LIBCMTD:getqloc.obj
 0002:00028bf0       ??_C@_09EHKL@norwegian?$AA@ 10077bf0     LIBCMTD:getqloc.obj
 0002:00028bfc       ??_C@_0O@BEAN@italian?9swiss?$AA@ 10077bfc     LIBCMTD:getqloc.obj
 0002:00028c0c       ??_C@_0O@OIFK@irish?9english?$AA@ 10077c0c     LIBCMTD:getqloc.obj
 0002:00028c1c       ??_C@_0N@NBPL@german?9swiss?$AA@ 10077c1c     LIBCMTD:getqloc.obj
 0002:00028c2c       ??_C@_0BC@ICFJ@german?9luxembourg?$AA@ 10077c2c     LIBCMTD:getqloc.obj
 0002:00028c40       ??_C@_0BE@GGPC@german?9lichtenstein?$AA@ 10077c40     LIBCMTD:getqloc.obj
 0002:00028c54       ??_C@_0BA@MKDC@german?9austrian?$AA@ 10077c54     LIBCMTD:getqloc.obj
 0002:00028c64       ??_C@_0N@ODNB@french?9swiss?$AA@ 10077c64     LIBCMTD:getqloc.obj
 0002:00028c74       ??_C@_0BC@MGCM@french?9luxembourg?$AA@ 10077c74     LIBCMTD:getqloc.obj
 0002:00028c88       ??_C@_0BA@NABK@french?9canadian?$AA@ 10077c88     LIBCMTD:getqloc.obj
 0002:00028c98       ??_C@_0P@CJNO@french?9belgian?$AA@ 10077c98     LIBCMTD:getqloc.obj
 0002:00028ca8       ??_C@_0M@LJOL@english?9usa?$AA@ 10077ca8     LIBCMTD:getqloc.obj
 0002:00028cb4       ??_C@_0L@FMNC@english?9us?$AA@ 10077cb4     LIBCMTD:getqloc.obj
 0002:00028cc0       ??_C@_0L@KBBK@english?9uk?$AA@ 10077cc0     LIBCMTD:getqloc.obj
 0002:00028ccc       ??_C@_0BK@NDDE@english?9trinidad?5y?5tobago?$AA@ 10077ccc     LIBCMTD:getqloc.obj
 0002:00028ce8       ??_C@_0BF@LKML@english?9south?5africa?$AA@ 10077ce8     LIBCMTD:getqloc.obj
 0002:00028d00       ??_C@_0L@EGPP@english?9nz?$AA@ 10077d00     LIBCMTD:getqloc.obj
 0002:00028d0c       ??_C@_0BA@HLH@english?9jamaica?$AA@ 10077d0c     LIBCMTD:getqloc.obj
 0002:00028d1c       ??_C@_0M@PMJI@english?9ire?$AA@ 10077d1c     LIBCMTD:getqloc.obj
 0002:00028d28       ??_C@_0BC@HINE@english?9caribbean?$AA@ 10077d28     LIBCMTD:getqloc.obj
 0002:00028d3c       ??_C@_0M@DCFH@english?9can?$AA@ 10077d3c     LIBCMTD:getqloc.obj
 0002:00028d48       ??_C@_0P@DGHK@english?9belize?$AA@ 10077d48     LIBCMTD:getqloc.obj
 0002:00028d58       ??_C@_0M@FLHK@english?9aus?$AA@ 10077d58     LIBCMTD:getqloc.obj
 0002:00028d64       ??_C@_0BB@HNCK@english?9american?$AA@ 10077d64     LIBCMTD:getqloc.obj
 0002:00028d78       ??_C@_0O@PAMI@dutch?9belgian?$AA@ 10077d78     LIBCMTD:getqloc.obj
 0002:00028d88       ??_C@_0BE@FPEJ@chinese?9traditional?$AA@ 10077d88     LIBCMTD:getqloc.obj
 0002:00028d9c       ??_C@_0BC@CHFL@chinese?9singapore?$AA@ 10077d9c     LIBCMTD:getqloc.obj
 0002:00028db0       ??_C@_0BD@DCMH@chinese?9simplified?$AA@ 10077db0     LIBCMTD:getqloc.obj
 0002:00028dc4       ??_C@_0BB@JMOE@chinese?9hongkong?$AA@ 10077dc4     LIBCMTD:getqloc.obj
 0002:00028dd8       ??_C@_07NGFN@chinese?$AA@  10077dd8     LIBCMTD:getqloc.obj
 0002:00028de0       ??_C@_03PCOI@chi?$AA@      10077de0     LIBCMTD:getqloc.obj
 0002:00028de4       ??_C@_03FIHP@chh?$AA@      10077de4     LIBCMTD:getqloc.obj
 0002:00028de8       ??_C@_08HFLO@canadian?$AA@ 10077de8     LIBCMTD:getqloc.obj
 0002:00028df4       ??_C@_07INIJ@belgian?$AA@  10077df4     LIBCMTD:getqloc.obj
 0002:00028dfc       ??_C@_0L@LCCA@australian?$AA@ 10077dfc     LIBCMTD:getqloc.obj
 0002:00028e08       ??_C@_0BB@BJIO@american?9english?$AA@ 10077e08     LIBCMTD:getqloc.obj
 0002:00028e1c       ??_C@_0BB@DAGO@american?5english?$AA@ 10077e1c     LIBCMTD:getqloc.obj
 0002:00028e30       ??_C@_08HENB@american?$AA@ 10077e30     LIBCMTD:getqloc.obj
 0002:00028e3c       ??_C@_03DGJE@OCP?$AA@      10077e3c     LIBCMTD:getqloc.obj
 0002:00028e40       ??_C@_03EKFG@ACP?$AA@      10077e40     LIBCMTD:getqloc.obj
 0002:00028e44       ??_C@_0L@JIE@_freebuf?4c?$AA@ 10077e44     LIBCMTD:_freebuf.obj
 0002:00028e50       ??_C@_07CJME@H?3mm?3ss?$AA@ 10077e50     LIBCMTD:strftime.obj
 0002:00028e58       ??_C@_0BE@MHI@dddd?0?5MMMM?5dd?0?5yyyy?$AA@ 10077e58     LIBCMTD:strftime.obj
 0002:00028e6c       ??_C@_06HCAD@M?1d?1yy?$AA@ 10077e6c     LIBCMTD:strftime.obj
 0002:00028e74       ??_C@_02DBLP@PM?$AA@       10077e74     LIBCMTD:strftime.obj
 0002:00028e78       ??_C@_02ENLM@AM?$AA@       10077e78     LIBCMTD:strftime.obj
 0002:00028e7c       ??_C@_08LIDF@December?$AA@ 10077e7c     LIBCMTD:strftime.obj
 0002:00028e88       ??_C@_08NJLI@November?$AA@ 10077e88     LIBCMTD:strftime.obj
 0002:00028e94       ??_C@_07IAMM@October?$AA@  10077e94     LIBCMTD:strftime.obj
 0002:00028e9c       ??_C@_09MKGD@September?$AA@ 10077e9c     LIBCMTD:strftime.obj
 0002:00028ea8       ??_C@_06PADP@August?$AA@   10077ea8     LIBCMTD:strftime.obj
 0002:00028eb0       ??_C@_04PIJO@July?$AA@     10077eb0     LIBCMTD:strftime.obj
 0002:00028eb8       ??_C@_04ICFP@June?$AA@     10077eb8     LIBCMTD:strftime.obj
 0002:00028ec0       ??_C@_05JFGC@April?$AA@    10077ec0     LIBCMTD:strftime.obj
 0002:00028ec8       ??_C@_05FGPD@March?$AA@    10077ec8     LIBCMTD:strftime.obj
 0002:00028ed0       ??_C@_08PGBA@February?$AA@ 10077ed0     LIBCMTD:strftime.obj
 0002:00028edc       ??_C@_07BPKJ@January?$AA@  10077edc     LIBCMTD:strftime.obj
 0002:00028ee4       ??_C@_03PGJO@Dec?$AA@      10077ee4     LIBCMTD:strftime.obj
 0002:00028ee8       ??_C@_03PDLM@Nov?$AA@      10077ee8     LIBCMTD:strftime.obj
 0002:00028eec       ??_C@_03BLHK@Oct?$AA@      10077eec     LIBCMTD:strftime.obj
 0002:00028ef0       ??_C@_03DPFM@Sep?$AA@      10077ef0     LIBCMTD:strftime.obj
 0002:00028ef4       ??_C@_03CMCH@Aug?$AA@      10077ef4     LIBCMTD:strftime.obj
 0002:00028ef8       ??_C@_03OBKI@Jul?$AA@      10077ef8     LIBCMTD:strftime.obj
 0002:00028efc       ??_C@_03LEIG@Jun?$AA@      10077efc     LIBCMTD:strftime.obj
 0002:00028f00       ??_C@_03MGHB@May?$AA@      10077f00     LIBCMTD:strftime.obj
 0002:00028f04       ??_C@_03MJJM@Apr?$AA@      10077f04     LIBCMTD:strftime.obj
 0002:00028f08       ??_C@_03GNHA@Mar?$AA@      10077f08     LIBCMTD:strftime.obj
 0002:00028f0c       ??_C@_03PICE@Feb?$AA@      10077f0c     LIBCMTD:strftime.obj
 0002:00028f10       ??_C@_03IEIF@Jan?$AA@      10077f10     LIBCMTD:strftime.obj
 0002:00028f14       ??_C@_08FAKH@Saturday?$AA@ 10077f14     LIBCMTD:strftime.obj
 0002:00028f20       ??_C@_06ONCK@Friday?$AA@   10077f20     LIBCMTD:strftime.obj
 0002:00028f28       ??_C@_08CCFO@Thursday?$AA@ 10077f28     LIBCMTD:strftime.obj
 0002:00028f34       ??_C@_09PBIN@Wednesday?$AA@ 10077f34     LIBCMTD:strftime.obj
 0002:00028f40       ??_C@_07BMBC@Tuesday?$AA@  10077f40     LIBCMTD:strftime.obj
 0002:00028f48       ??_C@_06CHLK@Monday?$AA@   10077f48     LIBCMTD:strftime.obj
 0002:00028f50       ??_C@_06OOEM@Sunday?$AA@   10077f50     LIBCMTD:strftime.obj
 0002:00028f58       ??_C@_03MPKK@Sat?$AA@      10077f58     LIBCMTD:strftime.obj
 0002:00028f5c       ??_C@_03FINJ@Fri?$AA@      10077f5c     LIBCMTD:strftime.obj
 0002:00028f60       ??_C@_03HIKC@Thu?$AA@      10077f60     LIBCMTD:strftime.obj
 0002:00028f64       ??_C@_03HECK@Wed?$AA@      10077f64     LIBCMTD:strftime.obj
 0002:00028f68       ??_C@_03ECCP@Tue?$AA@      10077f68     LIBCMTD:strftime.obj
 0002:00028f6c       ??_C@_03PIEP@Mon?$AA@      10077f6c     LIBCMTD:strftime.obj
 0002:00028f70       ??_C@_03FHEP@Sun?$AA@      10077f70     LIBCMTD:strftime.obj
 0002:00028f74       ??_C@_03MKGK@a?1p?$AA@     10077f74     LIBCMTD:strftime.obj
 0002:00028f78       ??_C@_05BDJK@am?1pm?$AA@   10077f78     LIBCMTD:strftime.obj
 0002:00028f80       ??_C@_0L@HKCB@inithelp?4c?$AA@ 10077f80     LIBCMTD:inithelp.obj
 0002:00028fa8       ___dnames                  10077fa8     LIBCMTD:timeset.obj
 0002:00028fc0       ___mnames                  10077fc0     LIBCMTD:timeset.obj
 0002:00028fe8       ??_C@_07DEKI@tzset?4c?$AA@ 10077fe8     LIBCMTD:tzset.obj
 0002:00028ff0       ??_C@_02JHIA@TZ?$AA@       10077ff0     LIBCMTD:tzset.obj
 0002:00029014       ??_C@_0L@EJNO@wtombenv?4c?$AA@ 10078014     LIBCMTD:wtombenv.obj
 0002:00029020       ??_C@_07FOIK@a_cmp?4c?$AA@ 10078020     LIBCMTD:a_cmp.obj
 0002:00029028       ??_C@_0DN@PPKB@cchCount1?$DN?$DN0?5?$CG?$CG?5cchCount2?$DN?$DN1?5?$HM?$HM?5@ 10078028     LIBCMTD:a_cmp.obj
 0002:00029080       ??_C@_08FEIK@setenv?4c?$AA@ 10078080     LIBCMTD:setenv.obj
 0003:00000000       ___xc_a                    10081000     LIBCMTD:crt0init.obj
 0003:00000104       ___xc_z                    10081104     LIBCMTD:crt0init.obj
 0003:00000208       ___xi_a                    10081208     LIBCMTD:crt0init.obj
 0003:0000051c       ___xi_z                    1008151c     LIBCMTD:crt0init.obj
 0003:00000620       ___xp_a                    10081620     LIBCMTD:crt0init.obj
 0003:00000828       ___xp_z                    10081828     LIBCMTD:crt0init.obj
 0003:0000092c       ___xt_a                    1008192c     LIBCMTD:crt0init.obj
 0003:00000b34       ___xt_z                    10081b34     LIBCMTD:crt0init.obj
 0003:00000c40       ?__LINE__Var@?1??DSIP_Init@@YAXPAUHWND__@@@Z@4FA 10081c40     dsiPlayer.obj
 0003:00000c44       ?__LINE__Var@?1??DSIP_Open@@YAHPAD@Z@4FA 10081c44     dsiPlayer.obj
 0003:00000c48       ?__LINE__Var@?1??DSIP_Play@@YAJXZ@4FA 10081c48     dsiPlayer.obj
 0003:00000c4c       ?__LINE__Var@?1??Initialize@CSoundManager@@QAEJPAUHWND__@@KKKK@Z@4FA 10081c4c     dsutil.obj
 0003:00000c50       ?__LINE__Var@?1??SetPrimaryBufferFormat@CSoundManager@@QAEJKKK@Z@4FA 10081c50     dsutil.obj
 0003:00000c54       ?__LINE__Var@?1??Get3DListenerInterface@CSoundManager@@QAEJPAPAUIDirectSound3DListener@@@Z@4FA 10081c54     dsutil.obj
 0003:00000c58       ?__LINE__Var@?1??Create@CSoundManager@@QAEJPAPAVCSound@@PADKU_GUID@@K@Z@4FA 10081c58     dsutil.obj
 0003:00000c5c       ?__LINE__Var@?1??CreateFromMemory@CSoundManager@@QAEJPAPAVCSound@@PAEKPAUtWAVEFORMATEX@@KU_GUID@@K@Z@4FA 10081c5c     dsutil.obj
 0003:00000c60       ?__LINE__Var@?1??CreateStreaming@CSoundManager@@QAEJPAPAVCStreamingSound@@PADKU_GUID@@KKPAX@Z@4FA 10081c60     dsutil.obj
 0003:00000c64       ?__LINE__Var@?1??FillBufferWithSound@CSound@@QAEJPAUIDirectSoundBuffer@@H@Z@4FA 10081c64     dsutil.obj
 0003:00000c68       ?__LINE__Var@?1??RestoreBuffer@CSound@@IAEJPAUIDirectSoundBuffer@@PAH@Z@4FA 10081c68     dsutil.obj
 0003:00000c6c       ?__LINE__Var@?1??Play@CSound@@QAEJKK@Z@4FA 10081c6c     dsutil.obj
 0003:00000c70       ?__LINE__Var@?1??HandleWaveStreamNotification@CStreamingSound@@QAEJH@Z@4FA 10081c70     dsutil.obj
 0003:00000c74       ?__LINE__Var@?1??Reset@CStreamingSound@@QAEJXZ@4FA 10081c74     dsutil.obj
 0003:00000c78       ?__LINE__Var@?1??Open@CWaveFile@@QAEJPADPAUtWAVEFORMATEX@@K@Z@4FA 10081c78     dsutil.obj
 0003:00000c7c       ?__LINE__Var@?1??ReadMMIO@CWaveFile@@IAEJXZ@4FA 10081c7c     dsutil.obj
 0003:00000c80       ?__LINE__Var@?1??ResetFile@CWaveFile@@QAEJXZ@4FA 10081c80     dsutil.obj
 0003:00000c84       ?__LINE__Var@?1??Read@CWaveFile@@QAEJPAEKPAK@Z@4FA 10081c84     dsutil.obj
 0003:00000c88       ?__LINE__Var@?1??Close@CWaveFile@@QAEJXZ@4FA 10081c88     dsutil.obj
 0003:00000c8c       ?__LINE__Var@?1??WriteMMIO@CWaveFile@@IAEJPAUtWAVEFORMATEX@@@Z@4FA 10081c8c     dsutil.obj
 0003:00000c90       ?__LINE__Var@?1??Write@CWaveFile@@QAEJIPAEPAI@Z@4FA 10081c90     dsutil.obj
 0003:00000c98       __NLG_Destination          10081c98     LIBCMTD:exsup.obj
 0003:00000cb0       __fltused                  10081cb0     LIBCMTD:fpinit.obj
 0003:00000cb4       __ldused                   10081cb4     LIBCMTD:fpinit.obj
 0003:00000cb8       __FPinit                   10081cb8     LIBCMTD:fpinit.obj
 0003:00000cbc       __FPmtinit                 10081cbc     LIBCMTD:fpinit.obj
 0003:00000cc0       __FPmtterm                 10081cc0     LIBCMTD:fpinit.obj
 0003:00000cd0       __aexit_rtn                10081cd0     LIBCMTD:dllcrt0.obj
 0003:00000ce0       __locktable                10081ce0     LIBCMTD:mlock.obj
 0003:00000da0       __crtDbgFlag               10081da0     LIBCMTD:dbgheap.obj
 0003:00000da8       __crtBreakAlloc            10081da8     LIBCMTD:dbgheap.obj
 0003:00000dc4       __crtAssertBusy            10081dc4     LIBCMTD:dbgrpt.obj
 0003:00000dc8       __CrtDbgMode               10081dc8     LIBCMTD:dbgrpt.obj
 0003:00000dd4       __CrtDbgFile               10081dd4     LIBCMTD:dbgrpt.obj
 0003:00000df0       ___tlsindex                10081df0     LIBCMTD:tidtable.obj
 0003:00000df4       ?__pInconsistency@@3P6AXXZA 10081df4     LIBCMTD:hooks.obj
 0003:00000df8       ___nullstring              10081df8     LIBCMTD:output.obj
 0003:00000dfc       ___wnullstring             10081dfc     LIBCMTD:output.obj
 0003:00000e00       __cfltcvt_tab              10081e00     LIBCMTD:cmiscdat.obj
 0003:00000e28       ___badioinfo               10081e28     LIBCMTD:ioinit.obj
 0003:00000e4c       __amblksiz                 10081e4c     LIBCMTD:heapinit.obj
 0003:00000ee0       __pfnAllocHook             10081ee0     LIBCMTD:dbghook.obj
 0003:00000ee8       ___old_small_block_heap    10081ee8     LIBCMTD:sbheap.obj
 0003:00002f0c       ___old_sbh_threshold       10083f0c     LIBCMTD:sbheap.obj
 0003:00002f10       __pctype                   10083f10     LIBCMTD:ctype.obj
 0003:00002f14       __pwctype                  10083f14     LIBCMTD:ctype.obj
 0003:00002f18       __ctype                    10083f18     LIBCMTD:ctype.obj
 0003:0000311c       ___mb_cur_max              1008411c     LIBCMTD:nlsdata1.obj
 0003:00003120       ___decimal_point           10084120     LIBCMTD:nlsdata1.obj
 0003:00003124       ___decimal_point_length    10084124     LIBCMTD:nlsdata1.obj
 0003:00003130       __XcptActTab               10084130     LIBCMTD:winxfltr.obj
 0003:000031a8       __First_FPE_Indx           100841a8     LIBCMTD:winxfltr.obj
 0003:000031ac       __Num_FPE                  100841ac     LIBCMTD:winxfltr.obj
 0003:000031b0       __XcptActTabSize           100841b0     LIBCMTD:winxfltr.obj
 0003:000031b4       __XcptActTabCount          100841b4     LIBCMTD:winxfltr.obj
 0003:000031b8       __iob                      100841b8     LIBCMTD:_file.obj
 0003:000037e8       ___lc_category             100847e8     LIBCMTD:setlocal.obj
 0003:00003830       ___rgLocInfo               10084830     LIBCMTD:getqloc.obj
 0003:00003cd4       ___rglangidNotDefault      10084cd4     LIBCMTD:getqloc.obj
 0003:00003ce8       ___rg_country              10084ce8     LIBCMTD:getqloc.obj
 0003:00003da0       ___rg_language             10084da0     LIBCMTD:getqloc.obj
 0003:00003fa8       ___lc_time_curr            10084fa8     LIBCMTD:strftime.obj
 0003:00003fb0       ___lc_time_c               10084fb0     LIBCMTD:strftime.obj
 0003:00004060       ___lconv_static_decimal    10085060     LIBCMTD:lconv.obj
 0003:00004068       ___lconv_c                 10085068     LIBCMTD:lconv.obj
 0003:00004098       ___lconv                   10085098     LIBCMTD:lconv.obj
 0003:000040a0       __pow10pos                 100850a0     LIBCMTD:constpow.obj
 0003:00004200       __pow10neg                 10085200     LIBCMTD:constpow.obj
 0003:0000435c       __timezone                 1008535c     LIBCMTD:timeset.obj
 0003:00004360       __daylight                 10085360     LIBCMTD:timeset.obj
 0003:00004364       __dstbias                  10085364     LIBCMTD:timeset.obj
 0003:000043e8       __tzname                   100853e8     LIBCMTD:timeset.obj
 0003:00004410       __lpdays                   10085410     LIBCMTD:days.obj
 0003:00004444       __days                     10085444     LIBCMTD:days.obj
 0003:000050b8       ?g_bBufferPaused@@3HA      100860b8     dsiPlayer.obj
 0003:000050bc       ?g_pSoundManager@@3PAVCSoundManager@@A 100860bc     dsiPlayer.obj
 0003:000050c0       ?g_pSound@@3PAVCSound@@A   100860c0     dsiPlayer.obj
 0003:00005254       ___fastflag                10086254     LIBCMTD:fpinit.obj
 0003:00005258       __adjust_fdiv              10086258     LIBCMTD:fpinit.obj
 0003:00005260       __aenvptr                  10086260     LIBCMTD:dllcrt0.obj
 0003:00005264       __wenvptr                  10086264     LIBCMTD:dllcrt0.obj
 0003:00005268       ___error_mode              10086268     LIBCMTD:dllcrt0.obj
 0003:0000526c       ___app_type                1008626c     LIBCMTD:dllcrt0.obj
 0003:000052e8       __umaskval                 100862e8     LIBCMTD:crt0dat.obj
 0003:000052ec       __osver                    100862ec     LIBCMTD:crt0dat.obj
 0003:000052f0       __winver                   100862f0     LIBCMTD:crt0dat.obj
 0003:000052f4       __winmajor                 100862f4     LIBCMTD:crt0dat.obj
 0003:000052f8       __winminor                 100862f8     LIBCMTD:crt0dat.obj
 0003:000052fc       ___argc                    100862fc     LIBCMTD:crt0dat.obj
 0003:00005300       ___argv                    10086300     LIBCMTD:crt0dat.obj
 0003:00005304       ___wargv                   10086304     LIBCMTD:crt0dat.obj
 0003:00005308       __environ                  10086308     LIBCMTD:crt0dat.obj
 0003:0000530c       ___initenv                 1008630c     LIBCMTD:crt0dat.obj
 0003:00005310       __wenviron                 10086310     LIBCMTD:crt0dat.obj
 0003:00005314       ___winitenv                10086314     LIBCMTD:crt0dat.obj
 0003:00005318       __pgmptr                   10086318     LIBCMTD:crt0dat.obj
 0003:0000531c       __wpgmptr                  1008631c     LIBCMTD:crt0dat.obj
 0003:00005320       __exitflag                 10086320     LIBCMTD:crt0dat.obj
 0003:00005324       __C_Termination_Done       10086324     LIBCMTD:crt0dat.obj
 0003:00005328       __C_Exit_Done              10086328     LIBCMTD:crt0dat.obj
 0003:00005438       __adbgmsg                  10086438     LIBCMTD:crt0msg.obj
 0003:0000543c       __newmode                  1008643c     LIBCMTD:_newmode.obj
 0003:00005440       ?_pnhHeap@@3P6AHI@ZA       10086440     LIBCMTD:handler.obj
 0003:0000546c       __cflush                   1008646c     LIBCMTD:_file.obj
 0003:00005484       ___lc_handle               10086484     LIBCMTD:nlsdata2.obj
 0003:0000549c       ___lc_codepage             1008649c     LIBCMTD:nlsdata2.obj
 0003:000054a0       ___lc_collate_cp           100864a0     LIBCMTD:nlsdata2.obj
 0003:000054a8       ___lc_time_intl            100864a8     LIBCMTD:inittime.obj
 0003:000054c4       ___lc_id                   100864c4     LIBCMTD:nlsdata3.obj
 0003:00005514       ___lconv_static_null       10086514     LIBCMTD:lconv.obj
 0003:000055e8       ___alternate_form          100865e8     <common>
 0003:000055f8       ___no_lead_zeros           100865f8     <common>
 0003:000055fc       ___setlc_active            100865fc     <common>
 0003:0000560c       ___unguarded_readlc_active 1008660c     <common>
 0003:00005610       ___mbcodepage              10086610     <common>
 0003:00005690       ___mbulinfo                10086690     <common>
 0003:0000569c       ___ismbcodepage            1008669c     <common>
 0003:000056a0       __mbcasemap                100866a0     <common>
 0003:000057a0       __mbctype                  100867a0     <common>
 0003:000058a4       ___mblcid                  100868a4     <common>
 0003:000058a8       ___piob                    100868a8     <common>
 0003:00005c00       __bufin                    10086c00     <common>
 0003:00006c00       __nstream                  10087c00     <common>
 0003:00006c04       ___sbh_sizeHeaderList      10087c04     <common>
 0003:00006c18       ___sbh_indGroupDefer       10087c18     <common>
 0003:00006c1c       ___sbh_pHeaderScan         10087c1c     <common>
 0003:00006c20       ___sbh_initialized         10087c20     <common>
 0003:00006c24       ___sbh_pHeaderDefer        10087c24     <common>
 0003:00006c28       ___sbh_cntHeaderList       10087c28     <common>
 0003:00006c2c       ___sbh_pHeaderList         10087c2c     <common>
 0003:00006c30       ___sbh_threshold           10087c30     <common>
 0003:00006c34       __crtheap                  10087c34     <common>
 0003:00006c44       ___active_heap             10087c44     <common>
 0003:00006c60       ___pioinfo                 10087c60     <common>
 0003:00006d9c       __nhandle                  10087d9c     <common>
 0003:00006da0       ___env_initialized         10087da0     <common>
 0003:00006db0       ___mbctype_initialized     10087db0     <common>
 0003:00006db4       ___onexitend               10087db4     <common>
 0003:00006db8       ___onexitbegin             10087db8     <common>
 0003:00006dbc       __pfnReportHook            10087dbc     <common>
 0003:00006dc8       __pfnDumpClient            10087dc8     <common>
 0003:00006dd4       __acmdln                   10087dd4     <common>
 0003:00006de4       __pRawDllMain              10087de4     <common>
 0004:00000000       __IMPORT_DESCRIPTOR_WINMM  10088000     winmm:WINMM.dll
 0004:00000014       __IMPORT_DESCRIPTOR_DSOUND 10088014     dsound:DSOUND.dll
 0004:00000028       __IMPORT_DESCRIPTOR_KERNEL32 10088028     kernel32:KERNEL32.dll
 0004:0000003c       __IMPORT_DESCRIPTOR_USER32 1008803c     user32:USER32.dll
 0004:00000050       __IMPORT_DESCRIPTOR_ADVAPI32 10088050     advapi32:ADVAPI32.dll
 0004:00000064       __NULL_IMPORT_DESCRIPTOR   10088064     winmm:WINMM.dll
 0004:00000348       __imp__RegOpenKeyExA@20    10088348     advapi32:ADVAPI32.dll
 0004:0000034c       __imp__RegQueryValueExA@24 1008834c     advapi32:ADVAPI32.dll
 0004:00000350       __imp__RegCloseKey@4       10088350     advapi32:ADVAPI32.dll
 0004:00000354       __imp__RegSetValueExA@24   10088354     advapi32:ADVAPI32.dll
 0004:00000358       \177ADVAPI32_NULL_THUNK_DATA 10088358     advapi32:ADVAPI32.dll
 0004:00000384       __imp__DirectSoundCreate8@12 10088384     dsound:DSOUND.dll
 0004:00000388       \177DSOUND_NULL_THUNK_DATA 10088388     dsound:DSOUND.dll
 0004:000003b4       __imp__IsValidCodePage@4   100883b4     kernel32:KERNEL32.dll
 0004:000003b8       __imp__EnumSystemLocalesA@8 100883b8     kernel32:KERNEL32.dll
 0004:000003bc       __imp__FlushFileBuffers@4  100883bc     kernel32:KERNEL32.dll
 0004:000003c0       __imp__ReadFile@20         100883c0     kernel32:KERNEL32.dll
 0004:000003c4       __imp__LCMapStringW@24     100883c4     kernel32:KERNEL32.dll
 0004:000003c8       __imp__IsValidLocale@8     100883c8     kernel32:KERNEL32.dll
 0004:000003cc       __imp__GetLocaleInfoA@16   100883cc     kernel32:KERNEL32.dll
 0004:000003d0       __imp__GetUserDefaultLCID@0 100883d0     kernel32:KERNEL32.dll
 0004:000003d4       __imp__Sleep@4             100883d4     kernel32:KERNEL32.dll
 0004:000003d8       __imp__LockResource@4      100883d8     kernel32:KERNEL32.dll
 0004:000003dc       __imp__SizeofResource@8    100883dc     kernel32:KERNEL32.dll
 0004:000003e0       __imp__LoadResource@8      100883e0     kernel32:KERNEL32.dll
 0004:000003e4       __imp__GetTimeZoneInformation@4 100883e4     kernel32:KERNEL32.dll
 0004:000003e8       __imp__CloseHandle@4       100883e8     kernel32:KERNEL32.dll
 0004:000003ec       __imp__CreateFileA@28      100883ec     kernel32:KERNEL32.dll
 0004:000003f0       __imp__GetFullPathNameA@16 100883f0     kernel32:KERNEL32.dll
 0004:000003f4       __imp__QueryPerformanceCounter@4 100883f4     kernel32:KERNEL32.dll
 0004:000003f8       __imp__QueryPerformanceFrequency@4 100883f8     kernel32:KERNEL32.dll
 0004:000003fc       __imp__MultiByteToWideChar@24 100883fc     kernel32:KERNEL32.dll
 0004:00000400       __imp__WideCharToMultiByte@32 10088400     kernel32:KERNEL32.dll
 0004:00000404       __imp__OutputDebugStringA@4 10088404     kernel32:KERNEL32.dll
 0004:00000408       __imp__OutputDebugStringW@4 10088408     kernel32:KERNEL32.dll
 0004:0000040c       __imp__LCMapStringA@24     1008840c     kernel32:KERNEL32.dll
 0004:00000410       __imp__SetStdHandle@8      10088410     kernel32:KERNEL32.dll
 0004:00000414       __imp__GetStringTypeW@16   10088414     kernel32:KERNEL32.dll
 0004:00000418       __imp__GetStringTypeA@20   10088418     kernel32:KERNEL32.dll
 0004:0000041c       __imp__GetLocaleInfoW@16   1008841c     kernel32:KERNEL32.dll
 0004:00000420       __imp__CompareStringA@24   10088420     kernel32:KERNEL32.dll
 0004:00000424       __imp__CompareStringW@24   10088424     kernel32:KERNEL32.dll
 0004:00000428       __imp__FindResourceA@12    10088428     kernel32:KERNEL32.dll
 0004:0000042c       __imp__GetProcAddress@8    1008842c     kernel32:KERNEL32.dll
 0004:00000430       __imp__RtlUnwind@16        10088430     kernel32:KERNEL32.dll
 0004:00000434       __imp__GetCommandLineA@0   10088434     kernel32:KERNEL32.dll
 0004:00000438       __imp__GetVersion@0        10088438     kernel32:KERNEL32.dll
 0004:0000043c       __imp__InitializeCriticalSection@4 1008843c     kernel32:KERNEL32.dll
 0004:00000440       __imp__DeleteCriticalSection@4 10088440     kernel32:KERNEL32.dll
 0004:00000444       __imp__EnterCriticalSection@4 10088444     kernel32:KERNEL32.dll
 0004:00000448       __imp__LeaveCriticalSection@4 10088448     kernel32:KERNEL32.dll
 0004:0000044c       __imp__ExitProcess@4       1008844c     kernel32:KERNEL32.dll
 0004:00000450       __imp__FatalAppExitA@8     10088450     kernel32:KERNEL32.dll
 0004:00000454       __imp__IsBadWritePtr@8     10088454     kernel32:KERNEL32.dll
 0004:00000458       __imp__IsBadReadPtr@8      10088458     kernel32:KERNEL32.dll
 0004:0000045c       __imp__HeapValidate@12     1008845c     kernel32:KERNEL32.dll
 0004:00000460       __imp__DebugBreak@0        10088460     kernel32:KERNEL32.dll
 0004:00000464       __imp__GetStdHandle@4      10088464     kernel32:KERNEL32.dll
 0004:00000468       __imp__WriteFile@20        10088468     kernel32:KERNEL32.dll
 0004:0000046c       __imp__InterlockedDecrement@4 1008846c     kernel32:KERNEL32.dll
 0004:00000470       __imp__SetEnvironmentVariableA@8 10088470     kernel32:KERNEL32.dll
 0004:00000474       __imp__LoadLibraryA@4      10088474     kernel32:KERNEL32.dll
 0004:00000478       __imp__InterlockedIncrement@4 10088478     kernel32:KERNEL32.dll
 0004:0000047c       __imp__GetModuleFileNameA@12 1008847c     kernel32:KERNEL32.dll
 0004:00000480       __imp__GetCurrentThreadId@0 10088480     kernel32:KERNEL32.dll
 0004:00000484       __imp__TlsSetValue@8       10088484     kernel32:KERNEL32.dll
 0004:00000488       __imp__TlsAlloc@0          10088488     kernel32:KERNEL32.dll
 0004:0000048c       __imp__TlsFree@4           1008848c     kernel32:KERNEL32.dll
 0004:00000490       __imp__SetLastError@4      10088490     kernel32:KERNEL32.dll
 0004:00000494       __imp__TlsGetValue@4       10088494     kernel32:KERNEL32.dll
 0004:00000498       __imp__GetLastError@0      10088498     kernel32:KERNEL32.dll
 0004:0000049c       __imp__GetCurrentThread@0  1008849c     kernel32:KERNEL32.dll
 0004:000004a0       __imp__GetModuleHandleA@4  100884a0     kernel32:KERNEL32.dll
 0004:000004a4       __imp__TerminateProcess@8  100884a4     kernel32:KERNEL32.dll
 0004:000004a8       __imp__GetCurrentProcess@0 100884a8     kernel32:KERNEL32.dll
 0004:000004ac       __imp__SetHandleCount@4    100884ac     kernel32:KERNEL32.dll
 0004:000004b0       __imp__GetFileType@4       100884b0     kernel32:KERNEL32.dll
 0004:000004b4       __imp__GetStartupInfoA@4   100884b4     kernel32:KERNEL32.dll
 0004:000004b8       __imp__FreeEnvironmentStringsA@4 100884b8     kernel32:KERNEL32.dll
 0004:000004bc       __imp__FreeEnvironmentStringsW@4 100884bc     kernel32:KERNEL32.dll
 0004:000004c0       __imp__GetEnvironmentStrings@0 100884c0     kernel32:KERNEL32.dll
 0004:000004c4       __imp__GetEnvironmentStringsW@0 100884c4     kernel32:KERNEL32.dll
 0004:000004c8       __imp__GetEnvironmentVariableA@12 100884c8     kernel32:KERNEL32.dll
 0004:000004cc       __imp__GetVersionExA@4     100884cc     kernel32:KERNEL32.dll
 0004:000004d0       __imp__HeapDestroy@4       100884d0     kernel32:KERNEL32.dll
 0004:000004d4       __imp__HeapCreate@12       100884d4     kernel32:KERNEL32.dll
 0004:000004d8       __imp__HeapFree@12         100884d8     kernel32:KERNEL32.dll
 0004:000004dc       __imp__VirtualFree@12      100884dc     kernel32:KERNEL32.dll
 0004:000004e0       __imp__HeapAlloc@12        100884e0     kernel32:KERNEL32.dll
 0004:000004e4       __imp__HeapReAlloc@16      100884e4     kernel32:KERNEL32.dll
 0004:000004e8       __imp__VirtualAlloc@16     100884e8     kernel32:KERNEL32.dll
 0004:000004ec       __imp__SetConsoleCtrlHandler@8 100884ec     kernel32:KERNEL32.dll
 0004:000004f0       __imp__SetUnhandledExceptionFilter@4 100884f0     kernel32:KERNEL32.dll
 0004:000004f4       __imp__IsBadCodePtr@4      100884f4     kernel32:KERNEL32.dll
 0004:000004f8       __imp__UnhandledExceptionFilter@4 100884f8     kernel32:KERNEL32.dll
 0004:000004fc       __imp__SetFilePointer@16   100884fc     kernel32:KERNEL32.dll
 0004:00000500       __imp__GetCPInfo@8         10088500     kernel32:KERNEL32.dll
 0004:00000504       __imp__GetACP@0            10088504     kernel32:KERNEL32.dll
 0004:00000508       __imp__GetOEMCP@0          10088508     kernel32:KERNEL32.dll
 0004:0000050c       \177KERNEL32_NULL_THUNK_DATA 1008850c     kernel32:KERNEL32.dll
 0004:0000057c       __imp__MessageBoxW@16      1008857c     user32:USER32.dll
 0004:00000580       __imp__wsprintfA           10088580     user32:USER32.dll
 0004:00000584       __imp__MessageBoxA@16      10088584     user32:USER32.dll
 0004:00000588       \177USER32_NULL_THUNK_DATA 10088588     user32:USER32.dll
 0004:000005b4       __imp__timeGetTime@0       100885b4     winmm:WINMM.dll
 0004:000005b8       __imp__mmioWrite@12        100885b8     winmm:WINMM.dll
 0004:000005bc       __imp__mmioAdvance@12      100885bc     winmm:WINMM.dll
 0004:000005c0       __imp__mmioSetInfo@12      100885c0     winmm:WINMM.dll
 0004:000005c4       __imp__mmioSeek@12         100885c4     winmm:WINMM.dll
 0004:000005c8       __imp__mmioCreateChunk@12  100885c8     winmm:WINMM.dll
 0004:000005cc       __imp__mmioGetInfo@12      100885cc     winmm:WINMM.dll
 0004:000005d0       __imp__mmioDescend@16      100885d0     winmm:WINMM.dll
 0004:000005d4       __imp__mmioRead@12         100885d4     winmm:WINMM.dll
 0004:000005d8       __imp__mmioAscend@12       100885d8     winmm:WINMM.dll
 0004:000005dc       __imp__mmioOpenA@12        100885dc     winmm:WINMM.dll
 0004:000005e0       __imp__mmioClose@8         100885e0     winmm:WINMM.dll
 0004:000005e4       \177WINMM_NULL_THUNK_DATA  100885e4     winmm:WINMM.dll

 entry point at        0001:000116f0

