 tagWriter

 Timestamp is 3cf2701b (Mon May 27 19:42:51 2002)

 Preferred load address is 10000000

 Start         Length     Name                   Class
 0001:00000000 00056844H .text                   CODE
 0001:00056850 00003491H .text$x                 CODE
 0001:00059ce1 0003370fH .textbss                CODE
 0002:00000000 00004576H .rdata                  DATA
 0002:00004578 0000072bH .rdata$r                DATA
 0002:00004ca8 000028b1H .xdata$x                DATA
 0002:00007560 0000019dH .edata                  DATA
 0003:00000000 00000104H .CRT$XCA                DATA
 0003:00000104 0000017cH .CRT$XCU                DATA
 0003:00000280 00000104H .CRT$XCZ                DATA
 0003:00000384 00000104H .CRT$XIA                DATA
 0003:00000488 0000010eH .CRT$XIC                DATA
 0003:00000598 00000104H .CRT$XIY                DATA
 0003:0000069c 00000104H .CRT$XIZ                DATA
 0003:000007a0 00000104H .CRT$XPA                DATA
 0003:000008a4 00000109H .CRT$XPX                DATA
 0003:000009b0 00000104H .CRT$XPZ                DATA
 0003:00000ab4 00000104H .CRT$XTA                DATA
 0003:00000bb8 00000104H .CRT$XTB                DATA
 0003:00000cbc 00000104H .CRT$XTZ                DATA
 0003:00000dc0 00006d39H .data                   DATA
 0003:00007b00 00001bd5H .bss                    DATA
 0004:00000000 00000014H .idata$2                DATA
 0004:00000014 00000014H .idata$3                DATA
 0004:00000028 000001b4H .idata$4                DATA
 0004:000001dc 000001b4H .idata$5                DATA
 0004:00000390 00000776H .idata$6                DATA

  Address         Publics by Value              Rva+Base     Lib:Object

 0001:00000060       ??0TagRenderer@@QAE@PBD@Z  10001060 f   TagRenderer.obj
 0001:00000120       ??_ETagRenderer@@UAEPAXI@Z 10001120 f i TagRenderer.obj
 0001:00000120       ??_GTagRenderer@@UAEPAXI@Z 10001120 f i TagRenderer.obj
 0001:00000190       ??1TagRenderer@@UAE@XZ     10001190 f   TagRenderer.obj
 0001:00000230       ?RenderTag@TagRenderer@@QAEHPBD000000@Z 10001230 f   TagRenderer.obj
 0001:00000760       _DllMain@12                10001760 f   tagWriter.obj
 0001:00000790       ?TW_InitTagRenderer@@YGHPBD@Z 10001790 f   tagWriter.obj
 0001:00000860       ?TW_RenderTags@@YGHPBD000000@Z 10001860 f   tagWriter.obj
 0001:000008e0       ?TW_GetVersion@@YGXPAUMP3_VERSION@@@Z 100018e0 f   tagWriter.obj
 0001:00000bb0       ??0ID3_Frame@@QAE@W4ID3_FrameID@@@Z 10001bb0 f   id3libD:frame.obj
 0001:00000c60       ??_GID3_Frame@@UAEPAXI@Z   10001c60 f i id3libD:frame.obj
 0001:00000c60       ??_EID3_Frame@@UAEPAXI@Z   10001c60 f i id3libD:frame.obj
 0001:00000cc0       ??0ID3_Frame@@QAE@ABV0@@Z  10001cc0 f   id3libD:frame.obj
 0001:00000d70       ??1ID3_Frame@@UAE@XZ       10001d70 f   id3libD:frame.obj
 0001:00000de0       ?Clear@ID3_Frame@@QAEXXZ   10001de0 f   id3libD:frame.obj
 0001:00000e20       ?GetID@ID3_Frame@@QBE?AW4ID3_FrameID@@XZ 10001e20 f   id3libD:frame.obj
 0001:00000e60       ?SetID@ID3_Frame@@QAE_NW4ID3_FrameID@@@Z 10001e60 f   id3libD:frame.obj
 0001:00000ea0       ?SetSpec@ID3_Frame@@QAE_NW4ID3_V2Spec@@@Z 10001ea0 f   id3libD:frame.obj
 0001:00000ee0       ?GetSpec@ID3_Frame@@QBE?AW4ID3_V2Spec@@XZ 10001ee0 f   id3libD:frame.obj
 0001:00000f20       ?Field@ID3_Frame@@QBEAAVID3_Field@@W4ID3_FieldID@@@Z 10001f20 f   id3libD:frame.obj
 0001:00000f60       ?GetField@ID3_Frame@@QBEPAVID3_Field@@W4ID3_FieldID@@@Z 10001f60 f   id3libD:frame.obj
 0001:00000fa0       ?NumFields@ID3_Frame@@QBEIXZ 10001fa0 f   id3libD:frame.obj
 0001:00000fe0       ?Size@ID3_Frame@@QAEIXZ    10001fe0 f   id3libD:frame.obj
 0001:00001020       ?HasChanged@ID3_Frame@@QBE_NXZ 10002020 f   id3libD:frame.obj
 0001:00001060       ??4ID3_Frame@@QAEAAV0@ABV0@@Z 10002060 f   id3libD:frame.obj
 0001:000010b0       ?GetDescription@ID3_Frame@@SAPBDW4ID3_FrameID@@@Z 100020b0 f   id3libD:frame.obj
 0001:000010f0       ?GetDescription@ID3_Frame@@QBEPBDXZ 100020f0 f   id3libD:frame.obj
 0001:00001130       ?GetTextID@ID3_Frame@@QBEPBDXZ 10002130 f   id3libD:frame.obj
 0001:00001170       ?Parse@ID3_Frame@@QAE_NAAVID3_Reader@@@Z 10002170 f   id3libD:frame.obj
 0001:000011b0       ?Render@ID3_Frame@@QBEXAAVID3_Writer@@@Z 100021b0 f   id3libD:frame.obj
 0001:000011f0       ?Contains@ID3_Frame@@QBE_NW4ID3_FieldID@@@Z 100021f0 f   id3libD:frame.obj
 0001:00001230       ?SetCompression@ID3_Frame@@QAE_N_N@Z 10002230 f   id3libD:frame.obj
 0001:00001270       ?GetCompression@ID3_Frame@@QBE_NXZ 10002270 f   id3libD:frame.obj
 0001:000012b0       ?GetDataSize@ID3_Frame@@QBEIXZ 100022b0 f   id3libD:frame.obj
 0001:000012f0       ?SetEncryptionID@ID3_Frame@@QAE_NE@Z 100022f0 f   id3libD:frame.obj
 0001:00001330       ?GetEncryptionID@ID3_Frame@@QBEEXZ 10002330 f   id3libD:frame.obj
 0001:00001370       ?SetGroupingID@ID3_Frame@@QAE_NE@Z 10002370 f   id3libD:frame.obj
 0001:000013b0       ?GetGroupingID@ID3_Frame@@QBEEXZ 100023b0 f   id3libD:frame.obj
 0001:000013f0       ?CreateIterator@ID3_Frame@@QAEPAVIterator@1@XZ 100023f0 f   id3libD:frame.obj
 0001:00001490       ??0IteratorImpl@?%c:\dokumente und einstellungen\tw\eigene dateien\projects\tagwriter.dll\vc32\vbid3lib-3.8.0pre1\src\frame.cpp2886327612@@QAE@AAVID3_FrameImpl@@@Z 10002490 f i id3libD:frame.obj
 0001:000014f0       ?GetNext@IteratorImpl@?%c:\dokumente und einstellungen\tw\eigene dateien\projects\tagwriter.dll\vc32\vbid3lib-3.8.0pre1\src\frame.cpp2886327612@@UAEPAVID3_Field@@XZ 100024f0 f i id3libD:frame.obj
 0001:00001550       ??0Iterator@ID3_Frame@@QAE@XZ 10002550 f i id3libD:frame.obj
 0001:00001580       ?CreateIterator@ID3_Frame@@QBEPAVConstIterator@1@XZ 10002580 f   id3libD:frame.obj
 0001:00001620       ??0ConstIteratorImpl@?%c:\dokumente und einstellungen\tw\eigene dateien\projects\tagwriter.dll\vc32\vbid3lib-3.8.0pre1\src\frame.cpp2886327612@@QAE@AAVID3_FrameImpl@@@Z 10002620 f i id3libD:frame.obj
 0001:00001680       ?GetNext@ConstIteratorImpl@?%c:\dokumente und einstellungen\tw\eigene dateien\projects\tagwriter.dll\vc32\vbid3lib-3.8.0pre1\src\frame.cpp2886327612@@UAEPBVID3_Field@@XZ 10002680 f i id3libD:frame.obj
 0001:000016e0       ??0ConstIterator@ID3_Frame@@QAE@XZ 100026e0 f i id3libD:frame.obj
 0001:00001750       ?id@?$ctype@G@std@@$D      10002750 f i id3libD:frame.obj
 0001:000017d0       ?id@?$ctype@G@std@@$E      100027d0 f i id3libD:frame.obj
 0001:000017f0       ?GetID@ID3_FrameImpl@@QBE?AW4ID3_FrameID@@XZ 100027f0 f i id3libD:frame.obj
 0001:00001830       ?GetTextID@ID3_FrameImpl@@QBEPBDXZ 10002830 f i id3libD:frame.obj
 0001:00001870       ?Contains@ID3_FrameImpl@@QBE_NW4ID3_FieldID@@@Z 10002870 f i id3libD:frame.obj
 0001:000018b0       ?test@?$bitset@$0BI@@std@@QBE_NI@Z 100028b0 f i id3libD:frame.obj
 0001:00001920       ?_Xran@?$bitset@$0BI@@std@@ABEXXZ 10002920 f i id3libD:frame.obj
 0001:000019b0       ??0?$basic_string@DU?$char_traits@D@std@@V?$allocator@D@2@@std@@QAE@PBDABV?$allocator@D@1@@Z 100029b0 f i id3libD:frame.obj
 0001:00001a10       ??1?$basic_string@DU?$char_traits@D@std@@V?$allocator@D@2@@std@@QAE@XZ 10002a10 f i id3libD:frame.obj
 0001:00001a50       ?assign@?$basic_string@DU?$char_traits@D@std@@V?$allocator@D@2@@std@@QAEAAV12@PBD@Z 10002a50 f i id3libD:frame.obj
 0001:00001aa0       ?_Tidy@?$basic_string@DU?$char_traits@D@std@@V?$allocator@D@2@@std@@AAEX_N@Z 10002aa0 f i id3libD:frame.obj
 0001:00001b80       ?length@?$char_traits@D@std@@SAIPBD@Z 10002b80 f i id3libD:frame.obj
 0001:00001bc0       ??0logic_error@std@@QAE@ABV01@@Z 10002bc0 f i id3libD:frame.obj
 0001:00001c50       ??0?$basic_string@DU?$char_traits@D@std@@V?$allocator@D@2@@std@@QAE@ABV01@@Z 10002c50 f i id3libD:frame.obj
 0001:00001cb0       ?assign@?$basic_string@DU?$char_traits@D@std@@V?$allocator@D@2@@std@@QAEAAV12@ABV12@II@Z 10002cb0 f i id3libD:frame.obj
 0001:00001e30       ?c_str@?$basic_string@DU?$char_traits@D@std@@V?$allocator@D@2@@std@@QBEPBDXZ 10002e30 f i id3libD:frame.obj
 0001:00001e80       ?size@?$basic_string@DU?$char_traits@D@std@@V?$allocator@D@2@@std@@QBEIXZ 10002e80 f i id3libD:frame.obj
 0001:00001eb0       ?_Nullstr@?$basic_string@DU?$char_traits@D@std@@V?$allocator@D@2@@std@@CAPBDXZ 10002eb0 f i id3libD:frame.obj
 0001:00001ee0       ?copy@?$char_traits@D@std@@SAPADPADPBDI@Z 10002ee0 f i id3libD:frame.obj
 0001:00001f20       ?what@logic_error@std@@UBEPBDXZ 10002f20 f i id3libD:frame.obj
 0001:00001f60       ?_Doraise@logic_error@std@@MBEXXZ 10002f60 f i id3libD:frame.obj
 0001:00001fb0       ??1logic_error@std@@UAE@XZ 10002fb0 f i id3libD:frame.obj
 0001:00002030       ??_Elogic_error@std@@UAEPAXI@Z 10003030 f i id3libD:frame.obj
 0001:00002030       ??_Glogic_error@std@@UAEPAXI@Z 10003030 f i id3libD:frame.obj
 0001:00002090       ??0out_of_range@std@@QAE@ABV?$basic_string@DU?$char_traits@D@std@@V?$allocator@D@2@@1@@Z 10003090 f i id3libD:frame.obj
 0001:000020e0       ??0logic_error@std@@QAE@ABV?$basic_string@DU?$char_traits@D@std@@V?$allocator@D@2@@1@@Z 100030e0 f i id3libD:frame.obj
 0001:00002170       ??1out_of_range@std@@UAE@XZ 10003170 f i id3libD:frame.obj
 0001:000021b0       ?_Doraise@out_of_range@std@@MBEXXZ 100031b0 f i id3libD:frame.obj
 0001:00002200       ??_Gout_of_range@std@@UAEPAXI@Z 10003200 f i id3libD:frame.obj
 0001:00002200       ??_Eout_of_range@std@@UAEPAXI@Z 10003200 f i id3libD:frame.obj
 0001:00002260       ??0out_of_range@std@@QAE@ABV01@@Z 10003260 f i id3libD:frame.obj
 0001:000022b0       ?assign@?$basic_string@DU?$char_traits@D@std@@V?$allocator@D@2@@std@@QAEAAV12@PBDI@Z 100032b0 f i id3libD:frame.obj
 0001:00002320       ?erase@?$basic_string@DU?$char_traits@D@std@@V?$allocator@D@2@@std@@QAEAAV12@II@Z 10003320 f i id3libD:frame.obj
 0001:000023f0       ?move@?$char_traits@D@std@@SAPADPADPBDI@Z 100033f0 f i id3libD:frame.obj
 0001:00002430       ?capacity@?$basic_string@DU?$char_traits@D@std@@V?$allocator@D@2@@std@@QBEIXZ 10003430 f i id3libD:frame.obj
 0001:00002460       ?_Eos@?$basic_string@DU?$char_traits@D@std@@V?$allocator@D@2@@std@@AAEXI@Z 10003460 f i id3libD:frame.obj
 0001:000024c0       ?assign@?$char_traits@D@std@@SAXAADABD@Z 100034c0 f i id3libD:frame.obj
 0001:000024f0       ?_Grow@?$basic_string@DU?$char_traits@D@std@@V?$allocator@D@2@@std@@AAE_NI_N@Z 100034f0 f i id3libD:frame.obj
 0001:00002650       ?_Refcnt@?$basic_string@DU?$char_traits@D@std@@V?$allocator@D@2@@std@@AAEAAEPBD@Z 10003650 f i id3libD:frame.obj
 0001:00002680       ?deallocate@?$allocator@D@std@@QAEXPAXI@Z 10003680 f i id3libD:frame.obj
 0001:000026c0       ?max_size@?$basic_string@DU?$char_traits@D@std@@V?$allocator@D@2@@std@@QBEIXZ 100036c0 f i id3libD:frame.obj
 0001:00002720       ?_Copy@?$basic_string@DU?$char_traits@D@std@@V?$allocator@D@2@@std@@AAEXI@Z 10003720 f i id3libD:frame.obj
 0001:00002880       ?_Split@?$basic_string@DU?$char_traits@D@std@@V?$allocator@D@2@@std@@AAEXXZ 10003880 f i id3libD:frame.obj
 0001:00002910       ?allocate@?$allocator@D@std@@QAEPADIPBX@Z 10003910 f i id3libD:frame.obj
 0001:00002950       ?max_size@?$allocator@D@std@@QBEIXZ 10003950 f i id3libD:frame.obj
 0001:000029a0       ??8std@@YA_NABV?$allocator@D@0@0@Z 100039a0 f i id3libD:frame.obj
 0001:000029d0       ?_Allocate@std@@YAPADHPAD@Z 100039d0 f i id3libD:frame.obj
 0001:00002a20       ?SetCompression@ID3_FrameImpl@@QAE_N_N@Z 10003a20 f i id3libD:frame.obj
 0001:00002a60       ?SetCompression@ID3_FrameHeader@@QAE_N_N@Z 10003a60 f i id3libD:frame.obj
 0001:00002ab0       ?SetFlags@ID3_FrameHeader@@IAE_NG_N@Z 10003ab0 f i id3libD:frame.obj
 0001:00002b30       ?set@ID3_Flags@@QAE_NG_N@Z 10003b30 f i id3libD:frame.obj
 0001:00002b90       ?add@ID3_Flags@@QAE_NG@Z   10003b90 f i id3libD:frame.obj
 0001:00002bf0       ?get@ID3_Flags@@QBEGXZ     10003bf0 f i id3libD:frame.obj
 0001:00002c20       ?set@ID3_Flags@@QAE_NG@Z   10003c20 f i id3libD:frame.obj
 0001:00002c70       ?remove@ID3_Flags@@QAE_NG@Z 10003c70 f i id3libD:frame.obj
 0001:00002cd0       ?GetCompression@ID3_FrameImpl@@QBE_NXZ 10003cd0 f i id3libD:frame.obj
 0001:00002d10       ?GetCompression@ID3_FrameHeader@@QBE_NXZ 10003d10 f i id3libD:frame.obj
 0001:00002d50       ?test@ID3_Flags@@QBE_NG@Z  10003d50 f i id3libD:frame.obj
 0001:00002db0       ?GetDataSize@ID3_FrameImpl@@QBEIXZ 10003db0 f i id3libD:frame.obj
 0001:00002df0       ?GetDataSize@ID3_Header@@QBEIXZ 10003df0 f i id3libD:frame.obj
 0001:00002e20       ?SetEncryptionID@ID3_FrameImpl@@QAE_NE@Z 10003e20 f i id3libD:frame.obj
 0001:00002ec0       ?SetEncryption@ID3_FrameHeader@@QAE_N_N@Z 10003ec0 f i id3libD:frame.obj
 0001:00002f00       ?GetEncryptionID@ID3_FrameImpl@@QBEEXZ 10003f00 f i id3libD:frame.obj
 0001:00002f30       ?SetGroupingID@ID3_FrameImpl@@QAE_NE@Z 10003f30 f i id3libD:frame.obj
 0001:00002fd0       ?SetGrouping@ID3_FrameHeader@@QAE_N_N@Z 10003fd0 f i id3libD:frame.obj
 0001:00003010       ?GetGroupingID@ID3_FrameImpl@@QBEEXZ 10004010 f i id3libD:frame.obj
 0001:00003040       ?begin@ID3_FrameImpl@@QAEPAPAVID3_Field@@XZ 10004040 f i id3libD:frame.obj
 0001:00003080       ?begin@?$vector@PAVID3_Field@@V?$allocator@PAVID3_Field@@@std@@@std@@QAEPAPAVID3_Field@@XZ 10004080 f i id3libD:frame.obj
 0001:000030b0       ?end@ID3_FrameImpl@@QAEPAPAVID3_Field@@XZ 100040b0 f i id3libD:frame.obj
 0001:000030f0       ?end@?$vector@PAVID3_Field@@V?$allocator@PAVID3_Field@@@std@@@std@@QAEPAPAVID3_Field@@XZ 100040f0 f i id3libD:frame.obj
 0001:00003120       ??0ID3_Tag@@QAE@PBD@Z      10004120 f   id3libD:tag.obj
 0001:000031d0       ??_GID3_Tag@@UAEPAXI@Z     100041d0 f i id3libD:tag.obj
 0001:000031d0       ??_EID3_Tag@@UAEPAXI@Z     100041d0 f i id3libD:tag.obj
 0001:00003230       ??0ID3_Tag@@QAE@ABV0@@Z    10004230 f   id3libD:tag.obj
 0001:000032e0       ??1ID3_Tag@@UAE@XZ         100042e0 f   id3libD:tag.obj
 0001:00003350       ?Clear@ID3_Tag@@QAEXXZ     10004350 f   id3libD:tag.obj
 0001:00003390       ?HasChanged@ID3_Tag@@QBE_NXZ 10004390 f   id3libD:tag.obj
 0001:000033d0       ?Size@ID3_Tag@@QBEIXZ      100043d0 f   id3libD:tag.obj
 0001:00003410       ?SetUnsync@ID3_Tag@@QAE_N_N@Z 10004410 f   id3libD:tag.obj
 0001:00003450       ?SetExtendedHeader@ID3_Tag@@QAE_N_N@Z 10004450 f   id3libD:tag.obj
 0001:00003490       ?SetPadding@ID3_Tag@@QAE_N_N@Z 10004490 f   id3libD:tag.obj
 0001:000034d0       ?SetExperimental@ID3_Tag@@QAE_N_N@Z 100044d0 f   id3libD:tag.obj
 0001:00003510       ?GetUnsync@ID3_Tag@@QBE_NXZ 10004510 f   id3libD:tag.obj
 0001:00003550       ?GetExtendedHeader@ID3_Tag@@QBE_NXZ 10004550 f   id3libD:tag.obj
 0001:00003590       ?GetExperimental@ID3_Tag@@QBE_NXZ 10004590 f   id3libD:tag.obj
 0001:000035d0       ?AddFrame@ID3_Tag@@QAEXABVID3_Frame@@@Z 100045d0 f   id3libD:tag.obj
 0001:00003610       ?AddFrame@ID3_Tag@@QAEXPBVID3_Frame@@@Z 10004610 f   id3libD:tag.obj
 0001:00003650       ?AttachFrame@ID3_Tag@@QAEXPAVID3_Frame@@@Z 10004650 f   id3libD:tag.obj
 0001:00003690       ?RemoveFrame@ID3_Tag@@QAEPAVID3_Frame@@PBV2@@Z 10004690 f   id3libD:tag.obj
 0001:000036d0       ?Parse@ID3_Tag@@QAE_NAAVID3_Reader@@@Z 100046d0 f   id3libD:tag.obj
 0001:00003720       ?Parse@ID3_Tag@@QAEIPBEI@Z 10004720 f   id3libD:tag.obj
 0001:000037d0       ?Parse@ID3_Tag@@QAEIQBEPBE@Z 100047d0 f   id3libD:tag.obj
 0001:000038b0       ?Render@ID3_Tag@@QBEIPAEW4ID3_TagType@@@Z 100048b0 f   id3libD:tag.obj
 0001:00003940       ?Render@ID3_Tag@@QBEIAAVID3_Writer@@W4ID3_TagType@@@Z 10004940 f   id3libD:tag.obj
 0001:00003a50       ?Link@ID3_Tag@@QAEIPBDG@Z  10004a50 f   id3libD:tag.obj
 0001:00003aa0       ?Update@ID3_Tag@@QAEGG@Z   10004aa0 f   id3libD:tag.obj
 0001:00003ae0       ?Strip@ID3_Tag@@QAEGG@Z    10004ae0 f   id3libD:tag.obj
 0001:00003b20       ?GetPrependedBytes@ID3_Tag@@QBEIXZ 10004b20 f   id3libD:tag.obj
 0001:00003b60       ?GetAppendedBytes@ID3_Tag@@QBEIXZ 10004b60 f   id3libD:tag.obj
 0001:00003ba0       ?GetFileSize@ID3_Tag@@QBEIXZ 10004ba0 f   id3libD:tag.obj
 0001:00003be0       ?GetFileName@ID3_Tag@@QBEPBDXZ 10004be0 f   id3libD:tag.obj
 0001:00003c70       ?Find@ID3_Tag@@QBEPAVID3_Frame@@W4ID3_FrameID@@@Z 10004c70 f   id3libD:tag.obj
 0001:00003cb0       ?Find@ID3_Tag@@QBEPAVID3_Frame@@W4ID3_FrameID@@W4ID3_FieldID@@I@Z 10004cb0 f   id3libD:tag.obj
 0001:00003d00       ?Find@ID3_Tag@@QBEPAVID3_Frame@@W4ID3_FrameID@@W4ID3_FieldID@@PBD@Z 10004d00 f   id3libD:tag.obj
 0001:00003db0       ?Find@ID3_Tag@@QBEPAVID3_Frame@@W4ID3_FrameID@@W4ID3_FieldID@@PBG@Z 10004db0 f   id3libD:tag.obj
 0001:00003e70       ?NumFrames@ID3_Tag@@QBEIXZ 10004e70 f   id3libD:tag.obj
 0001:00003eb0       ??4ID3_Tag@@QAEAAV0@ABV0@@Z 10004eb0 f   id3libD:tag.obj
 0001:00003f00       ?HasTagType@ID3_Tag@@QBE_NG@Z 10004f00 f   id3libD:tag.obj
 0001:00003f40       ?GetSpec@ID3_Tag@@QBE?AW4ID3_V2Spec@@XZ 10004f40 f   id3libD:tag.obj
 0001:00003f80       ?SetSpec@ID3_Tag@@QAE_NW4ID3_V2Spec@@@Z 10004f80 f   id3libD:tag.obj
 0001:00003fc0       ?IsV2Tag@ID3_Tag@@SAIPBE@Z 10004fc0 f   id3libD:tag.obj
 0001:00004040       ?IsV2Tag@ID3_Tag@@SAIAAVID3_Reader@@@Z 10005040 f   id3libD:tag.obj
 0001:00004080       ?AddNewFrame@ID3_Tag@@QAEXPAVID3_Frame@@@Z 10005080 f   id3libD:tag.obj
 0001:000040c0       ?AddFrames@ID3_Tag@@QAEXPBVID3_Frame@@I@Z 100050c0 f   id3libD:tag.obj
 0001:00004130       ?Link@ID3_Tag@@QAEIPBD_N1@Z 10005130 f   id3libD:tag.obj
 0001:00004180       ?SetCompression@ID3_Tag@@QAEX_N@Z 10005180 f   id3libD:tag.obj
 0001:000041b0       ?HasLyrics@ID3_Tag@@QBE_NXZ 100051b0 f   id3libD:tag.obj
 0001:000041f0       ?HasV2Tag@ID3_Tag@@QBE_NXZ 100051f0 f   id3libD:tag.obj
 0001:00004230       ?HasV1Tag@ID3_Tag@@QBE_NXZ 10005230 f   id3libD:tag.obj
 0001:00004270       ??6ID3_Tag@@QAEAAV0@ABVID3_Frame@@@Z 10005270 f   id3libD:tag.obj
 0001:000042b0       ??6ID3_Tag@@QAEAAV0@PBVID3_Frame@@@Z 100052b0 f   id3libD:tag.obj
 0001:00004300       ?ID3_IsTagHeader@@YAHQBE@Z 10005300 f   id3libD:tag.obj
 0001:00004350       ?CreateIterator@ID3_Tag@@QAEPAVIterator@1@XZ 10005350 f   id3libD:tag.obj
 0001:000043f0       ??0IteratorImpl@?%c:\dokumente und einstellungen\tw\eigene dateien\projects\tagwriter.dll\vc32\vbid3lib-3.8.0pre1\src\tag.cpp304173324@@QAE@AAVID3_TagImpl@@@Z 100053f0 f i id3libD:tag.obj
 0001:00004460       ?GetNext@IteratorImpl@?%c:\dokumente und einstellungen\tw\eigene dateien\projects\tagwriter.dll\vc32\vbid3lib-3.8.0pre1\src\tag.cpp304173324@@UAEPAVID3_Frame@@XZ 10005460 f i id3libD:tag.obj
 0001:000044e0       ??0Iterator@ID3_Tag@@QAE@XZ 100054e0 f i id3libD:tag.obj
 0001:00004510       ?CreateIterator@ID3_Tag@@QBEPAVConstIterator@1@XZ 10005510 f   id3libD:tag.obj
 0001:000045b0       ??0ConstIteratorImpl@?%c:\dokumente und einstellungen\tw\eigene dateien\projects\tagwriter.dll\vc32\vbid3lib-3.8.0pre1\src\tag.cpp304173324@@QAE@AAVID3_TagImpl@@@Z 100055b0 f i id3libD:tag.obj
 0001:00004630       ?GetNext@ConstIteratorImpl@?%c:\dokumente und einstellungen\tw\eigene dateien\projects\tagwriter.dll\vc32\vbid3lib-3.8.0pre1\src\tag.cpp304173324@@UAEPBVID3_Frame@@XZ 10005630 f i id3libD:tag.obj
 0001:000046b0       ??0ConstIterator@ID3_Tag@@QAE@XZ 100056b0 f i id3libD:tag.obj
 0001:000046e0       ??0ID3_MemoryReader@@QAE@PBEI@Z 100056e0 f i id3libD:tag.obj
 0001:00004740       ?readChar@ID3_Reader@@UAEFXZ 10005740 f i id3libD:tag.obj
 0001:000047c0       ?skipChars@ID3_Reader@@UAEII@Z 100057c0 f i id3libD:tag.obj
 0001:00004890       ?remainingBytes@ID3_Reader@@UAEIXZ 10005890 f i id3libD:tag.obj
 0001:00004910       ?atEnd@ID3_Reader@@UAE_NXZ 10005910 f i id3libD:tag.obj
 0001:00004970       ??0ID3_Reader@@QAE@XZ      10005970 f i id3libD:tag.obj
 0001:000049a0       ?getBeg@ID3_Reader@@UAEIXZ 100059a0 f i id3libD:tag.obj
 0001:000049d0       ?getEnd@ID3_Reader@@UAEIXZ 100059d0 f i id3libD:tag.obj
 0001:00004a00       ?readChars@ID3_Reader@@UAEIQADI@Z 10005a00 f i id3libD:tag.obj
 0001:00004a50       ?setBuffer@ID3_MemoryReader@@IAEXPBEI@Z 10005a50 f i id3libD:tag.obj
 0001:00004aa0       ??1ID3_MemoryReader@@UAE@XZ 10005aa0 f i id3libD:tag.obj
 0001:00004ad0       ?close@ID3_MemoryReader@@UAEXXZ 10005ad0 f i id3libD:tag.obj
 0001:00004b00       ?peekChar@ID3_MemoryReader@@UAEFXZ 10005b00 f i id3libD:tag.obj
 0001:00004b60       ?readChars@ID3_MemoryReader@@UAEIQADI@Z 10005b60 f i id3libD:tag.obj
 0001:00004bb0       ?getCur@ID3_MemoryReader@@UAEIXZ 10005bb0 f i id3libD:tag.obj
 0001:00004be0       ?getBeg@ID3_MemoryReader@@UAEIXZ 10005be0 f i id3libD:tag.obj
 0001:00004c10       ?getEnd@ID3_MemoryReader@@UAEIXZ 10005c10 f i id3libD:tag.obj
 0001:00004c40       ?setCur@ID3_MemoryReader@@UAEII@Z 10005c40 f i id3libD:tag.obj
 0001:00004cd0       ??_GID3_MemoryReader@@UAEPAXI@Z 10005cd0 f i id3libD:tag.obj
 0001:00004cd0       ??_EID3_MemoryReader@@UAEPAXI@Z 10005cd0 f i id3libD:tag.obj
 0001:00004d30       ??0const_iterator@?$list@PAVID3_Frame@@V?$allocator@PAVID3_Frame@@@std@@@std@@QAE@ABViterator@12@@Z 10005d30 f i id3libD:tag.obj
 0001:00004d70       ??Dconst_iterator@?$list@PAVID3_Frame@@V?$allocator@PAVID3_Frame@@@std@@@std@@QBEABQAVID3_Frame@@XZ 10005d70 f i id3libD:tag.obj
 0001:00004db0       ??Econst_iterator@?$list@PAVID3_Frame@@V?$allocator@PAVID3_Frame@@@std@@@std@@QAEAAV012@XZ 10005db0 f i id3libD:tag.obj
 0001:00004e00       ??9const_iterator@?$list@PAVID3_Frame@@V?$allocator@PAVID3_Frame@@@std@@@std@@QBE_NABV012@@Z 10005e00 f i id3libD:tag.obj
 0001:00004e50       ??Diterator@?$list@PAVID3_Frame@@V?$allocator@PAVID3_Frame@@@std@@@std@@QBEAAPAVID3_Frame@@XZ 10005e50 f i id3libD:tag.obj
 0001:00004e90       ??Eiterator@?$list@PAVID3_Frame@@V?$allocator@PAVID3_Frame@@@std@@@std@@QAEAAV012@XZ 10005e90 f i id3libD:tag.obj
 0001:00004ee0       ??9iterator@?$list@PAVID3_Frame@@V?$allocator@PAVID3_Frame@@@std@@@std@@QBE_NABV012@@Z 10005ee0 f i id3libD:tag.obj
 0001:00004f30       ??0?$basic_string@GU?$char_traits@G@std@@V?$allocator@G@2@@std@@QAE@ABV01@@Z 10005f30 f i id3libD:tag.obj
 0001:00004f90       ??1?$basic_string@GU?$char_traits@G@std@@V?$allocator@G@2@@std@@QAE@XZ 10005f90 f i id3libD:tag.obj
 0001:00004fd0       ??0?$basic_string@EU?$char_traits@E@std@@V?$allocator@E@2@@std@@QAE@ABV?$allocator@E@1@@Z 10005fd0 f i id3libD:tag.obj
 0001:00005020       ??1?$basic_string@EU?$char_traits@E@std@@V?$allocator@E@2@@std@@QAE@XZ 10006020 f i id3libD:tag.obj
 0001:00005060       ?append@?$basic_string@EU?$char_traits@E@std@@V?$allocator@E@2@@std@@QAEAAV12@PBEI@Z 10006060 f i id3libD:tag.obj
 0001:00005100       ?data@?$basic_string@EU?$char_traits@E@std@@V?$allocator@E@2@@std@@QBEPBEXZ 10006100 f i id3libD:tag.obj
 0001:00005140       ?size@?$basic_string@EU?$char_traits@E@std@@V?$allocator@E@2@@std@@QBEIXZ 10006140 f i id3libD:tag.obj
 0001:00005170       ?reserve@?$basic_string@EU?$char_traits@E@std@@V?$allocator@E@2@@std@@QAEXI@Z 10006170 f i id3libD:tag.obj
 0001:000051c0       ??0ID3_MemoryWriter@@QAE@QAEI@Z 100061c0 f i id3libD:tag.obj
 0001:00005220       ?getSize@ID3_Writer@@UAEIXZ 10006220 f i id3libD:tag.obj
 0001:00005280       ?getMaxSize@ID3_Writer@@UAEIXZ 10006280 f i id3libD:tag.obj
 0001:000052e0       ?writeChar@ID3_Writer@@UAEFE@Z 100062e0 f i id3libD:tag.obj
 0001:00005360       ?atEnd@ID3_Writer@@UAE_NXZ 10006360 f i id3libD:tag.obj
 0001:000053c0       ??0ID3_Writer@@QAE@XZ      100063c0 f i id3libD:tag.obj
 0001:000053f0       ?getBeg@ID3_Writer@@UAEIXZ 100063f0 f i id3libD:tag.obj
 0001:00005420       ?getEnd@ID3_Writer@@UAEIXZ 10006420 f i id3libD:tag.obj
 0001:00005450       ?writeChars@ID3_Writer@@UAEIQBDI@Z 10006450 f i id3libD:tag.obj
 0001:000054a0       ?setBuffer@ID3_MemoryWriter@@IAEXPAEI@Z 100064a0 f i id3libD:tag.obj
 0001:000054f0       ??1ID3_MemoryWriter@@UAE@XZ 100064f0 f i id3libD:tag.obj
 0001:00005520       ?close@ID3_MemoryWriter@@UAEXXZ 10006520 f i id3libD:tag.obj
 0001:00005550       ?flush@ID3_MemoryWriter@@UAEXXZ 10006550 f i id3libD:tag.obj
 0001:00005580       ?writeChars@ID3_MemoryWriter@@UAEIQBDI@Z 10006580 f i id3libD:tag.obj
 0001:000055d0       ?writeChars@ID3_MemoryWriter@@UAEIQBEI@Z 100065d0 f i id3libD:tag.obj
 0001:00005660       ?getCur@ID3_MemoryWriter@@UAEIXZ 10006660 f i id3libD:tag.obj
 0001:00005690       ?getBeg@ID3_MemoryWriter@@UAEIXZ 10006690 f i id3libD:tag.obj
 0001:000056c0       ?getEnd@ID3_MemoryWriter@@UAEIXZ 100066c0 f i id3libD:tag.obj
 0001:000056f0       ??_GID3_MemoryWriter@@UAEPAXI@Z 100066f0 f i id3libD:tag.obj
 0001:000056f0       ??_EID3_MemoryWriter@@UAEPAXI@Z 100066f0 f i id3libD:tag.obj
 0001:00005750       ?_Next@_Acc@?$list@PAVID3_Frame@@V?$allocator@PAVID3_Frame@@@std@@@std@@SAAAPAU_Node@23@PAU423@@Z 10006750 f i id3libD:tag.obj
 0001:00005780       ?_Value@_Acc@?$list@PAVID3_Frame@@V?$allocator@PAVID3_Frame@@@std@@@std@@SAAAPAVID3_Frame@@PAU_Node@23@@Z 10006780 f i id3libD:tag.obj
 0001:000057b0       ??8const_iterator@?$list@PAVID3_Frame@@V?$allocator@PAVID3_Frame@@@std@@@std@@QBE_NABV012@@Z 100067b0 f i id3libD:tag.obj
 0001:000057f0       ??8iterator@?$list@PAVID3_Frame@@V?$allocator@PAVID3_Frame@@@std@@@std@@QBE_NABV012@@Z 100067f0 f i id3libD:tag.obj
 0001:00005830       ?assign@?$basic_string@GU?$char_traits@G@std@@V?$allocator@G@2@@std@@QAEAAV12@ABV12@II@Z 10006830 f i id3libD:tag.obj
 0001:000059b0       ?copy@?$char_traits@G@std@@SAPAGPAGPBGI@Z 100069b0 f i id3libD:tag.obj
 0001:000059f0       _wmemcpy                   100069f0 f i id3libD:tag.obj
 0001:00005a60       ?_Tidy@?$basic_string@GU?$char_traits@G@std@@V?$allocator@G@2@@std@@AAEX_N@Z 10006a60 f i id3libD:tag.obj
 0001:00005b40       ?c_str@?$basic_string@EU?$char_traits@E@std@@V?$allocator@E@2@@std@@QBEPBEXZ 10006b40 f i id3libD:tag.obj
 0001:00005b90       ?_Eos@?$basic_string@EU?$char_traits@E@std@@V?$allocator@E@2@@std@@AAEXI@Z 10006b90 f i id3libD:tag.obj
 0001:00005bf0       ?_Grow@?$basic_string@EU?$char_traits@E@std@@V?$allocator@E@2@@std@@AAE_NI_N@Z 10006bf0 f i id3libD:tag.obj
 0001:00005d50       ?_Tidy@?$basic_string@EU?$char_traits@E@std@@V?$allocator@E@2@@std@@AAEX_N@Z 10006d50 f i id3libD:tag.obj
 0001:00005e30       ?copy@?$char_traits@E@std@@SAPAEPAEPBEI@Z 10006e30 f i id3libD:tag.obj
 0001:00005ea0       ?erase@?$basic_string@GU?$char_traits@G@std@@V?$allocator@G@2@@std@@QAEAAV12@II@Z 10006ea0 f i id3libD:tag.obj
 0001:00005f70       ?move@?$char_traits@G@std@@SAPAGPAGPBGI@Z 10006f70 f i id3libD:tag.obj
 0001:00005fb0       _wmemmove                  10006fb0 f i id3libD:tag.obj
 0001:00006090       ?c_str@?$basic_string@GU?$char_traits@G@std@@V?$allocator@G@2@@std@@QBEPBGXZ 10007090 f i id3libD:tag.obj
 0001:000060e0       ?size@?$basic_string@GU?$char_traits@G@std@@V?$allocator@G@2@@std@@QBEIXZ 100070e0 f i id3libD:tag.obj
 0001:00006110       ?capacity@?$basic_string@GU?$char_traits@G@std@@V?$allocator@G@2@@std@@QBEIXZ 10007110 f i id3libD:tag.obj
 0001:00006140       ?_Eos@?$basic_string@GU?$char_traits@G@std@@V?$allocator@G@2@@std@@AAEXI@Z 10007140 f i id3libD:tag.obj
 0001:000061a0       ?assign@?$char_traits@G@std@@SAXAAGABG@Z 100071a0 f i id3libD:tag.obj
 0001:000061d0       ?_Grow@?$basic_string@GU?$char_traits@G@std@@V?$allocator@G@2@@std@@AAE_NI_N@Z 100071d0 f i id3libD:tag.obj
 0001:00006330       ?_Refcnt@?$basic_string@GU?$char_traits@G@std@@V?$allocator@G@2@@std@@AAEAAEPBG@Z 10007330 f i id3libD:tag.obj
 0001:00006360       ?deallocate@?$allocator@G@std@@QAEXPAXI@Z 10007360 f i id3libD:tag.obj
 0001:000063a0       ?max_size@?$basic_string@EU?$char_traits@E@std@@V?$allocator@E@2@@std@@QBEIXZ 100073a0 f i id3libD:tag.obj
 0001:00006400       ?_Copy@?$basic_string@EU?$char_traits@E@std@@V?$allocator@E@2@@std@@AAEXI@Z 10007400 f i id3libD:tag.obj
 0001:00006560       ?_Nullstr@?$basic_string@EU?$char_traits@E@std@@V?$allocator@E@2@@std@@CAPBEXZ 10007560 f i id3libD:tag.obj
 0001:00006590       ?_Refcnt@?$basic_string@EU?$char_traits@E@std@@V?$allocator@E@2@@std@@AAEAAEPBE@Z 10007590 f i id3libD:tag.obj
 0001:000065c0       ?deallocate@?$allocator@E@std@@QAEXPAXI@Z 100075c0 f i id3libD:tag.obj
 0001:00006600       ?assign@?$char_traits@E@std@@SAXAAEABE@Z 10007600 f i id3libD:tag.obj
 0001:00006630       ?max_size@?$basic_string@GU?$char_traits@G@std@@V?$allocator@G@2@@std@@QBEIXZ 10007630 f i id3libD:tag.obj
 0001:00006690       ?_Copy@?$basic_string@GU?$char_traits@G@std@@V?$allocator@G@2@@std@@AAEXI@Z 10007690 f i id3libD:tag.obj
 0001:000067f0       ?_Nullstr@?$basic_string@GU?$char_traits@G@std@@V?$allocator@G@2@@std@@CAPBGXZ 100077f0 f i id3libD:tag.obj
 0001:00006820       ?_Split@?$basic_string@GU?$char_traits@G@std@@V?$allocator@G@2@@std@@AAEXXZ 10007820 f i id3libD:tag.obj
 0001:000068b0       ?allocate@?$allocator@E@std@@QAEPAEIPBX@Z 100078b0 f i id3libD:tag.obj
 0001:000068f0       ?max_size@?$allocator@E@std@@QBEIXZ 100078f0 f i id3libD:tag.obj
 0001:00006940       ?assign@?$basic_string@GU?$char_traits@G@std@@V?$allocator@G@2@@std@@QAEAAV12@PBG@Z 10007940 f i id3libD:tag.obj
 0001:00006990       ?length@?$char_traits@G@std@@SAIPBG@Z 10007990 f i id3libD:tag.obj
 0001:000069d0       ?allocate@?$allocator@G@std@@QAEPAGIPBX@Z 100079d0 f i id3libD:tag.obj
 0001:00006a10       ?max_size@?$allocator@G@std@@QBEIXZ 10007a10 f i id3libD:tag.obj
 0001:00006a60       ?assign@?$basic_string@GU?$char_traits@G@std@@V?$allocator@G@2@@std@@QAEAAV12@PBGI@Z 10007a60 f i id3libD:tag.obj
 0001:00006ad0       ??8std@@YA_NABV?$allocator@G@0@0@Z 10007ad0 f i id3libD:tag.obj
 0001:00006b00       ?_Allocate@std@@YAPAEHPAE@Z 10007b00 f i id3libD:tag.obj
 0001:00006b50       ?_Allocate@std@@YAPAGHPAG@Z 10007b50 f i id3libD:tag.obj
 0001:00006c20       ?GetPrependedBytes@ID3_TagImpl@@QBEIXZ 10007c20 f i id3libD:tag.obj
 0001:00006c50       ?GetAppendedBytes@ID3_TagImpl@@QBEIXZ 10007c50 f i id3libD:tag.obj
 0001:00006c80       ?GetFileSize@ID3_TagImpl@@QBEIXZ 10007c80 f i id3libD:tag.obj
 0001:00006cb0       ?GetFileName@ID3_TagImpl@@QBE?AV?$basic_string@DU?$char_traits@D@std@@V?$allocator@D@2@@std@@XZ 10007cb0 f i id3libD:tag.obj
 0001:00006d10       ?NumFrames@ID3_TagImpl@@QBEIXZ 10007d10 f i id3libD:tag.obj
 0001:00006d50       ?size@?$list@PAVID3_Frame@@V?$allocator@PAVID3_Frame@@@std@@@std@@QBEIXZ 10007d50 f i id3libD:tag.obj
 0001:00006d80       ?HasTagType@ID3_TagImpl@@QBE_NG@Z 10007d80 f i id3libD:tag.obj
 0001:00006dc0       ?begin@ID3_TagImpl@@QAE?AViterator@?$list@PAVID3_Frame@@V?$allocator@PAVID3_Frame@@@std@@@std@@XZ 10007dc0 f i id3libD:tag.obj
 0001:00006e10       ?begin@?$list@PAVID3_Frame@@V?$allocator@PAVID3_Frame@@@std@@@std@@QAE?AViterator@12@XZ 10007e10 f i id3libD:tag.obj
 0001:00006e70       ??0iterator@?$list@PAVID3_Frame@@V?$allocator@PAVID3_Frame@@@std@@@std@@QAE@PAU_Node@12@@Z 10007e70 f i id3libD:tag.obj
 0001:00006eb0       ??0const_iterator@?$list@PAVID3_Frame@@V?$allocator@PAVID3_Frame@@@std@@@std@@QAE@PAU_Node@12@@Z 10007eb0 f i id3libD:tag.obj
 0001:00006ef0       ?end@ID3_TagImpl@@QAE?AViterator@?$list@PAVID3_Frame@@V?$allocator@PAVID3_Frame@@@std@@@std@@XZ 10007ef0 f i id3libD:tag.obj
 0001:00006f40       ?end@?$list@PAVID3_Frame@@V?$allocator@PAVID3_Frame@@@std@@@std@@QAE?AViterator@12@XZ 10007f40 f i id3libD:tag.obj
 0001:00006f90       ??0ID3_FrameImpl@@QAE@W4ID3_FrameID@@@Z 10007f90 f   id3libD:frame_impl.obj
 0001:00007050       ??_GID3_FrameImpl@@UAEPAXI@Z 10008050 f i id3libD:frame_impl.obj
 0001:00007050       ??_EID3_FrameImpl@@UAEPAXI@Z 10008050 f i id3libD:frame_impl.obj
 0001:000070b0       ??0ID3_FrameImpl@@QAE@ABVID3_FrameHeader@@@Z 100080b0 f   id3libD:frame_impl.obj
 0001:00007170       ??0ID3_FrameHeader@@QAE@ABV0@@Z 10008170 f i id3libD:frame_impl.obj
 0001:000071d0       ??0ID3_Header@@QAE@ABV0@@Z 100081d0 f i id3libD:frame_impl.obj
 0001:00007250       ??0ID3_Flags@@QAE@ABV0@@Z  10008250 f i id3libD:frame_impl.obj
 0001:00007290       ??0ID3_FrameImpl@@QAE@ABVID3_Frame@@@Z 10008290 f   id3libD:frame_impl.obj
 0001:00007350       ??1ID3_FrameImpl@@UAE@XZ   10008350 f   id3libD:frame_impl.obj
 0001:000073e0       ?_ClearFields@ID3_FrameImpl@@IAE_NXZ 100083e0 f   id3libD:frame_impl.obj
 0001:000074a0       ?Clear@ID3_FrameImpl@@QAEXXZ 100084a0 f   id3libD:frame_impl.obj
 0001:00007500       ?_InitFields@ID3_FrameImpl@@IAEXXZ 10008500 f   id3libD:frame_impl.obj
 0001:000076a0       ?SetID@ID3_FrameImpl@@QAE_NW4ID3_FrameID@@@Z 100086a0 f   id3libD:frame_impl.obj
 0001:00007710       ?_SetID@ID3_FrameImpl@@IAE_NW4ID3_FrameID@@@Z 10008710 f   id3libD:frame_impl.obj
 0001:000077a0       ?SetSpec@ID3_FrameImpl@@QAE_NW4ID3_V2Spec@@@Z 100087a0 f   id3libD:frame_impl.obj
 0001:000077f0       ?GetSpec@ID3_FrameImpl@@QBE?AW4ID3_V2Spec@@XZ 100087f0 f   id3libD:frame_impl.obj
 0001:00007830       ?GetField@ID3_FrameImpl@@QBEPAVID3_Field@@W4ID3_FieldID@@@Z 10008830 f   id3libD:frame_impl.obj
 0001:000078e0       ?NumFields@ID3_FrameImpl@@QBEIXZ 100088e0 f   id3libD:frame_impl.obj
 0001:00007920       ?Size@ID3_FrameImpl@@QAEIXZ 10008920 f   id3libD:frame_impl.obj
 0001:00007aa0       ?HasChanged@ID3_FrameImpl@@QBE_NXZ 10008aa0 f   id3libD:frame_impl.obj
 0001:00007b60       ??4ID3_FrameImpl@@QAEAAV0@ABVID3_Frame@@@Z 10008b60 f   id3libD:frame_impl.obj
 0001:00007c80       ?GetDescription@ID3_FrameImpl@@SAPBDW4ID3_FrameID@@@Z 10008c80 f   id3libD:frame_impl.obj
 0001:00007cd0       ?GetDescription@ID3_FrameImpl@@QBEPBDXZ 10008cd0 f   id3libD:frame_impl.obj
 0001:00007d20       ??0?$vector@PAVID3_Field@@V?$allocator@PAVID3_Field@@@std@@@std@@QAE@ABV?$allocator@PAVID3_Field@@@1@@Z 10008d20 f i id3libD:frame_impl.obj
 0001:00007d80       ??1?$vector@PAVID3_Field@@V?$allocator@PAVID3_Field@@@std@@@std@@QAE@XZ 10008d80 f i id3libD:frame_impl.obj
 0001:00007e10       ?begin@?$vector@PAVID3_Field@@V?$allocator@PAVID3_Field@@@std@@@std@@QBEPBQAVID3_Field@@XZ 10008e10 f i id3libD:frame_impl.obj
 0001:00007e40       ?end@?$vector@PAVID3_Field@@V?$allocator@PAVID3_Field@@@std@@@std@@QBEPBQAVID3_Field@@XZ 10008e40 f i id3libD:frame_impl.obj
 0001:00007e70       ?size@?$vector@PAVID3_Field@@V?$allocator@PAVID3_Field@@@std@@@std@@QBEIXZ 10008e70 f i id3libD:frame_impl.obj
 0001:00007ec0       ?push_back@?$vector@PAVID3_Field@@V?$allocator@PAVID3_Field@@@std@@@std@@QAEXABQAVID3_Field@@@Z 10008ec0 f i id3libD:frame_impl.obj
 0001:00007f10       ?clear@?$vector@PAVID3_Field@@V?$allocator@PAVID3_Field@@@std@@@std@@QAEXXZ 10008f10 f i id3libD:frame_impl.obj
 0001:00007f60       ??0?$bitset@$0BI@@std@@QAE@XZ 10008f60 f i id3libD:frame_impl.obj
 0001:00007fa0       ?set@?$bitset@$0BI@@std@@QAEAAV12@I_N@Z 10008fa0 f i id3libD:frame_impl.obj
 0001:00008050       ?reset@?$bitset@$0BI@@std@@QAEAAV12@XZ 10009050 f i id3libD:frame_impl.obj
 0001:00008090       ?insert@?$vector@PAVID3_Field@@V?$allocator@PAVID3_Field@@@std@@@std@@QAEPAPAVID3_Field@@PAPAV3@ABQAV3@@Z 10009090 f i id3libD:frame_impl.obj
 0001:00008100       ?erase@?$vector@PAVID3_Field@@V?$allocator@PAVID3_Field@@@std@@@std@@QAEPAPAVID3_Field@@PAPAV3@0@Z 10009100 f i id3libD:frame_impl.obj
 0001:00008170       ?_Destroy@?$vector@PAVID3_Field@@V?$allocator@PAVID3_Field@@@std@@@std@@IAEXPAPAVID3_Field@@0@Z 10009170 f i id3libD:frame_impl.obj
 0001:000081d0       ?deallocate@?$allocator@PAVID3_Field@@@std@@QAEXPAXI@Z 100091d0 f i id3libD:frame_impl.obj
 0001:00008210       ?_Tidy@?$bitset@$0BI@@std@@AAEXK@Z 10009210 f i id3libD:frame_impl.obj
 0001:00008280       ?insert@?$vector@PAVID3_Field@@V?$allocator@PAVID3_Field@@@std@@@std@@QAEXPAPAVID3_Field@@IABQAV3@@Z 10009280 f i id3libD:frame_impl.obj
 0001:000084c0       ?destroy@?$allocator@PAVID3_Field@@@std@@QAEXPAPAVID3_Field@@@Z 100094c0 f i id3libD:frame_impl.obj
 0001:00008500       ?_Trim@?$bitset@$0BI@@std@@AAEXXZ 10009500 f i id3libD:frame_impl.obj
 0001:00008540       ?_Ucopy@?$vector@PAVID3_Field@@V?$allocator@PAVID3_Field@@@std@@@std@@IAEPAPAVID3_Field@@PBQAV3@0PAPAV3@@Z 10009540 f i id3libD:frame_impl.obj
 0001:000085b0       ?_Ufill@?$vector@PAVID3_Field@@V?$allocator@PAVID3_Field@@@std@@@std@@IAEXPAPAVID3_Field@@IABQAV3@@Z 100095b0 f i id3libD:frame_impl.obj
 0001:00008620       ?allocate@?$allocator@PAVID3_Field@@@std@@QAEPAPAVID3_Field@@IPBX@Z 10009620 f i id3libD:frame_impl.obj
 0001:00008660       ?construct@?$allocator@PAVID3_Field@@@std@@QAEXPAPAVID3_Field@@ABQAV3@@Z 10009660 f i id3libD:frame_impl.obj
 0001:000086a0       ?copy@std@@YAPAPAVID3_Field@@PAPAV2@00@Z 100096a0 f i id3libD:frame_impl.obj
 0001:00008700       ?fill@std@@YAXPAPAVID3_Field@@0ABQAV2@@Z 10009700 f i id3libD:frame_impl.obj
 0001:00008750       ?copy_backward@std@@YAPAPAVID3_Field@@PAPAV2@00@Z 10009750 f i id3libD:frame_impl.obj
 0001:000087a0       ?_Destroy@std@@YAXPAPAVID3_Field@@@Z 100097a0 f i id3libD:frame_impl.obj
 0001:000087c0       ?_Allocate@std@@YAPAPAVID3_Field@@HPAPAV2@@Z 100097c0 f i id3libD:frame_impl.obj
 0001:00008810       ?_Construct@std@@YAXPAPAVID3_Field@@ABQAV2@@Z 10009810 f i id3libD:frame_impl.obj
 0001:00008870       ??2@YAPAXIPAX@Z            10009870 f i id3libD:frame_impl.obj
 0001:00008920       ??_EID3_Flags@@UAEPAXI@Z   10009920 f i id3libD:frame_impl.obj
 0001:00008920       ??_GID3_Flags@@UAEPAXI@Z   10009920 f i id3libD:frame_impl.obj
 0001:00008980       ??1ID3_Flags@@UAE@XZ       10009980 f i id3libD:frame_impl.obj
 0001:000089b0       ?GetSpec@ID3_Header@@QBE?AW4ID3_V2Spec@@XZ 100099b0 f i id3libD:frame_impl.obj
 0001:000089e0       ?Clear@ID3_Header@@UAE_NXZ 100099e0 f i id3libD:frame_impl.obj
 0001:00008ab0       ?clear@ID3_Flags@@QAE_NXZ  10009ab0 f i id3libD:frame_impl.obj
 0001:00008af0       ?SetDataSize@ID3_Header@@QAE_NI@Z 10009af0 f i id3libD:frame_impl.obj
 0001:00008b70       ??_GID3_Header@@UAEPAXI@Z  10009b70 f i id3libD:frame_impl.obj
 0001:00008b70       ??_EID3_Header@@UAEPAXI@Z  10009b70 f i id3libD:frame_impl.obj
 0001:00008bd0       ??1ID3_Header@@UAE@XZ      10009bd0 f i id3libD:frame_impl.obj
 0001:00008c20       ??0ID3_FrameHeader@@QAE@XZ 10009c20 f i id3libD:frame_impl.obj
 0001:00008c80       ??0ID3_Header@@QAE@XZ      10009c80 f i id3libD:frame_impl.obj
 0001:00008d20       ??0ID3_Flags@@QAE@XZ       10009d20 f i id3libD:frame_impl.obj
 0001:00008d60       ??1ID3_FrameHeader@@UAE@XZ 10009d60 f i id3libD:frame_impl.obj
 0001:00008de0       ??_EID3_FrameHeader@@UAEPAXI@Z 10009de0 f i id3libD:frame_impl.obj
 0001:00008de0       ??_GID3_FrameHeader@@UAEPAXI@Z 10009de0 f i id3libD:frame_impl.obj
 0001:00008e40       ?parseFields@?%c:\dokumente und einstellungen\tw\eigene dateien\projects\tagwriter.dll\vc32\vbid3lib-3.8.0pre1\src\frame_parse.cpp214631435@@YA_NAAVID3_Reader@@AAVID3_FrameImpl@@@Z 10009e40 f   id3libD:frame_parse.obj
 0001:00009070       ?Parse@ID3_FrameImpl@@QAE_NAAVID3_Reader@@@Z 1000a070 f   id3libD:frame_parse.obj
 0001:00009350       ?GetEncryption@ID3_FrameHeader@@QBE_NXZ 1000a350 f i id3libD:frame_parse.obj
 0001:00009390       ?GetGrouping@ID3_FrameHeader@@QBE_NXZ 1000a390 f i id3libD:frame_parse.obj
 0001:000093d0       ??0ExitTrigger@io@dami@@QAE@AAVID3_Reader@@@Z 1000a3d0 f i id3libD:frame_parse.obj
 0001:00009440       ??1ExitTrigger@io@dami@@UAE@XZ 1000a440 f i id3libD:frame_parse.obj
 0001:000094b0       ?setExitPos@ExitTrigger@io@dami@@QAEXI@Z 1000a4b0 f i id3libD:frame_parse.obj
 0001:000094e0       ??_GExitTrigger@io@dami@@UAEPAXI@Z 1000a4e0 f i id3libD:frame_parse.obj
 0001:000094e0       ??_EExitTrigger@io@dami@@UAEPAXI@Z 1000a4e0 f i id3libD:frame_parse.obj
 0001:00009540       ??0WindowedReader@io@dami@@QAE@AAVID3_Reader@@I@Z 1000a540 f i id3libD:frame_parse.obj
 0001:000095e0       ?setCur@WindowedReader@io@dami@@UAEII@Z 1000a5e0 f i id3libD:frame_parse.obj
 0001:00009670       ?mid@dami@@YAABIABI00@Z    1000a670 f i id3libD:frame_parse.obj
 0001:000096c0       ?min@dami@@YAABIABI0@Z     1000a6c0 f i id3libD:frame_parse.obj
 0001:00009710       ?max@dami@@YAABIABI0@Z     1000a710 f i id3libD:frame_parse.obj
 0001:00009760       ?getCur@WindowedReader@io@dami@@UAEIXZ 1000a760 f i id3libD:frame_parse.obj
 0001:000097b0       ?getBeg@WindowedReader@io@dami@@UAEIXZ 1000a7b0 f i id3libD:frame_parse.obj
 0001:000097e0       ?getEnd@WindowedReader@io@dami@@UAEIXZ 1000a7e0 f i id3libD:frame_parse.obj
 0001:00009810       ?readChars@WindowedReader@io@dami@@UAEIQADI@Z 1000a810 f i id3libD:frame_parse.obj
 0001:00009860       ?close@WindowedReader@io@dami@@UAEXXZ 1000a860 f i id3libD:frame_parse.obj
 0001:00009890       ?renderFields@?%c:\dokumente und einstellungen\tw\eigene dateien\projects\tagwriter.dll\vc32\vbid3lib-3.8.0pre1\src\frame_render.cpp23017169@@YAXAAVID3_Writer@@ABVID3_FrameImpl@@@Z 1000a890 f   id3libD:frame_render.obj
 0001:000099a0       ?Render@ID3_FrameImpl@@QBEXAAVID3_Writer@@@Z 1000a9a0 f   id3libD:frame_render.obj
 0001:00009c80       ??0?$basic_string@DU?$char_traits@D@std@@V?$allocator@D@2@@std@@QAE@ABV?$allocator@D@1@@Z 1000ac80 f i id3libD:frame_render.obj
 0001:00009cd0       ?data@?$basic_string@DU?$char_traits@D@std@@V?$allocator@D@2@@std@@QBEPBDXZ 1000acd0 f i id3libD:frame_render.obj
 0001:00009d90       ?begin@ID3_FrameImpl@@QBEPBQAVID3_Field@@XZ 1000ad90 f i id3libD:frame_render.obj
 0001:00009dd0       ?end@ID3_FrameImpl@@QBEPBQAVID3_Field@@XZ 1000add0 f i id3libD:frame_render.obj
 0001:00009e10       ??0CompressedWriter@io@dami@@QAE@AAVID3_Writer@@@Z 1000ae10 f i id3libD:frame_render.obj
 0001:00009e80       ??1CompressedWriter@io@dami@@UAE@XZ 1000ae80 f i id3libD:frame_render.obj
 0001:00009f00       ?getOrigSize@CompressedWriter@io@dami@@QBEIXZ 1000af00 f i id3libD:frame_render.obj
 0001:00009f30       ?writeChars@CompressedWriter@io@dami@@UAEIQBDI@Z 1000af30 f i id3libD:frame_render.obj
 0001:00009f80       ?getCur@CompressedWriter@io@dami@@UAEIXZ 1000af80 f i id3libD:frame_render.obj
 0001:00009fc0       ?close@CompressedWriter@io@dami@@UAEXXZ 1000afc0 f i id3libD:frame_render.obj
 0001:00009ff0       ??_ECompressedWriter@io@dami@@UAEPAXI@Z 1000aff0 f i id3libD:frame_render.obj
 0001:00009ff0       ??_GCompressedWriter@io@dami@@UAEPAXI@Z 1000aff0 f i id3libD:frame_render.obj
 0001:0000a050       ??0StringWriter@io@dami@@QAE@AAV?$basic_string@DU?$char_traits@D@std@@V?$allocator@D@2@@std@@@Z 1000b050 f i id3libD:frame_render.obj
 0001:0000a0a0       ??1StringWriter@io@dami@@UAE@XZ 1000b0a0 f i id3libD:frame_render.obj
 0001:0000a0d0       ?close@StringWriter@io@dami@@UAEXXZ 1000b0d0 f i id3libD:frame_render.obj
 0001:0000a100       ?flush@StringWriter@io@dami@@UAEXXZ 1000b100 f i id3libD:frame_render.obj
 0001:0000a130       ?writeChars@StringWriter@io@dami@@UAEIQBDI@Z 1000b130 f i id3libD:frame_render.obj
 0001:0000a180       ?append@?$basic_string@DU?$char_traits@D@std@@V?$allocator@D@2@@std@@QAEAAV12@PBDI@Z 1000b180 f i id3libD:frame_render.obj
 0001:0000a220       ?writeChars@StringWriter@io@dami@@UAEIQBEI@Z 1000b220 f i id3libD:frame_render.obj
 0001:0000a270       ?getCur@StringWriter@io@dami@@UAEIXZ 1000b270 f i id3libD:frame_render.obj
 0001:0000a2b0       ??_EStringWriter@io@dami@@UAEPAXI@Z 1000b2b0 f i id3libD:frame_render.obj
 0001:0000a2b0       ??_GStringWriter@io@dami@@UAEPAXI@Z 1000b2b0 f i id3libD:frame_render.obj
 0001:0000a310       ?SetUnknownFrame@ID3_FrameHeader@@IAEXPBD@Z 1000b310 f   id3libD:header_frame.obj
 0001:0000a430       ?SetFrameID@ID3_FrameHeader@@QAE_NW4ID3_FrameID@@@Z 1000b430 f   id3libD:header_frame.obj
 0001:0000a4d0       ?Size@ID3_FrameHeader@@UBEIXZ 1000b4d0 f   id3libD:header_frame.obj
 0001:0000a530       ?Parse@ID3_FrameHeader@@UAE_NAAVID3_Reader@@@Z 1000b530 f   id3libD:header_frame.obj
 0001:0000a700       ?Render@ID3_FrameHeader@@UBEXAAVID3_Writer@@@Z 1000b700 f   id3libD:header_frame.obj
 0001:0000a7f0       ?GetTextID@ID3_FrameHeader@@QBEPBDXZ 1000b7f0 f   id3libD:header_frame.obj
 0001:0000a880       ??4ID3_FrameHeader@@QAEAAV0@ABV0@@Z 1000b880 f   id3libD:header_frame.obj
 0001:0000a9a0       ??4ID3_Header@@QAEAAV0@ABV0@@Z 1000b9a0 f i id3libD:header_frame.obj
 0001:0000aa20       ??4ID3_Flags@@QAEAAV0@ABV0@@Z 1000ba20 f i id3libD:header_frame.obj
 0001:0000aa70       ?GetFrameID@ID3_FrameHeader@@QBE?AW4ID3_FrameID@@XZ 1000ba70 f   id3libD:header_frame.obj
 0001:0000aac0       ?GetFrameDef@ID3_FrameHeader@@QBEPBUID3_FrameDef@@XZ 1000bac0 f   id3libD:header_frame.obj
 0001:0000aaf0       ?Clear@ID3_FrameHeader@@UAE_NXZ 1000baf0 f   id3libD:header_frame.obj
 0001:0000abf0       ?IsV2Tag@ID3_TagImpl@@SAIAAVID3_Reader@@@Z 1000bbf0 f   id3libD:tag_impl.obj
 0001:0000ae80       ??0ID3_TagImpl@@QAE@PBD@Z  1000be80 f   id3libD:tag_impl.obj
 0001:0000afa0       ??_GID3_TagImpl@@UAEPAXI@Z 1000bfa0 f i id3libD:tag_impl.obj
 0001:0000afa0       ??_EID3_TagImpl@@UAEPAXI@Z 1000bfa0 f i id3libD:tag_impl.obj
 0001:0000b000       ??0ID3_TagImpl@@QAE@ABVID3_Tag@@@Z 1000c000 f   id3libD:tag_impl.obj
 0001:0000b110       ??1ID3_TagImpl@@UAE@XZ     1000c110 f   id3libD:tag_impl.obj
 0001:0000b1d0       ?Clear@ID3_TagImpl@@QAEXXZ 1000c1d0 f   id3libD:tag_impl.obj
 0001:0000b310       ?AddFrame@ID3_TagImpl@@QAEXABVID3_Frame@@@Z 1000c310 f   id3libD:tag_impl.obj
 0001:0000b350       ?AddFrame@ID3_TagImpl@@QAEXPBVID3_Frame@@@Z 1000c350 f   id3libD:tag_impl.obj
 0001:0000b400       ?AttachFrame@ID3_TagImpl@@QAEXPAVID3_Frame@@@Z 1000c400 f   id3libD:tag_impl.obj
 0001:0000b470       ?RemoveFrame@ID3_TagImpl@@QAEPAVID3_Frame@@PBV2@@Z 1000c470 f   id3libD:tag_impl.obj
 0001:0000b520       ?HasChanged@ID3_TagImpl@@QBE_NXZ 1000c520 f   id3libD:tag_impl.obj
 0001:0000b5e0       ?SetSpec@ID3_TagImpl@@QAE_NW4ID3_V2Spec@@@Z 1000c5e0 f   id3libD:tag_impl.obj
 0001:0000b670       ?GetSpec@ID3_TagImpl@@QBE?AW4ID3_V2Spec@@XZ 1000c670 f   id3libD:tag_impl.obj
 0001:0000b6b0       ?SetUnsync@ID3_TagImpl@@QAE_N_N@Z 1000c6b0 f   id3libD:tag_impl.obj
 0001:0000b730       ?SetExtended@ID3_TagImpl@@QAE_N_N@Z 1000c730 f   id3libD:tag_impl.obj
 0001:0000b7b0       ?SetExperimental@ID3_TagImpl@@QAE_N_N@Z 1000c7b0 f   id3libD:tag_impl.obj
 0001:0000b830       ?GetUnsync@ID3_TagImpl@@QBE_NXZ 1000c830 f   id3libD:tag_impl.obj
 0001:0000b870       ?GetExtended@ID3_TagImpl@@QBE_NXZ 1000c870 f   id3libD:tag_impl.obj
 0001:0000b8b0       ?GetExperimental@ID3_TagImpl@@QBE_NXZ 1000c8b0 f   id3libD:tag_impl.obj
 0001:0000b8f0       ?SetPadding@ID3_TagImpl@@QAE_N_N@Z 1000c8f0 f   id3libD:tag_impl.obj
 0001:0000b980       ??4ID3_TagImpl@@QAEAAV0@ABVID3_Tag@@@Z 1000c980 f   id3libD:tag_impl.obj
 0001:0000baa0       ?ID3_GetDataSize@@YAIABVID3_TagImpl@@@Z 1000caa0 f   id3libD:tag_impl.obj
 0001:0000baf0       ??A?$basic_string@DU?$char_traits@D@std@@V?$allocator@D@2@@std@@QAEAADI@Z 1000caf0 f i id3libD:tag_impl.obj
 0001:0000bb50       ??0ID3_TagHeader@@QAE@XZ   1000cb50 f i id3libD:tag_impl.obj
 0001:0000bba0       ??1ID3_TagHeader@@UAE@XZ   1000cba0 f i id3libD:tag_impl.obj
 0001:0000bbe0       ?SetUnsync@ID3_TagHeader@@QAE_N_N@Z 1000cbe0 f i id3libD:tag_impl.obj
 0001:0000bc60       ?GetUnsync@ID3_TagHeader@@QBE_NXZ 1000cc60 f i id3libD:tag_impl.obj
 0001:0000bca0       ?SetExtended@ID3_TagHeader@@QAE_N_N@Z 1000cca0 f i id3libD:tag_impl.obj
 0001:0000bd20       ?GetExtended@ID3_TagHeader@@QBE_NXZ 1000cd20 f i id3libD:tag_impl.obj
 0001:0000bd60       ?SetExperimental@ID3_TagHeader@@QAE_N_N@Z 1000cd60 f i id3libD:tag_impl.obj
 0001:0000bde0       ?GetExperimental@ID3_TagHeader@@QBE_NXZ 1000cde0 f i id3libD:tag_impl.obj
 0001:0000be20       ??_EID3_TagHeader@@UAEPAXI@Z 1000ce20 f i id3libD:tag_impl.obj
 0001:0000be20       ??_GID3_TagHeader@@UAEPAXI@Z 1000ce20 f i id3libD:tag_impl.obj
 0001:0000be80       ??0?$list@PAVID3_Frame@@V?$allocator@PAVID3_Frame@@@std@@@std@@QAE@ABV?$allocator@PAVID3_Frame@@@1@@Z 1000ce80 f i id3libD:tag_impl.obj
 0001:0000bee0       ??1?$list@PAVID3_Frame@@V?$allocator@PAVID3_Frame@@@std@@@std@@QAE@XZ 1000cee0 f i id3libD:tag_impl.obj
 0001:0000bf60       ?begin@?$list@PAVID3_Frame@@V?$allocator@PAVID3_Frame@@@std@@@std@@QBE?AVconst_iterator@12@XZ 1000cf60 f i id3libD:tag_impl.obj
 0001:0000bfc0       ?end@?$list@PAVID3_Frame@@V?$allocator@PAVID3_Frame@@@std@@@std@@QBE?AVconst_iterator@12@XZ 1000cfc0 f i id3libD:tag_impl.obj
 0001:0000c010       ?push_back@?$list@PAVID3_Frame@@V?$allocator@PAVID3_Frame@@@std@@@std@@QAEXABQAVID3_Frame@@@Z 1000d010 f i id3libD:tag_impl.obj
 0001:0000c060       ?erase@?$list@PAVID3_Frame@@V?$allocator@PAVID3_Frame@@@std@@@std@@QAE?AViterator@12@V312@@Z 1000d060 f i id3libD:tag_impl.obj
 0001:0000c140       ?clear@?$list@PAVID3_Frame@@V?$allocator@PAVID3_Frame@@@std@@@std@@QAEXXZ 1000d140 f i id3libD:tag_impl.obj
 0001:0000c1a0       ?_Freeze@?$basic_string@DU?$char_traits@D@std@@V?$allocator@D@2@@std@@AAEXXZ 1000d1a0 f i id3libD:tag_impl.obj
 0001:0000c240       ?insert@?$list@PAVID3_Frame@@V?$allocator@PAVID3_Frame@@@std@@@std@@QAE?AViterator@12@V312@ABQAVID3_Frame@@@Z 1000d240 f i id3libD:tag_impl.obj
 0001:0000c320       ?erase@?$list@PAVID3_Frame@@V?$allocator@PAVID3_Frame@@@std@@@std@@QAE?AViterator@12@V312@0@Z 1000d320 f i id3libD:tag_impl.obj
 0001:0000c390       ?_Buynode@?$list@PAVID3_Frame@@V?$allocator@PAVID3_Frame@@@std@@@std@@IAEPAU_Node@12@PAU312@0@Z 1000d390 f i id3libD:tag_impl.obj
 0001:0000c420       ?_Freenode@?$list@PAVID3_Frame@@V?$allocator@PAVID3_Frame@@@std@@@std@@IAEXPAU_Node@12@@Z 1000d420 f i id3libD:tag_impl.obj
 0001:0000c460       ?_Prev@_Acc@?$list@PAVID3_Frame@@V?$allocator@PAVID3_Frame@@@std@@@std@@SAAAPAU_Node@23@PAU423@@Z 1000d460 f i id3libD:tag_impl.obj
 0001:0000c490       ?destroy@?$allocator@PAVID3_Frame@@@std@@QAEXPAPAVID3_Frame@@@Z 1000d490 f i id3libD:tag_impl.obj
 0001:0000c4d0       ?_Mynode@const_iterator@?$list@PAVID3_Frame@@V?$allocator@PAVID3_Frame@@@std@@@std@@QBEPAU_Node@23@XZ 1000d4d0 f i id3libD:tag_impl.obj
 0001:0000c500       ??Eiterator@?$list@PAVID3_Frame@@V?$allocator@PAVID3_Frame@@@std@@@std@@QAE?AV012@H@Z 1000d500 f i id3libD:tag_impl.obj
 0001:0000c550       ?_Charalloc@?$allocator@PAVID3_Frame@@@std@@QAEPADI@Z 1000d550 f i id3libD:tag_impl.obj
 0001:0000c590       ?deallocate@?$allocator@PAVID3_Frame@@@std@@QAEXPAXI@Z 1000d590 f i id3libD:tag_impl.obj
 0001:0000c5d0       ?construct@?$allocator@PAVID3_Frame@@@std@@QAEXPAPAVID3_Frame@@ABQAV3@@Z 1000d5d0 f i id3libD:tag_impl.obj
 0001:0000c610       ??8std@@YA_NABV?$basic_string@DU?$char_traits@D@std@@V?$allocator@D@2@@0@PBD@Z 1000d610 f i id3libD:tag_impl.obj
 0001:0000c650       ??9std@@YA_NABV?$basic_string@DU?$char_traits@D@std@@V?$allocator@D@2@@0@PBD@Z 1000d650 f i id3libD:tag_impl.obj
 0001:0000c6a0       ?_Destroy@std@@YAXPAPAVID3_Frame@@@Z 1000d6a0 f i id3libD:tag_impl.obj
 0001:0000c6c0       ?_Construct@std@@YAXPAPAVID3_Frame@@ABQAV2@@Z 1000d6c0 f i id3libD:tag_impl.obj
 0001:0000c720       ?compare@?$basic_string@DU?$char_traits@D@std@@V?$allocator@D@2@@std@@QBEHPBD@Z 1000d720 f i id3libD:tag_impl.obj
 0001:0000c780       ?compare@?$basic_string@DU?$char_traits@D@std@@V?$allocator@D@2@@std@@QBEHIIPBDI@Z 1000d780 f i id3libD:tag_impl.obj
 0001:0000c850       ?compare@?$char_traits@D@std@@SAHPBD0I@Z 1000d850 f i id3libD:tag_impl.obj
 0001:0000c890       ?_Psum@?$basic_string@DU?$char_traits@D@std@@V?$allocator@D@2@@std@@CAPADPADI@Z 1000d890 f i id3libD:tag_impl.obj
 0001:0000c950       ??0StringReader@io@dami@@QAE@ABV?$basic_string@DU?$char_traits@D@std@@V?$allocator@D@2@@std@@@Z 1000d950 f i id3libD:tag_impl.obj
 0001:0000c9b0       ??1StringReader@io@dami@@UAE@XZ 1000d9b0 f i id3libD:tag_impl.obj
 0001:0000c9e0       ?close@StringReader@io@dami@@UAEXXZ 1000d9e0 f i id3libD:tag_impl.obj
 0001:0000ca10       ?peekChar@StringReader@io@dami@@UAEFXZ 1000da10 f i id3libD:tag_impl.obj
 0001:0000ca80       ??A?$basic_string@DU?$char_traits@D@std@@V?$allocator@D@2@@std@@QBEABDI@Z 1000da80 f i id3libD:tag_impl.obj
 0001:0000cad0       ?readChars@StringReader@io@dami@@UAEIQADI@Z 1000dad0 f i id3libD:tag_impl.obj
 0001:0000cb20       ?readChars@StringReader@io@dami@@UAEIQAEI@Z 1000db20 f i id3libD:tag_impl.obj
 0001:0000cbb0       ?copy@?$basic_string@DU?$char_traits@D@std@@V?$allocator@D@2@@std@@QBEIPADII@Z 1000dbb0 f i id3libD:tag_impl.obj
 0001:0000cc30       ?getCur@StringReader@io@dami@@UAEIXZ 1000dc30 f i id3libD:tag_impl.obj
 0001:0000cc60       ?getBeg@StringReader@io@dami@@UAEIXZ 1000dc60 f i id3libD:tag_impl.obj
 0001:0000cc90       ?getEnd@StringReader@io@dami@@UAEIXZ 1000dc90 f i id3libD:tag_impl.obj
 0001:0000ccd0       ?setCur@StringReader@io@dami@@UAEII@Z 1000dcd0 f i id3libD:tag_impl.obj
 0001:0000cd40       ?atEnd@StringReader@io@dami@@UAE_NXZ 1000dd40 f i id3libD:tag_impl.obj
 0001:0000cd90       ?skipChars@StringReader@io@dami@@UAEII@Z 1000dd90 f i id3libD:tag_impl.obj
 0001:0000ce00       ??_GStringReader@io@dami@@UAEPAXI@Z 1000de00 f i id3libD:tag_impl.obj
 0001:0000ce00       ??_EStringReader@io@dami@@UAEPAXI@Z 1000de00 f i id3libD:tag_impl.obj
 0001:0000ce60       ?render@v1@id3@dami@@YAXAAVID3_Writer@@ABVID3_TagImpl@@@Z 1000de60 f   id3libD:tag_render.obj
 0001:0000d040       ?renderFrames@?%c:\dokumente und einstellungen\tw\eigene dateien\projects\tagwriter.dll\vc32\vbid3lib-3.8.0pre1\src\tag_render.cpp3272417283@@YAXAAVID3_Writer@@ABVID3_TagImpl@@@Z 1000e040 f   id3libD:tag_render.obj
 0001:0000d0d0       ?render@v2@id3@dami@@YAXAAVID3_Writer@@ABVID3_TagImpl@@@Z 1000e0d0 f   id3libD:tag_render.obj
 0001:0000d300       ?Size@ID3_TagImpl@@QBEIXZ  1000e300 f   id3libD:tag_render.obj
 0001:0000d4a0       ?RenderExtHeader@ID3_TagImpl@@IAEXPAE@Z 1000e4a0 f   id3libD:tag_render.obj
 0001:0000d4e0       ?PaddingSize@ID3_TagImpl@@QBEII@Z 1000e4e0 f   id3libD:tag_render.obj
 0001:0000d630       ?begin@ID3_TagImpl@@QBE?AVconst_iterator@?$list@PAVID3_Frame@@V?$allocator@PAVID3_Frame@@@std@@@std@@XZ 1000e630 f i id3libD:tag_render.obj
 0001:0000d680       ?end@ID3_TagImpl@@QBE?AVconst_iterator@?$list@PAVID3_Frame@@V?$allocator@PAVID3_Frame@@@std@@@std@@XZ 1000e680 f i id3libD:tag_render.obj
 0001:0000d6d0       ??0UnsyncedWriter@io@dami@@QAE@AAVID3_Writer@@@Z 1000e6d0 f i id3libD:tag_render.obj
 0001:0000d730       ?getNumSyncs@UnsyncedWriter@io@dami@@QBEIXZ 1000e730 f i id3libD:tag_render.obj
 0001:0000d760       ?writeChars@UnsyncedWriter@io@dami@@UAEIQBDI@Z 1000e760 f i id3libD:tag_render.obj
 0001:0000d7b0       ?close@UnsyncedWriter@io@dami@@UAEXXZ 1000e7b0 f i id3libD:tag_render.obj
 0001:0000d7e0       ?getBeg@UnsyncedWriter@io@dami@@UAEIXZ 1000e7e0 f i id3libD:tag_render.obj
 0001:0000d830       ?getCur@UnsyncedWriter@io@dami@@UAEIXZ 1000e830 f i id3libD:tag_render.obj
 0001:0000d880       ?getEnd@UnsyncedWriter@io@dami@@UAEIXZ 1000e880 f i id3libD:tag_render.obj
 0001:0000d8d0       ?parseFrames@?%c:\dokumente und einstellungen\tw\eigene dateien\projects\tagwriter.dll\vc32\vbid3lib-3.8.0pre1\src\tag_parse.cpp33879160@@YA_NAAVID3_TagImpl@@AAVID3_Reader@@@Z 1000e8d0 f   id3libD:tag_parse.obj
 0001:0000dc60       ?parse@v2@id3@dami@@YA_NAAVID3_TagImpl@@AAVID3_Reader@@@Z 1000ec60 f   id3libD:tag_parse.obj
 0001:0000deb0       ?ParseFile@ID3_TagImpl@@IAEXXZ 1000eeb0 f   id3libD:tag_parse.obj
 0001:0000e1f0       ??_Difstream@@QAEXXZ       1000f1f0 f i id3libD:tag_parse.obj
 0001:0000e2c0       ??0ID3_IFStreamReader@@QAE@AAVifstream@@@Z 1000f2c0 f i id3libD:tag_parse.obj
 0001:0000e320       ??0ID3_IStreamReader@@QAE@AAVistream@@@Z 1000f320 f i id3libD:tag_parse.obj
 0001:0000e370       ?close@ID3_IStreamReader@@UAEXXZ 1000f370 f i id3libD:tag_parse.obj
 0001:0000e3a0       ?peekChar@ID3_IStreamReader@@UAEFXZ 1000f3a0 f i id3libD:tag_parse.obj
 0001:0000e3e0       ?readChars@ID3_IStreamReader@@UAEIQADI@Z 1000f3e0 f i id3libD:tag_parse.obj
 0001:0000e430       ?readChars@ID3_IStreamReader@@UAEIQAEI@Z 1000f430 f i id3libD:tag_parse.obj
 0001:0000e480       ?gcount@istream@@QBEHXZ    1000f480 f i id3libD:tag_parse.obj
 0001:0000e4b0       ?read@istream@@QAEAAV1@PAEH@Z 1000f4b0 f i id3libD:tag_parse.obj
 0001:0000e4f0       ?getBeg@ID3_IStreamReader@@UAEIXZ 1000f4f0 f i id3libD:tag_parse.obj
 0001:0000e520       ?getCur@ID3_IStreamReader@@UAEIXZ 1000f520 f i id3libD:tag_parse.obj
 0001:0000e560       ?getEnd@ID3_IStreamReader@@UAEIXZ 1000f560 f i id3libD:tag_parse.obj
 0001:0000e5f0       ?setCur@ID3_IStreamReader@@UAEII@Z 1000f5f0 f i id3libD:tag_parse.obj
 0001:0000e640       ??_EID3_IStreamReader@@UAEPAXI@Z 1000f640 f i id3libD:tag_parse.obj
 0001:0000e640       ??_GID3_IStreamReader@@UAEPAXI@Z 1000f640 f i id3libD:tag_parse.obj
 0001:0000e6a0       ??1ID3_IStreamReader@@UAE@XZ 1000f6a0 f i id3libD:tag_parse.obj
 0001:0000e6d0       ?close@ID3_IFStreamReader@@UAEXXZ 1000f6d0 f i id3libD:tag_parse.obj
 0001:0000e710       ??_GID3_IFStreamReader@@UAEPAXI@Z 1000f710 f i id3libD:tag_parse.obj
 0001:0000e710       ??_EID3_IFStreamReader@@UAEPAXI@Z 1000f710 f i id3libD:tag_parse.obj
 0001:0000e770       ??1ID3_IFStreamReader@@UAE@XZ 1000f770 f i id3libD:tag_parse.obj
 0001:0000e7b0       ??0ExitTrigger@io@dami@@QAE@AAVID3_Reader@@I@Z 1000f7b0 f i id3libD:tag_parse.obj
 0001:0000e800       ??0WindowedReader@io@dami@@QAE@AAVID3_Reader@@@Z 1000f800 f i id3libD:tag_parse.obj
 0001:0000e890       ??0UnsyncedReader@io@dami@@QAE@AAVID3_Reader@@@Z 1000f890 f i id3libD:tag_parse.obj
 0001:0000e8e0       ??0CharReader@io@dami@@QAE@AAVID3_Reader@@@Z 1000f8e0 f i id3libD:tag_parse.obj
 0001:0000e930       ?readChars@CharReader@io@dami@@UAEIQADI@Z 1000f930 f i id3libD:tag_parse.obj
 0001:0000e980       ?close@CharReader@io@dami@@UAEXXZ 1000f980 f i id3libD:tag_parse.obj
 0001:0000e9b0       ?peekChar@CharReader@io@dami@@UAEFXZ 1000f9b0 f i id3libD:tag_parse.obj
 0001:0000ea00       ?getBeg@CharReader@io@dami@@UAEIXZ 1000fa00 f i id3libD:tag_parse.obj
 0001:0000ea50       ?getCur@CharReader@io@dami@@UAEIXZ 1000fa50 f i id3libD:tag_parse.obj
 0001:0000eaa0       ?getEnd@CharReader@io@dami@@UAEIXZ 1000faa0 f i id3libD:tag_parse.obj
 0001:0000eaf0       ?setCur@CharReader@io@dami@@UAEII@Z 1000faf0 f i id3libD:tag_parse.obj
 0001:0000eb40       ??_ECharReader@io@dami@@UAEPAXI@Z 1000fb40 f i id3libD:tag_parse.obj
 0001:0000eb40       ??_GCharReader@io@dami@@UAEPAXI@Z 1000fb40 f i id3libD:tag_parse.obj
 0001:0000eba0       ??1CharReader@io@dami@@UAE@XZ 1000fba0 f i id3libD:tag_parse.obj
 0001:0000ebd0       ??_EUnsyncedReader@io@dami@@UAEPAXI@Z 1000fbd0 f i id3libD:tag_parse.obj
 0001:0000ebd0       ??_GUnsyncedReader@io@dami@@UAEPAXI@Z 1000fbd0 f i id3libD:tag_parse.obj
 0001:0000ec30       ??1UnsyncedReader@io@dami@@UAE@XZ 1000fc30 f i id3libD:tag_parse.obj
 0001:0000ec70       ??0BStringReader@io@dami@@QAE@ABV?$basic_string@EU?$char_traits@E@std@@V?$allocator@E@2@@std@@@Z 1000fc70 f i id3libD:tag_parse.obj
 0001:0000ecd0       ??1BStringReader@io@dami@@UAE@XZ 1000fcd0 f i id3libD:tag_parse.obj
 0001:0000ed00       ?close@BStringReader@io@dami@@UAEXXZ 1000fd00 f i id3libD:tag_parse.obj
 0001:0000ed30       ?peekChar@BStringReader@io@dami@@UAEFXZ 1000fd30 f i id3libD:tag_parse.obj
 0001:0000eda0       ??A?$basic_string@EU?$char_traits@E@std@@V?$allocator@E@2@@std@@QBEABEI@Z 1000fda0 f i id3libD:tag_parse.obj
 0001:0000edf0       ?readChars@BStringReader@io@dami@@UAEIQADI@Z 1000fdf0 f i id3libD:tag_parse.obj
 0001:0000ee40       ?readChars@BStringReader@io@dami@@UAEIQAEI@Z 1000fe40 f i id3libD:tag_parse.obj
 0001:0000eed0       ?copy@?$basic_string@EU?$char_traits@E@std@@V?$allocator@E@2@@std@@QBEIPAEII@Z 1000fed0 f i id3libD:tag_parse.obj
 0001:0000ef50       ?getCur@BStringReader@io@dami@@UAEIXZ 1000ff50 f i id3libD:tag_parse.obj
 0001:0000ef80       ?getBeg@BStringReader@io@dami@@UAEIXZ 1000ff80 f i id3libD:tag_parse.obj
 0001:0000efb0       ?getEnd@BStringReader@io@dami@@UAEIXZ 1000ffb0 f i id3libD:tag_parse.obj
 0001:0000eff0       ?setCur@BStringReader@io@dami@@UAEII@Z 1000fff0 f i id3libD:tag_parse.obj
 0001:0000f060       ?atEnd@BStringReader@io@dami@@UAE_NXZ 10010060 f i id3libD:tag_parse.obj
 0001:0000f0b0       ?skipChars@BStringReader@io@dami@@UAEII@Z 100100b0 f i id3libD:tag_parse.obj
 0001:0000f120       ??_EBStringReader@io@dami@@UAEPAXI@Z 10010120 f i id3libD:tag_parse.obj
 0001:0000f120       ??_GBStringReader@io@dami@@UAEPAXI@Z 10010120 f i id3libD:tag_parse.obj
 0001:0000f180       ?Link@ID3_TagImpl@@QAEIPBD_N1@Z 10010180 f   id3libD:tag_file.obj
 0001:0000f200       ?Link@ID3_TagImpl@@QAEIPBDG@Z 10010200 f   id3libD:tag_file.obj
 0001:0000f270       ?RenderV1ToFile@@YAIAAVID3_TagImpl@@AAVfstream@@@Z 10010270 f   id3libD:tag_file.obj
 0001:0000f390       ?RenderV2ToFile@@YAIABVID3_TagImpl@@AAVfstream@@@Z 10010390 f   id3libD:tag_file.obj
 0001:0000f630       ??7ios@@QBEHXZ             10010630 f i id3libD:tag_file.obj
 0001:0000f660       ?Update@ID3_TagImpl@@QAEGG@Z 10010660 f   id3libD:tag_file.obj
 0001:0000f8c0       ??_Dfstream@@QAEXXZ        100108c0 f i id3libD:tag_file.obj
 0001:0000f910       ?Strip@ID3_TagImpl@@QAEGG@Z 10010910 f   id3libD:tag_file.obj
 0001:0000fe00       ?eof@ios@@QBEHXZ           10010e00 f i id3libD:tag_file.obj
 0001:0000fe30       ??4?$basic_string@DU?$char_traits@D@std@@V?$allocator@D@2@@std@@QAEAAV01@PBD@Z 10010e30 f i id3libD:tag_file.obj
 0001:0000fe70       ?write@ostream@@QAEAAV1@PBEH@Z 10010e70 f i id3libD:tag_file.obj
 0001:0000ff30       ??0ID3_IOStreamWriter@@QAE@AAViostream@@@Z 10010f30 f i id3libD:tag_file.obj
 0001:0000ffa0       ??1ID3_IOStreamWriter@@UAE@XZ 10010fa0 f i id3libD:tag_file.obj
 0001:0000ffd0       ?close@ID3_IOStreamWriter@@UAEXXZ 10010fd0 f i id3libD:tag_file.obj
 0001:00010000       ?flush@ID3_IOStreamWriter@@UAEXXZ 10011000 f i id3libD:tag_file.obj
 0001:00010040       ?writeChar@ID3_IOStreamWriter@@UAEFE@Z 10011040 f i id3libD:tag_file.obj
 0001:00010090       ?writeChars@ID3_IOStreamWriter@@UAEIQBDI@Z 10011090 f i id3libD:tag_file.obj
 0001:000100e0       ?writeChars@ID3_IOStreamWriter@@UAEIQBEI@Z 100110e0 f i id3libD:tag_file.obj
 0001:00010130       ?getBeg@ID3_IOStreamWriter@@UAEIXZ 10011130 f i id3libD:tag_file.obj
 0001:00010160       ?getCur@ID3_IOStreamWriter@@UAEIXZ 10011160 f i id3libD:tag_file.obj
 0001:000101a0       ??_EID3_IOStreamWriter@@UAEPAXI@Z 100111a0 f i id3libD:tag_file.obj
 0001:000101a0       ??_GID3_IOStreamWriter@@UAEPAXI@Z 100111a0 f i id3libD:tag_file.obj
 0001:00010200       ?Find@ID3_TagImpl@@IBE?AVconst_iterator@?$list@PAVID3_Frame@@V?$allocator@PAVID3_Frame@@@std@@@std@@PBVID3_Frame@@@Z 10011200 f   id3libD:tag_find.obj
 0001:000102a0       ?Find@ID3_TagImpl@@IAE?AViterator@?$list@PAVID3_Frame@@V?$allocator@PAVID3_Frame@@@std@@@std@@PBVID3_Frame@@@Z 100112a0 f   id3libD:tag_find.obj
 0001:00010340       ?Find@ID3_TagImpl@@QBEPAVID3_Frame@@W4ID3_FrameID@@@Z 10011340 f   id3libD:tag_find.obj
 0001:000104d0       ?Find@ID3_TagImpl@@QBEPAVID3_Frame@@W4ID3_FrameID@@W4ID3_FieldID@@V?$basic_string@DU?$char_traits@D@std@@V?$allocator@D@2@@std@@@Z 100114d0 f   id3libD:tag_find.obj
 0001:00010760       ?Find@ID3_TagImpl@@QBEPAVID3_Frame@@W4ID3_FrameID@@W4ID3_FieldID@@V?$basic_string@GU?$char_traits@G@std@@V?$allocator@G@2@@std@@@Z 10011760 f   id3libD:tag_find.obj
 0001:000109f0       ?Find@ID3_TagImpl@@QBEPAVID3_Frame@@W4ID3_FrameID@@W4ID3_FieldID@@I@Z 100119f0 f   id3libD:tag_find.obj
 0001:00010bb0       ??0?$basic_string@DU?$char_traits@D@std@@V?$allocator@D@2@@std@@QAE@PBDIABV?$allocator@D@1@@Z 10011bb0 f i id3libD:tag_find.obj
 0001:00010c10       ??8std@@YA_NABV?$basic_string@DU?$char_traits@D@std@@V?$allocator@D@2@@0@0@Z 10011c10 f i id3libD:tag_find.obj
 0001:00010c50       ??8std@@YA_NABV?$basic_string@GU?$char_traits@G@std@@V?$allocator@G@2@@0@0@Z 10011c50 f i id3libD:tag_find.obj
 0001:00010c90       ?compare@?$basic_string@DU?$char_traits@D@std@@V?$allocator@D@2@@std@@QBEHABV12@@Z 10011c90 f i id3libD:tag_find.obj
 0001:00010cf0       ?compare@?$basic_string@GU?$char_traits@G@std@@V?$allocator@G@2@@std@@QBEHABV12@@Z 10011cf0 f i id3libD:tag_find.obj
 0001:00010d50       ?compare@?$basic_string@GU?$char_traits@G@std@@V?$allocator@G@2@@std@@QBEHIIPBGI@Z 10011d50 f i id3libD:tag_find.obj
 0001:00010e20       ?compare@?$char_traits@G@std@@SAHPBG0I@Z 10011e20 f i id3libD:tag_find.obj
 0001:00010e60       _wmemcmp                   10011e60 f i id3libD:tag_find.obj
 0001:00010ef0       ?_Psum@?$basic_string@GU?$char_traits@G@std@@V?$allocator@G@2@@std@@CAPAGPAGI@Z 10011ef0 f i id3libD:tag_find.obj
 0001:00010fb0       ?renderNumber@dami@@YAIPAEII@Z 10011fb0 f   id3libD:utils.obj
 0001:00011020       ?renderNumber@dami@@YA?AV?$basic_string@DU?$char_traits@D@std@@V?$allocator@D@2@@std@@II@Z 10012020 f   id3libD:utils.obj
 0001:00011100       ?mbstoucs@?%c:\dokumente und einstellungen\tw\eigene dateien\projects\tagwriter.dll\vc32\vbid3lib-3.8.0pre1\src\utils.cpp3008030726@@YA?AV?$basic_string@DU?$char_traits@D@std@@V?$allocator@D@2@@std@@V23@@Z 10012100 f   id3libD:utils.obj
 0001:00011200       ?ucstombs@?%c:\dokumente und einstellungen\tw\eigene dateien\projects\tagwriter.dll\vc32\vbid3lib-3.8.0pre1\src\utils.cpp3008030726@@YA?AV?$basic_string@DU?$char_traits@D@std@@V?$allocator@D@2@@std@@V23@@Z 10012200 f   id3libD:utils.obj
 0001:00011300       ?convert@dami@@YA?AV?$basic_string@DU?$char_traits@D@std@@V?$allocator@D@2@@std@@V23@W4ID3_TextEnc@@1@Z 10012300 f   id3libD:utils.obj
 0001:00011480       ?ucslen@dami@@YAIPBG@Z     10012480 f   id3libD:utils.obj
 0001:000114f0       ?exists@?%c:\dokumente und einstellungen\tw\eigene dateien\projects\tagwriter.dll\vc32\vbid3lib-3.8.0pre1\src\utils.cpp3008030726@@YA_NV?$basic_string@DU?$char_traits@D@std@@V?$allocator@D@2@@std@@@Z 100124f0 f   id3libD:utils.obj
 0001:000115a0       ?createFile@dami@@YA?AW4ID3_Err@@V?$basic_string@DU?$char_traits@D@std@@V?$allocator@D@2@@std@@AAVfstream@@@Z 100125a0 f   id3libD:utils.obj
 0001:00011670       ?getFileSize@dami@@YAIAAVfstream@@@Z 10012670 f   id3libD:utils.obj
 0001:000116e0       ?getFileSize@dami@@YAIAAVifstream@@@Z 100126e0 f   id3libD:utils.obj
 0001:00011750       ?getFileSize@dami@@YAIAAVofstream@@@Z 10012750 f   id3libD:utils.obj
 0001:000117c0       ?openWritableFile@dami@@YA?AW4ID3_Err@@V?$basic_string@DU?$char_traits@D@std@@V?$allocator@D@2@@std@@AAVfstream@@@Z 100127c0 f   id3libD:utils.obj
 0001:000118e0       ?openWritableFile@dami@@YA?AW4ID3_Err@@V?$basic_string@DU?$char_traits@D@std@@V?$allocator@D@2@@std@@AAVofstream@@@Z 100128e0 f   id3libD:utils.obj
 0001:00011a00       ?openReadableFile@dami@@YA?AW4ID3_Err@@V?$basic_string@DU?$char_traits@D@std@@V?$allocator@D@2@@std@@AAVfstream@@@Z 10012a00 f   id3libD:utils.obj
 0001:00011ad0       ?openReadableFile@dami@@YA?AW4ID3_Err@@V?$basic_string@DU?$char_traits@D@std@@V?$allocator@D@2@@std@@AAVifstream@@@Z 10012ad0 f   id3libD:utils.obj
 0001:00011ba0       ?toString@dami@@YA?AV?$basic_string@DU?$char_traits@D@std@@V?$allocator@D@2@@std@@I@Z 10012ba0 f   id3libD:utils.obj
 0001:00011cf0       ?toWString@dami@@YA?AV?$basic_string@GU?$char_traits@G@std@@V?$allocator@G@2@@std@@QBGI@Z 10012cf0 f   id3libD:utils.obj
 0001:00011dc0       ??0?$basic_string@DU?$char_traits@D@std@@V?$allocator@D@2@@std@@QAE@IDABV?$allocator@D@1@@Z 10012dc0 f i id3libD:utils.obj
 0001:00011e20       ??4?$basic_string@DU?$char_traits@D@std@@V?$allocator@D@2@@std@@QAEAAV01@ABV01@@Z 10012e20 f i id3libD:utils.obj
 0001:00011e60       ??Y?$basic_string@DU?$char_traits@D@std@@V?$allocator@D@2@@std@@QAEAAV01@D@Z 10012e60 f i id3libD:utils.obj
 0001:00011ea0       ?is_open@ifstream@@QBEHXZ  10012ea0 f i id3libD:utils.obj
 0001:00011ee0       ?is_open@filebuf@@QBEHXZ   10012ee0 f i id3libD:utils.obj
 0001:00011f20       ?rdbuf@ifstream@@QBEPAVfilebuf@@XZ 10012f20 f i id3libD:utils.obj
 0001:00011f60       ?rdbuf@ios@@QBEPAVstreambuf@@XZ 10012f60 f i id3libD:utils.obj
 0001:00011f90       ?is_open@ofstream@@QBEHXZ  10012f90 f i id3libD:utils.obj
 0001:00011fd0       ?rdbuf@ofstream@@QBEPAVfilebuf@@XZ 10012fd0 f i id3libD:utils.obj
 0001:00012010       ?is_open@fstream@@QBEHXZ   10013010 f i id3libD:utils.obj
 0001:00012050       ?rdbuf@fstream@@QBEPAVfilebuf@@XZ 10013050 f i id3libD:utils.obj
 0001:00012090       ??0?$basic_string@GU?$char_traits@G@std@@V?$allocator@G@2@@std@@QAE@ABV?$allocator@G@1@@Z 10013090 f i id3libD:utils.obj
 0001:000120e0       ??Y?$basic_string@GU?$char_traits@G@std@@V?$allocator@G@2@@std@@QAEAAV01@G@Z 100130e0 f i id3libD:utils.obj
 0001:00012120       ?reserve@?$basic_string@GU?$char_traits@G@std@@V?$allocator@G@2@@std@@QAEXI@Z 10013120 f i id3libD:utils.obj
 0001:00012170       ?append@?$basic_string@DU?$char_traits@D@std@@V?$allocator@D@2@@std@@QAEAAV12@ID@Z 10013170 f i id3libD:utils.obj
 0001:00012210       ?assign@?$char_traits@D@std@@SAPADPADIABD@Z 10013210 f i id3libD:utils.obj
 0001:00012250       ?assign@?$basic_string@DU?$char_traits@D@std@@V?$allocator@D@2@@std@@QAEAAV12@ABV12@@Z 10013250 f i id3libD:utils.obj
 0001:000122a0       ?assign@?$basic_string@DU?$char_traits@D@std@@V?$allocator@D@2@@std@@QAEAAV12@ID@Z 100132a0 f i id3libD:utils.obj
 0001:00012320       ?append@?$basic_string@GU?$char_traits@G@std@@V?$allocator@G@2@@std@@QAEAAV12@IG@Z 10013320 f i id3libD:utils.obj
 0001:000123c0       ?assign@?$char_traits@G@std@@SAPAGPAGIABG@Z 100133c0 f i id3libD:utils.obj
 0001:00012400       _wmemset                   10013400 f i id3libD:utils.obj
 0001:00012460       ??Hstd@@YA?AV?$basic_string@DU?$char_traits@D@std@@V?$allocator@D@2@@0@ABV10@0@Z 10013460 f i id3libD:utils.obj
 0001:00012500       ??Y?$basic_string@DU?$char_traits@D@std@@V?$allocator@D@2@@std@@QAEAAV01@ABV01@@Z 10013500 f i id3libD:utils.obj
 0001:00012540       ?append@?$basic_string@DU?$char_traits@D@std@@V?$allocator@D@2@@std@@QAEAAV12@ABV12@@Z 10013540 f i id3libD:utils.obj
 0001:00012580       ?append@?$basic_string@DU?$char_traits@D@std@@V?$allocator@D@2@@std@@QAEAAV12@ABV12@II@Z 10013580 f i id3libD:utils.obj
 0001:000126d0       ?readChars@ID3_MemoryReader@@UAEIQAEI@Z 100136d0 f   id3libD:readers.obj
 0001:000127d0       ?SetSpec@ID3_Header@@UAE_NW4ID3_V2Spec@@@Z 100137d0 f   id3libD:header.obj
 0001:00012890       ??0ID3_FieldImpl@@AAE@XZ   10013890 f   id3libD:field.obj
 0001:00012990       ??_EID3_FieldImpl@@UAEPAXI@Z 10013990 f i id3libD:field.obj
 0001:00012990       ??_GID3_FieldImpl@@UAEPAXI@Z 10013990 f i id3libD:field.obj
 0001:000129f0       ??0ID3_FieldImpl@@AAE@ABUID3_FieldDef@@@Z 100139f0 f   id3libD:field.obj
 0001:00012b00       ??1ID3_Field@@MAE@XZ       10013b00 f i id3libD:field.obj
 0001:00012b30       ??0ID3_Field@@IAE@XZ       10013b30 f i id3libD:field.obj
 0001:00012b60       ??_EID3_Field@@MAEPAXI@Z   10013b60 f i id3libD:field.obj
 0001:00012b60       ??_GID3_Field@@MAEPAXI@Z   10013b60 f i id3libD:field.obj
 0001:00012bc0       ??1ID3_FieldImpl@@UAE@XZ   10013bc0 f   id3libD:field.obj
 0001:00012c50       ?Clear@ID3_FieldImpl@@UAEXXZ 10013c50 f   id3libD:field.obj
 0001:00012d60       ?HasChanged@ID3_FieldImpl@@UBE_NXZ 10013d60 f   id3libD:field.obj
 0001:00012d90       ?BinSize@ID3_FieldImpl@@UBEIXZ 10013d90 f   id3libD:field.obj
 0001:00012e50       ?Size@ID3_FieldImpl@@UBEIXZ 10013e50 f   id3libD:field.obj
 0001:00012ee0       ?Parse@ID3_FieldImpl@@UAE_NAAVID3_Reader@@@Z 10013ee0 f   id3libD:field.obj
 0001:00012f80       ?ID3_FindFrameDef@@YAPAUID3_FrameDef@@W4ID3_FrameID@@@Z 10013f80 f   id3libD:field.obj
 0001:00013000       ?ID3_FindFrameID@@YA?AW4ID3_FrameID@@PBD@Z 10014000 f   id3libD:field.obj
 0001:000130e0       ?Render@ID3_FieldImpl@@UBEXAAVID3_Writer@@@Z 100140e0 f   id3libD:field.obj
 0001:00013170       ??4ID3_FieldImpl@@UAEAAVID3_Field@@ABV1@@Z 10014170 f   id3libD:field.obj
 0001:00013290       ?SetEncoding@ID3_FieldImpl@@UAE_NW4ID3_TextEnc@@@Z 10014290 f   id3libD:field.obj
 0001:000133c0       ?assign@?$basic_string@EU?$char_traits@E@std@@V?$allocator@E@2@@std@@QAEAAV12@IE@Z 100143c0 f i id3libD:field.obj
 0001:00013440       ?erase@?$basic_string@EU?$char_traits@E@std@@V?$allocator@E@2@@std@@QAEAAV12@II@Z 10014440 f i id3libD:field.obj
 0001:00013510       ?_Split@?$basic_string@EU?$char_traits@E@std@@V?$allocator@E@2@@std@@AAEXXZ 10014510 f i id3libD:field.obj
 0001:000135a0       ?move@?$char_traits@E@std@@SAPAEPAEPBEI@Z 100145a0 f i id3libD:field.obj
 0001:00013680       ?assign@?$char_traits@E@std@@SAPAEPAEIABE@Z 10014680 f i id3libD:field.obj
 0001:000136f0       ?assign@?$basic_string@EU?$char_traits@E@std@@V?$allocator@E@2@@std@@QAEAAV12@PBE@Z 100146f0 f i id3libD:field.obj
 0001:00013740       ?assign@?$basic_string@EU?$char_traits@E@std@@V?$allocator@E@2@@std@@QAEAAV12@PBEI@Z 10014740 f i id3libD:field.obj
 0001:000137b0       ?length@?$char_traits@E@std@@SAIPBE@Z 100147b0 f i id3libD:field.obj
 0001:00013820       ?eq@?$char_traits@E@std@@SA_NABE0@Z 10014820 f i id3libD:field.obj
 0001:00013860       ??4ID3_FieldImpl@@UAEAAVID3_Field@@I@Z 10014860 f i id3libD:field.obj
 0001:000138b0       ??4ID3_FieldImpl@@UAEAAVID3_Field@@PBD@Z 100148b0 f i id3libD:field.obj
 0001:00013900       ??4ID3_FieldImpl@@UAEAAVID3_Field@@PBG@Z 10014900 f i id3libD:field.obj
 0001:00013950       ?InScope@ID3_FieldImpl@@UBE_NW4ID3_V2Spec@@@Z 10014950 f i id3libD:field.obj
 0001:000139a0       ?GetID@ID3_FieldImpl@@UBE?AW4ID3_FieldID@@XZ 100149a0 f i id3libD:field.obj
 0001:000139d0       ?GetType@ID3_FieldImpl@@UBE?AW4ID3_FieldType@@XZ 100149d0 f i id3libD:field.obj
 0001:00013a80       ?GetEncoding@ID3_FieldImpl@@UBE?AW4ID3_TextEnc@@XZ 10014a80 f i id3libD:field.obj
 0001:00013ab0       ?IsEncodable@ID3_FieldImpl@@UBE_NXZ 10014ab0 f i id3libD:field.obj
 0001:00013af0       ?setWindow@WindowedReader@io@dami@@QAEXII@Z 10014af0 f   id3libD:io_decorators.obj
 0001:00013bd0       ?setBeg@WindowedReader@io@dami@@QAEII@Z 10014bd0 f   id3libD:io_decorators.obj
 0001:00013c60       ?setEnd@WindowedReader@io@dami@@QAEII@Z 10014c60 f   id3libD:io_decorators.obj
 0001:00013ce0       ?readChar@WindowedReader@io@dami@@UAEFXZ 10014ce0 f   id3libD:io_decorators.obj
 0001:00013d50       ?peekChar@WindowedReader@io@dami@@UAEFXZ 10014d50 f   id3libD:io_decorators.obj
 0001:00013dc0       ?readChars@WindowedReader@io@dami@@UAEIQAEI@Z 10014dc0 f   id3libD:io_decorators.obj
 0001:00013e70       ?readChars@CharReader@io@dami@@UAEIQAEI@Z 10014e70 f   id3libD:io_decorators.obj
 0001:00013f10       ?readChar@LineFeedReader@io@dami@@UAEFXZ 10014f10 f   id3libD:io_decorators.obj
 0001:00013fd0       ?readChar@UnsyncedReader@io@dami@@UAEFXZ 10014fd0 f   id3libD:io_decorators.obj
 0001:00014090       ??0CompressedReader@io@dami@@QAE@AAVID3_Reader@@I@Z 10015090 f   id3libD:io_decorators.obj
 0001:00014190       ??_GCompressedReader@io@dami@@UAEPAXI@Z 10015190 f i id3libD:io_decorators.obj
 0001:00014190       ??_ECompressedReader@io@dami@@UAEPAXI@Z 10015190 f i id3libD:io_decorators.obj
 0001:000141f0       ??1CompressedReader@io@dami@@UAE@XZ 100151f0 f   id3libD:io_decorators.obj
 0001:00014250       ?writeChar@UnsyncedWriter@io@dami@@UAEFE@Z 10015250 f   id3libD:io_decorators.obj
 0001:00014310       ?flush@UnsyncedWriter@io@dami@@UAEXXZ 10015310 f   id3libD:io_decorators.obj
 0001:000143a0       ?writeChars@UnsyncedWriter@io@dami@@UAEIQBEI@Z 100153a0 f   id3libD:io_decorators.obj
 0001:00014470       ?flush@CompressedWriter@io@dami@@UAEXXZ 10015470 f   id3libD:io_decorators.obj
 0001:000145c0       ?writeChars@CompressedWriter@io@dami@@UAEIQBEI@Z 100155c0 f   id3libD:io_decorators.obj
 0001:00014690       ??0ID3_MemoryReader@@QAE@XZ 10015690 f i id3libD:io_decorators.obj
 0001:000146e0       ?inWindow@WindowedReader@io@dami@@AAE_NI@Z 100156e0 f i id3libD:io_decorators.obj
 0001:00014760       ?inWindow@WindowedReader@io@dami@@QAE_NXZ 10015760 f i id3libD:io_decorators.obj
 0001:000147b0       ?readString@io@dami@@YA?AV?$basic_string@DU?$char_traits@D@std@@V?$allocator@D@2@@std@@AAVID3_Reader@@@Z 100157b0 f   id3libD:io_helpers.obj
 0001:00014890       ?readText@io@dami@@YA?AV?$basic_string@DU?$char_traits@D@std@@V?$allocator@D@2@@std@@AAVID3_Reader@@I@Z 10015890 f   id3libD:io_helpers.obj
 0001:000149e0       ?isNull@?%c:\dokumente und einstellungen\tw\eigene dateien\projects\tagwriter.dll\vc32\vbid3lib-3.8.0pre1\src\io_helpers.cpp998710678@@YA_NEE@Z 100159e0 f   id3libD:io_helpers.obj
 0001:00014a30       ?isBOM@?%c:\dokumente und einstellungen\tw\eigene dateien\projects\tagwriter.dll\vc32\vbid3lib-3.8.0pre1\src\io_helpers.cpp998710678@@YAHEE@Z 10015a30 f   id3libD:io_helpers.obj
 0001:00014aa0       ?readTwoChars@?%c:\dokumente und einstellungen\tw\eigene dateien\projects\tagwriter.dll\vc32\vbid3lib-3.8.0pre1\src\io_helpers.cpp998710678@@YA_NAAVID3_Reader@@AAE1@Z 10015aa0 f   id3libD:io_helpers.obj
 0001:00014bb0       ?readUnicodeString@io@dami@@YA?AV?$basic_string@DU?$char_traits@D@std@@V?$allocator@D@2@@std@@AAVID3_Reader@@@Z 10015bb0 f   id3libD:io_helpers.obj
 0001:00014d60       ?readUnicodeText@io@dami@@YA?AV?$basic_string@DU?$char_traits@D@std@@V?$allocator@D@2@@std@@AAVID3_Reader@@I@Z 10015d60 f   id3libD:io_helpers.obj
 0001:00014f50       ?readAllBinary@io@dami@@YA?AV?$basic_string@EU?$char_traits@E@std@@V?$allocator@E@2@@std@@AAVID3_Reader@@@Z 10015f50 f   id3libD:io_helpers.obj
 0001:00014fc0       ?readBinary@io@dami@@YA?AV?$basic_string@EU?$char_traits@E@std@@V?$allocator@E@2@@std@@AAVID3_Reader@@I@Z 10015fc0 f   id3libD:io_helpers.obj
 0001:000150f0       ?readLENumber@io@dami@@YAIAAVID3_Reader@@I@Z 100160f0 f   id3libD:io_helpers.obj
 0001:000151a0       ?readBENumber@io@dami@@YAIAAVID3_Reader@@I@Z 100161a0 f   id3libD:io_helpers.obj
 0001:00015250       ?readTrailingSpaces@io@dami@@YA?AV?$basic_string@DU?$char_traits@D@std@@V?$allocator@D@2@@std@@AAVID3_Reader@@I@Z 10016250 f   id3libD:io_helpers.obj
 0001:000153c0       ?readUInt28@io@dami@@YAIAAVID3_Reader@@@Z 100163c0 f   id3libD:io_helpers.obj
 0001:00015480       ?writeBENumber@io@dami@@YAIAAVID3_Writer@@II@Z 10016480 f   id3libD:io_helpers.obj
 0001:00015500       ?writeTrailingSpaces@io@dami@@YAIAAVID3_Writer@@V?$basic_string@DU?$char_traits@D@std@@V?$allocator@D@2@@std@@I@Z 10016500 f   id3libD:io_helpers.obj
 0001:00015610       ?writeUInt28@io@dami@@YAIAAVID3_Writer@@I@Z 10016610 f   id3libD:io_helpers.obj
 0001:000156c0       ?writeString@io@dami@@YAIAAVID3_Writer@@V?$basic_string@DU?$char_traits@D@std@@V?$allocator@D@2@@std@@@Z 100166c0 f   id3libD:io_helpers.obj
 0001:00015770       ?writeText@io@dami@@YAIAAVID3_Writer@@V?$basic_string@DU?$char_traits@D@std@@V?$allocator@D@2@@std@@@Z 10016770 f   id3libD:io_helpers.obj
 0001:00015830       ?writeUnicodeString@io@dami@@YAIAAVID3_Writer@@V?$basic_string@DU?$char_traits@D@std@@V?$allocator@D@2@@std@@_N@Z 10016830 f   id3libD:io_helpers.obj
 0001:000158f0       ?writeUnicodeText@io@dami@@YAIAAVID3_Writer@@V?$basic_string@DU?$char_traits@D@std@@V?$allocator@D@2@@std@@_N@Z 100168f0 f   id3libD:io_helpers.obj
 0001:00015a50       ?reserve@?$basic_string@DU?$char_traits@D@std@@V?$allocator@D@2@@std@@QAEXI@Z 10016a50 f i id3libD:io_helpers.obj
 0001:00015aa0       ??0?$basic_string@EU?$char_traits@E@std@@V?$allocator@E@2@@std@@QAE@ABV01@@Z 10016aa0 f i id3libD:io_helpers.obj
 0001:00015b00       ?assign@?$basic_string@EU?$char_traits@E@std@@V?$allocator@E@2@@std@@QAEAAV12@ABV12@II@Z 10016b00 f i id3libD:io_helpers.obj
 0001:00015c80       ?capacity@?$basic_string@EU?$char_traits@E@std@@V?$allocator@E@2@@std@@QBEIXZ 10016c80 f i id3libD:io_helpers.obj
 0001:00015cb0       ??Hstd@@YA?AV?$basic_string@DU?$char_traits@D@std@@V?$allocator@D@2@@0@ABV10@D@Z 10016cb0 f i id3libD:io_helpers.obj
 0001:00015d50       ??8std@@YA_NABV?$allocator@E@0@0@Z 10016d50 f i id3libD:io_helpers.obj
 0001:00015e00       ?release@ExitTrigger@io@dami@@QAEXXZ 10016e00 f i id3libD:io_helpers.obj
 0001:00015e30       ?SetSpec@ID3_TagHeader@@UAE_NW4ID3_V2Spec@@@Z 10016e30 f   id3libD:header_tag.obj
 0001:00015ec0       ?Size@ID3_TagHeader@@UBEIXZ 10016ec0 f   id3libD:header_tag.obj
 0001:00015f10       ?Render@ID3_TagHeader@@UBEXAAVID3_Writer@@@Z 10016f10 f   id3libD:header_tag.obj
 0001:00016020       ?Parse@ID3_TagHeader@@UAE_NAAVID3_Reader@@@Z 10017020 f   id3libD:header_tag.obj
 0001:00016230       ?getString@v2@id3@dami@@YA?AV?$basic_string@DU?$char_traits@D@std@@V?$allocator@D@2@@std@@PBVID3_Frame@@W4ID3_FieldID@@@Z 10017230 f   id3libD:helpers.obj
 0001:00016390       ?getStringAtIndex@v2@id3@dami@@YA?AV?$basic_string@DU?$char_traits@D@std@@V?$allocator@D@2@@std@@PBVID3_Frame@@W4ID3_FieldID@@I@Z 10017390 f   id3libD:helpers.obj
 0001:000164e0       ?removeFrames@v2@id3@dami@@YAIAAVID3_TagImpl@@W4ID3_FrameID@@@Z 100174e0 f   id3libD:helpers.obj
 0001:00016580       ?getFrameText@v2@id3@dami@@YA?AV?$basic_string@DU?$char_traits@D@std@@V?$allocator@D@2@@std@@ABVID3_TagImpl@@W4ID3_FrameID@@@Z 10017580 f   id3libD:helpers.obj
 0001:000165e0       ?setFrameText@v2@id3@dami@@YAPAVID3_Frame@@AAVID3_TagImpl@@W4ID3_FrameID@@V?$basic_string@DU?$char_traits@D@std@@V?$allocator@D@2@@std@@@Z 100175e0 f   id3libD:helpers.obj
 0001:000166e0       ?hasArtist@v2@id3@dami@@YAPAVID3_Frame@@ABVID3_TagImpl@@@Z 100176e0 f   id3libD:helpers.obj
 0001:00016760       ?getArtist@v2@id3@dami@@YA?AV?$basic_string@DU?$char_traits@D@std@@V?$allocator@D@2@@std@@ABVID3_TagImpl@@@Z 10017760 f   id3libD:helpers.obj
 0001:000167c0       ?setArtist@v2@id3@dami@@YAPAVID3_Frame@@AAVID3_TagImpl@@V?$basic_string@DU?$char_traits@D@std@@V?$allocator@D@2@@std@@@Z 100177c0 f   id3libD:helpers.obj
 0001:00016860       ?removeArtists@v2@id3@dami@@YAIAAVID3_TagImpl@@@Z 10017860 f   id3libD:helpers.obj
 0001:00016900       ?getAlbum@v2@id3@dami@@YA?AV?$basic_string@DU?$char_traits@D@std@@V?$allocator@D@2@@std@@ABVID3_TagImpl@@@Z 10017900 f   id3libD:helpers.obj
 0001:00016950       ?setAlbum@v2@id3@dami@@YAPAVID3_Frame@@AAVID3_TagImpl@@V?$basic_string@DU?$char_traits@D@std@@V?$allocator@D@2@@std@@@Z 10017950 f   id3libD:helpers.obj
 0001:000169e0       ?removeAlbums@v2@id3@dami@@YAIAAVID3_TagImpl@@@Z 100179e0 f   id3libD:helpers.obj
 0001:00016a20       ?getTitle@v2@id3@dami@@YA?AV?$basic_string@DU?$char_traits@D@std@@V?$allocator@D@2@@std@@ABVID3_TagImpl@@@Z 10017a20 f   id3libD:helpers.obj
 0001:00016a70       ?setTitle@v2@id3@dami@@YAPAVID3_Frame@@AAVID3_TagImpl@@V?$basic_string@DU?$char_traits@D@std@@V?$allocator@D@2@@std@@@Z 10017a70 f   id3libD:helpers.obj
 0001:00016b00       ?removeTitles@v2@id3@dami@@YAIAAVID3_TagImpl@@@Z 10017b00 f   id3libD:helpers.obj
 0001:00016b40       ?getYear@v2@id3@dami@@YA?AV?$basic_string@DU?$char_traits@D@std@@V?$allocator@D@2@@std@@ABVID3_TagImpl@@@Z 10017b40 f   id3libD:helpers.obj
 0001:00016b90       ?setYear@v2@id3@dami@@YAPAVID3_Frame@@AAVID3_TagImpl@@V?$basic_string@DU?$char_traits@D@std@@V?$allocator@D@2@@std@@@Z 10017b90 f   id3libD:helpers.obj
 0001:00016c20       ?removeYears@v2@id3@dami@@YAIAAVID3_TagImpl@@@Z 10017c20 f   id3libD:helpers.obj
 0001:00016c60       ?getV1Comment@v2@id3@dami@@YA?AV?$basic_string@DU?$char_traits@D@std@@V?$allocator@D@2@@std@@ABVID3_TagImpl@@@Z 10017c60 f   id3libD:helpers.obj
 0001:00016d30       ?getComment@v2@id3@dami@@YA?AV?$basic_string@DU?$char_traits@D@std@@V?$allocator@D@2@@std@@ABVID3_TagImpl@@V45@@Z 10017d30 f   id3libD:helpers.obj
 0001:00016df0       ?setComment@v2@id3@dami@@YAPAVID3_Frame@@AAVID3_TagImpl@@V?$basic_string@DU?$char_traits@D@std@@V?$allocator@D@2@@std@@11@Z 10017df0 f   id3libD:helpers.obj
 0001:00017010       ?removeAllComments@v2@id3@dami@@YAIAAVID3_TagImpl@@@Z 10018010 f   id3libD:helpers.obj
 0001:00017050       ?removeComments@v2@id3@dami@@YAIAAVID3_TagImpl@@V?$basic_string@DU?$char_traits@D@std@@V?$allocator@D@2@@std@@@Z 10018050 f   id3libD:helpers.obj
 0001:000171c0       ?getTrack@v2@id3@dami@@YA?AV?$basic_string@DU?$char_traits@D@std@@V?$allocator@D@2@@std@@ABVID3_TagImpl@@@Z 100181c0 f   id3libD:helpers.obj
 0001:00017210       ?getTrackNum@v2@id3@dami@@YAIABVID3_TagImpl@@@Z 10018210 f   id3libD:helpers.obj
 0001:000172a0       ?setTrack@v2@id3@dami@@YAPAVID3_Frame@@AAVID3_TagImpl@@EE@Z 100182a0 f   id3libD:helpers.obj
 0001:000173a0       ?removeTracks@v2@id3@dami@@YAIAAVID3_TagImpl@@@Z 100183a0 f   id3libD:helpers.obj
 0001:000173e0       ?getGenre@v2@id3@dami@@YA?AV?$basic_string@DU?$char_traits@D@std@@V?$allocator@D@2@@std@@ABVID3_TagImpl@@@Z 100183e0 f   id3libD:helpers.obj
 0001:00017430       ?getGenreNum@v2@id3@dami@@YAIABVID3_TagImpl@@@Z 10018430 f   id3libD:helpers.obj
 0001:00017580       ?setGenre@v2@id3@dami@@YAPAVID3_Frame@@AAVID3_TagImpl@@I@Z 10018580 f   id3libD:helpers.obj
 0001:00017690       ?removeGenres@v2@id3@dami@@YAIAAVID3_TagImpl@@@Z 10018690 f   id3libD:helpers.obj
 0001:000176d0       ?getLyrics@v2@id3@dami@@YA?AV?$basic_string@DU?$char_traits@D@std@@V?$allocator@D@2@@std@@ABVID3_TagImpl@@@Z 100186d0 f   id3libD:helpers.obj
 0001:00017720       ?setLyrics@v2@id3@dami@@YAPAVID3_Frame@@AAVID3_TagImpl@@V?$basic_string@DU?$char_traits@D@std@@V?$allocator@D@2@@std@@11@Z 10018720 f   id3libD:helpers.obj
 0001:00017940       ?removeLyrics@v2@id3@dami@@YAIAAVID3_TagImpl@@@Z 10018940 f   id3libD:helpers.obj
 0001:00017980       ?getLyricist@v2@id3@dami@@YA?AV?$basic_string@DU?$char_traits@D@std@@V?$allocator@D@2@@std@@ABVID3_TagImpl@@@Z 10018980 f   id3libD:helpers.obj
 0001:000179d0       ?setLyricist@v2@id3@dami@@YAPAVID3_Frame@@AAVID3_TagImpl@@V?$basic_string@DU?$char_traits@D@std@@V?$allocator@D@2@@std@@@Z 100189d0 f   id3libD:helpers.obj
 0001:00017a60       ?removeLyricists@v2@id3@dami@@YAIAAVID3_TagImpl@@@Z 10018a60 f   id3libD:helpers.obj
 0001:00017aa0       ?setSyncLyrics@v2@id3@dami@@YAPAVID3_Frame@@AAVID3_TagImpl@@V?$basic_string@EU?$char_traits@E@std@@V?$allocator@E@2@@std@@W4ID3_TimeStampFormat@@V?$basic_string@DU?$char_traits@D@std@@V?$allocator@D@2@@7@3W4ID3_ContentType@@@Z 10018aa0 f   id3libD:helpers.obj
 0001:00017cb0       ?getSyncLyrics@v2@id3@dami@@YA?AV?$basic_string@EU?$char_traits@E@std@@V?$allocator@E@2@@std@@ABVID3_TagImpl@@V?$basic_string@DU?$char_traits@D@std@@V?$allocator@D@2@@5@1@Z 10018cb0 f   id3libD:helpers.obj
 0001:00017de0       ??Y?$basic_string@DU?$char_traits@D@std@@V?$allocator@D@2@@std@@QAEAAV01@PBD@Z 10018de0 f i id3libD:helpers.obj
 0001:00017e20       ??0?$basic_string@EU?$char_traits@E@std@@V?$allocator@E@2@@std@@QAE@PBEIABV?$allocator@E@1@@Z 10018e20 f i id3libD:helpers.obj
 0001:00017e80       ?append@?$basic_string@DU?$char_traits@D@std@@V?$allocator@D@2@@std@@QAEAAV12@PBD@Z 10018e80 f i id3libD:helpers.obj
 0001:00017ed0       ?min@dami@@YAABHABH0@Z     10018ed0 f i id3libD:helpers.obj
 0001:00017f20       ??Hstd@@YA?AV?$basic_string@DU?$char_traits@D@std@@V?$allocator@D@2@@0@ABV10@PBD@Z 10018f20 f i id3libD:helpers.obj
 0001:00018040       ?parse@v1@id3@dami@@YA_NAAVID3_TagImpl@@AAVID3_Reader@@@Z 10019040 f   id3libD:tag_parse_v1.obj
 0001:00018530       ?length@?$basic_string@DU?$char_traits@D@std@@V?$allocator@D@2@@std@@QBEIXZ 10019530 f i id3libD:tag_parse_v1.obj
 0001:000185e0       ?readIntegerString@?%c:\dokumente und einstellungen\tw\eigene dateien\projects\tagwriter.dll\vc32\vbid3lib-3.8.0pre1\src\tag_parse_lyrics3.cpp185331503@@YAIAAVID3_Reader@@I@Z 100195e0 f   id3libD:tag_parse_lyrics3.obj
 0001:00018680       ?readIntegerString@?%c:\dokumente und einstellungen\tw\eigene dateien\projects\tagwriter.dll\vc32\vbid3lib-3.8.0pre1\src\tag_parse_lyrics3.cpp185331503@@YAIAAVID3_Reader@@@Z 10019680 f   id3libD:tag_parse_lyrics3.obj
 0001:000186d0       ?isTimeStamp@?%c:\dokumente und einstellungen\tw\eigene dateien\projects\tagwriter.dll\vc32\vbid3lib-3.8.0pre1\src\tag_parse_lyrics3.cpp185331503@@YA_NAAVID3_Reader@@@Z 100196d0 f   id3libD:tag_parse_lyrics3.obj
 0001:00018860       ?readTimeStamp@?%c:\dokumente und einstellungen\tw\eigene dateien\projects\tagwriter.dll\vc32\vbid3lib-3.8.0pre1\src\tag_parse_lyrics3.cpp185331503@@YAIAAVID3_Reader@@@Z 10019860 f   id3libD:tag_parse_lyrics3.obj
 0001:00018900       ?findText@?%c:\dokumente und einstellungen\tw\eigene dateien\projects\tagwriter.dll\vc32\vbid3lib-3.8.0pre1\src\tag_parse_lyrics3.cpp185331503@@YA_NAAVID3_Reader@@V?$basic_string@DU?$char_traits@D@std@@V?$allocator@D@2@@std@@@Z 10019900 f   id3libD:tag_parse_lyrics3.obj
 0001:00018a80       ?lyrics3ToSylt@?%c:\dokumente und einstellungen\tw\eigene dateien\projects\tagwriter.dll\vc32\vbid3lib-3.8.0pre1\src\tag_parse_lyrics3.cpp185331503@@YAXAAVID3_Reader@@AAVID3_Writer@@@Z 10019a80 f   id3libD:tag_parse_lyrics3.obj
 0001:00018c20       ?parse@v1@lyr3@dami@@YA_NAAVID3_TagImpl@@AAVID3_Reader@@@Z 10019c20 f   id3libD:tag_parse_lyrics3.obj
 0001:00019010       ?parse@v2@lyr3@dami@@YA_NAAVID3_TagImpl@@AAVID3_Reader@@@Z 1001a010 f   id3libD:tag_parse_lyrics3.obj
 0001:000198e0       ?empty@?$basic_string@DU?$char_traits@D@std@@V?$allocator@D@2@@std@@QBE_NXZ 1001a8e0 f i id3libD:tag_parse_lyrics3.obj
 0001:000199a0       ??0LineFeedReader@io@dami@@QAE@AAVID3_Reader@@@Z 1001a9a0 f i id3libD:tag_parse_lyrics3.obj
 0001:000199f0       ??_ELineFeedReader@io@dami@@UAEPAXI@Z 1001a9f0 f i id3libD:tag_parse_lyrics3.obj
 0001:000199f0       ??_GLineFeedReader@io@dami@@UAEPAXI@Z 1001a9f0 f i id3libD:tag_parse_lyrics3.obj
 0001:00019a50       ??1LineFeedReader@io@dami@@UAE@XZ 1001aa50 f i id3libD:tag_parse_lyrics3.obj
 0001:00019a90       ??0BStringWriter@io@dami@@QAE@AAV?$basic_string@EU?$char_traits@E@std@@V?$allocator@E@2@@std@@@Z 1001aa90 f i id3libD:tag_parse_lyrics3.obj
 0001:00019ae0       ??1BStringWriter@io@dami@@UAE@XZ 1001aae0 f i id3libD:tag_parse_lyrics3.obj
 0001:00019b10       ?close@BStringWriter@io@dami@@UAEXXZ 1001ab10 f i id3libD:tag_parse_lyrics3.obj
 0001:00019b40       ?flush@BStringWriter@io@dami@@UAEXXZ 1001ab40 f i id3libD:tag_parse_lyrics3.obj
 0001:00019b70       ?writeChars@BStringWriter@io@dami@@UAEIQBDI@Z 1001ab70 f i id3libD:tag_parse_lyrics3.obj
 0001:00019bc0       ?writeChars@BStringWriter@io@dami@@UAEIQBEI@Z 1001abc0 f i id3libD:tag_parse_lyrics3.obj
 0001:00019c10       ?getCur@BStringWriter@io@dami@@UAEIXZ 1001ac10 f i id3libD:tag_parse_lyrics3.obj
 0001:00019c50       ??_EBStringWriter@io@dami@@UAEPAXI@Z 1001ac50 f i id3libD:tag_parse_lyrics3.obj
 0001:00019c50       ??_GBStringWriter@io@dami@@UAEPAXI@Z 1001ac50 f i id3libD:tag_parse_lyrics3.obj
 0001:00019cb0       ?readSeconds@?%c:\dokumente und einstellungen\tw\eigene dateien\projects\tagwriter.dll\vc32\vbid3lib-3.8.0pre1\src\tag_parse_musicmatch.cpp653526426@@YAIAAVID3_Reader@@I@Z 1001acb0 f   id3libD:tag_parse_musicmatch.obj
 0001:00019df0       ?readTextFrame@?%c:\dokumente und einstellungen\tw\eigene dateien\projects\tagwriter.dll\vc32\vbid3lib-3.8.0pre1\src\tag_parse_musicmatch.cpp653526426@@YAPAVID3_Frame@@AAVID3_Reader@@W4ID3_FrameID@@V?$basic_string@DU?$char_traits@D@std@@V?$allocator@D@2@@std@@@Z 1001adf0 f   id3libD:tag_parse_musicmatch.obj
 0001:0001a0a0       ?parse@mm@dami@@YA_NAAVID3_TagImpl@@AAVID3_Reader@@@Z 1001b0a0 f   id3libD:tag_parse_musicmatch.obj
 0001:0001afe0       ??Nstd@@YA_NABV?$basic_string@DU?$char_traits@D@std@@V?$allocator@D@2@@0@PBD@Z 1001bfe0 f i id3libD:tag_parse_musicmatch.obj
 0001:0001b030       ??Mstd@@YA_NPBDABV?$basic_string@DU?$char_traits@D@std@@V?$allocator@D@2@@0@@Z 1001c030 f i id3libD:tag_parse_musicmatch.obj
 0001:0001b0f0       ?Set@ID3_FieldImpl@@UAEIPBEI@Z 1001c0f0 f   id3libD:field_binary.obj
 0001:0001b1d0       ?SetBinary@ID3_FieldImpl@@QAEIV?$basic_string@EU?$char_traits@E@std@@V?$allocator@E@2@@std@@@Z 1001c1d0 f   id3libD:field_binary.obj
 0001:0001b300       ?GetBinary@ID3_FieldImpl@@QBE?AV?$basic_string@EU?$char_traits@E@std@@V?$allocator@E@2@@std@@XZ 1001c300 f   id3libD:field_binary.obj
 0001:0001b3c0       ?GetRawBinary@ID3_FieldImpl@@UBEPBEXZ 1001c3c0 f   id3libD:field_binary.obj
 0001:0001b420       ?Get@ID3_FieldImpl@@UBEIPAEI@Z 1001c420 f   id3libD:field_binary.obj
 0001:0001b4d0       ?FromFile@ID3_FieldImpl@@UAEXPBD@Z 1001c4d0 f   id3libD:field_binary.obj
 0001:0001b5e0       ?ToFile@ID3_FieldImpl@@UBEXPBD@Z 1001c5e0 f   id3libD:field_binary.obj
 0001:0001b6a0       ?ParseBinary@ID3_FieldImpl@@IAE_NAAVID3_Reader@@@Z 1001c6a0 f   id3libD:field_binary.obj
 0001:0001b730       ?RenderBinary@ID3_FieldImpl@@IBEXAAVID3_Writer@@@Z 1001c730 f   id3libD:field_binary.obj
 0001:0001b7a0       ??4?$basic_string@EU?$char_traits@E@std@@V?$allocator@E@2@@std@@QAEAAV01@ABV01@@Z 1001c7a0 f i id3libD:field_binary.obj
 0001:0001b7e0       ?append@?$basic_string@EU?$char_traits@E@std@@V?$allocator@E@2@@std@@QAEAAV12@IE@Z 1001c7e0 f i id3libD:field_binary.obj
 0001:0001b880       ?assign@?$basic_string@EU?$char_traits@E@std@@V?$allocator@E@2@@std@@QAEAAV12@ABV12@@Z 1001c880 f i id3libD:field_binary.obj
 0001:0001b950       ?Set@ID3_FieldImpl@@UAEIPBG@Z 1001c950 f   id3libD:field_string_unicode.obj
 0001:0001ba40       ?Add@ID3_FieldImpl@@UAEIPBG@Z 1001ca40 f   id3libD:field_string_unicode.obj
 0001:0001bb30       ?Get@ID3_FieldImpl@@UBEIPAGI@Z 1001cb30 f   id3libD:field_string_unicode.obj
 0001:0001bc10       ?GetRawUnicodeText@ID3_FieldImpl@@UBEPBGXZ 1001cc10 f   id3libD:field_string_unicode.obj
 0001:0001bc90       ?GetRawUnicodeTextItem@ID3_FieldImpl@@UBEPBGI@Z 1001cc90 f   id3libD:field_string_unicode.obj
 0001:0001bde0       ?Get@ID3_FieldImpl@@UBEIPAGII@Z 1001cde0 f   id3libD:field_string_unicode.obj
 0001:0001bf70       ?Set@ID3_FieldImpl@@UAEIPBD@Z 1001cf70 f   id3libD:field_string_ascii.obj
 0001:0001c030       ?Get@ID3_FieldImpl@@UBEIPADI@Z 1001d030 f   id3libD:field_string_ascii.obj
 0001:0001c140       ?Get@ID3_FieldImpl@@UBEIPADII@Z 1001d140 f   id3libD:field_string_ascii.obj
 0001:0001c250       ?GetText@ID3_FieldImpl@@QBE?AV?$basic_string@DU?$char_traits@D@std@@V?$allocator@D@2@@std@@XZ 1001d250 f   id3libD:field_string_ascii.obj
 0001:0001c310       ?GetTextItem@ID3_FieldImpl@@QBE?AV?$basic_string@DU?$char_traits@D@std@@V?$allocator@D@2@@std@@I@Z 1001d310 f   id3libD:field_string_ascii.obj
 0001:0001c400       ?getFixed@?%c:\dokumente und einstellungen\tw\eigene dateien\projects\tagwriter.dll\vc32\vbid3lib-3.8.0pre1\src\field_string_ascii.cpp1480223421@@YA?AV?$basic_string@DU?$char_traits@D@std@@V?$allocator@D@2@@std@@V23@I@Z 1001d400 f   id3libD:field_string_ascii.obj
 0001:0001c4d0       ?SetText_i@ID3_FieldImpl@@AAEIV?$basic_string@DU?$char_traits@D@std@@V?$allocator@D@2@@std@@@Z 1001d4d0 f   id3libD:field_string_ascii.obj
 0001:0001c5f0       ?SetText@ID3_FieldImpl@@QAEIV?$basic_string@DU?$char_traits@D@std@@V?$allocator@D@2@@std@@@Z 1001d5f0 f   id3libD:field_string_ascii.obj
 0001:0001c6b0       ?AddText_i@ID3_FieldImpl@@AAEIV?$basic_string@DU?$char_traits@D@std@@V?$allocator@D@2@@std@@@Z 1001d6b0 f   id3libD:field_string_ascii.obj
 0001:0001c7c0       ?AddText@ID3_FieldImpl@@QAEIV?$basic_string@DU?$char_traits@D@std@@V?$allocator@D@2@@std@@@Z 1001d7c0 f   id3libD:field_string_ascii.obj
 0001:0001c880       ?Add@ID3_FieldImpl@@UAEIPBD@Z 1001d880 f   id3libD:field_string_ascii.obj
 0001:0001c940       ?GetRawText@ID3_FieldImpl@@UBEPBDXZ 1001d940 f   id3libD:field_string_ascii.obj
 0001:0001c9c0       ?GetRawTextItem@ID3_FieldImpl@@UBEPBDI@Z 1001d9c0 f   id3libD:field_string_ascii.obj
 0001:0001ca90       ?readEncodedText@?%c:\dokumente und einstellungen\tw\eigene dateien\projects\tagwriter.dll\vc32\vbid3lib-3.8.0pre1\src\field_string_ascii.cpp1480223421@@YA?AV?$basic_string@DU?$char_traits@D@std@@V?$allocator@D@2@@std@@AAVID3_Reader@@IW4ID3_TextEnc@@@Z 1001da90 f   id3libD:field_string_ascii.obj
 0001:0001cb10       ?readEncodedString@?%c:\dokumente und einstellungen\tw\eigene dateien\projects\tagwriter.dll\vc32\vbid3lib-3.8.0pre1\src\field_string_ascii.cpp1480223421@@YA?AV?$basic_string@DU?$char_traits@D@std@@V?$allocator@D@2@@std@@AAVID3_Reader@@W4ID3_TextEnc@@@Z 1001db10 f   id3libD:field_string_ascii.obj
 0001:0001cb80       ?writeEncodedText@?%c:\dokumente und einstellungen\tw\eigene dateien\projects\tagwriter.dll\vc32\vbid3lib-3.8.0pre1\src\field_string_ascii.cpp1480223421@@YAIAAVID3_Writer@@V?$basic_string@DU?$char_traits@D@std@@V?$allocator@D@2@@std@@W4ID3_TextEnc@@@Z 1001db80 f   id3libD:field_string_ascii.obj
 0001:0001cc50       ?writeEncodedString@?%c:\dokumente und einstellungen\tw\eigene dateien\projects\tagwriter.dll\vc32\vbid3lib-3.8.0pre1\src\field_string_ascii.cpp1480223421@@YAIAAVID3_Writer@@V?$basic_string@DU?$char_traits@D@std@@V?$allocator@D@2@@std@@W4ID3_TextEnc@@@Z 1001dc50 f   id3libD:field_string_ascii.obj
 0001:0001cd20       ?ParseText@ID3_FieldImpl@@IAE_NAAVID3_Reader@@@Z 1001dd20 f   id3libD:field_string_ascii.obj
 0001:0001cf50       ?RenderText@ID3_FieldImpl@@IBEXAAVID3_Writer@@@Z 1001df50 f   id3libD:field_string_ascii.obj
 0001:0001d000       ?GetNumTextItems@ID3_FieldImpl@@UBEIXZ 1001e000 f   id3libD:field_string_ascii.obj
 0001:0001d030       ??0?$basic_string@DU?$char_traits@D@std@@V?$allocator@D@2@@std@@QAE@ABV01@IIABV?$allocator@D@1@@Z 1001e030 f i id3libD:field_string_ascii.obj
 0001:0001d110       ?Set@ID3_FieldImpl@@UAEXI@Z 1001e110 f   id3libD:field_integer.obj
 0001:0001d150       ?SetInteger@ID3_FieldImpl@@QAEXI@Z 1001e150 f   id3libD:field_integer.obj
 0001:0001d1c0       ?Get@ID3_FieldImpl@@UBEIXZ 1001e1c0 f   id3libD:field_integer.obj
 0001:0001d200       ?GetInteger@ID3_FieldImpl@@QBEIXZ 1001e200 f   id3libD:field_integer.obj
 0001:0001d260       ?ParseInteger@ID3_FieldImpl@@IAE_NAAVID3_Reader@@@Z 1001e260 f   id3libD:field_integer.obj
 0001:0001d330       ?RenderInteger@ID3_FieldImpl@@IBEXAAVID3_Writer@@@Z 1001e330 f   id3libD:field_integer.obj
 0001:0001d410       ?ID3_VerRevToV2Spec@@YA?AW4ID3_V2Spec@@EE@Z 1001e410 f   id3libD:spec.obj
 0001:0001d4a0       ?ID3_V2SpecToVer@@YAEW4ID3_V2Spec@@@Z 1001e4a0 f   id3libD:spec.obj
 0001:0001d4f0       ?ID3_V2SpecToRev@@YAEW4ID3_V2Spec@@@Z 1001e4f0 f   id3libD:spec.obj
 0001:0001d540       ?_JumpToContinuation@@YGXPAXPAUEHRegistrationNode@@@Z 1001e540 f   LIBCMTD:trnsctrl.obj
 0001:0001d580       ?_CallMemberFunction0@@YGXPAX0@Z 1001e580 f   LIBCMTD:trnsctrl.obj
 0001:0001d590       ?_CallMemberFunction1@@YGXPAX00@Z 1001e590 f   LIBCMTD:trnsctrl.obj
 0001:0001d5a0       ?_CallMemberFunction2@@YGXPAX00H@Z 1001e5a0 f   LIBCMTD:trnsctrl.obj
 0001:0001d5b0       ?_UnwindNestedFrames@@YGXPAUEHRegistrationNode@@PAUEHExceptionRecord@@@Z 1001e5b0 f   LIBCMTD:trnsctrl.obj
 0001:0001d610       ___CxxFrameHandler         1001e610 f   LIBCMTD:trnsctrl.obj
 0001:0001d650       ___CxxLongjmpUnwind@4      1001e650 f   LIBCMTD:trnsctrl.obj
 0001:0001d680       ?_CallCatchBlock2@@YAPAXPAUEHRegistrationNode@@PBU_s_FuncInfo@@PAXHK@Z 1001e680 f   LIBCMTD:trnsctrl.obj
 0001:0001d730       ?_CallSETranslator@@YAHPAUEHExceptionRecord@@PAUEHRegistrationNode@@PAX2PBU_s_FuncInfo@@H1@Z 1001e730 f   LIBCMTD:trnsctrl.obj
 0001:0001d890       ?_GetRangeOfTrysToCheck@@YAPBU_s_TryBlockMapEntry@@PBU_s_FuncInfo@@HHPAI1@Z 1001e890 f   LIBCMTD:trnsctrl.obj
 0001:0001d920       __chkesp                   1001e920 f   LIBCMTD:chkesp.obj
 0001:0001d958       __global_unwind2           1001e958 f   LIBCMTD:exsup.obj
 0001:0001d99a       __local_unwind2            1001e99a f   LIBCMTD:exsup.obj
 0001:0001d9f2       __NLG_Return2              1001e9f2 f   LIBCMTD:exsup.obj
 0001:0001da02       __abnormal_termination     1001ea02 f   LIBCMTD:exsup.obj
 0001:0001da25       __NLG_Notify1              1001ea25 f   LIBCMTD:exsup.obj
 0001:0001da2e       __NLG_Notify               1001ea2e f   LIBCMTD:exsup.obj
 0001:0001da41       __NLG_Dispatch             1001ea41 f   LIBCMTD:exsup.obj
 0001:0001da50       ??3@YAXPAX@Z               1001ea50 f   LIBCMTD:dbgdel.obj
 0001:0001db00       ??2@YAPAXI@Z               1001eb00 f   LIBCMTD:new.obj
 0001:0001db20       _memset                    1001eb20 f   LIBCMTD:memset.obj
 0001:0001db80       _atol                      1001eb80 f   LIBCMTD:atox.obj
 0001:0001dc80       _atoi                      1001ec80 f   LIBCMTD:atox.obj
 0001:0001dca0       __atoi64                   1001eca0 f   LIBCMTD:atox.obj
 0001:0001ddd0       _strcmp                    1001edd0 f   LIBCMTD:strcmp.obj
 0001:0001de60       _strncpy                   1001ee60 f   LIBCMTD:strncpy.obj
 0001:0001df60       _strcpy                    1001ef60 f   LIBCMTD:strcat.obj
 0001:0001df70       _strcat                    1001ef70 f   LIBCMTD:strcat.obj
 0001:0001e050       __CRT_INIT@12              1001f050 f   LIBCMTD:dllcrt0.obj
 0001:0001e190       __DllMainCRTStartup@12     1001f190 f   LIBCMTD:dllcrt0.obj
 0001:0001e290       __amsg_exit                1001f290 f   LIBCMTD:dllcrt0.obj
 0001:0001e2d0       __purecall                 1001f2d0 f   LIBCMTD:purevirt.obj
 0001:0001e2e0       __onexit                   1001f2e0 f   LIBCMTD:onexit.obj
 0001:0001e3a0       _atexit                    1001f3a0 f   LIBCMTD:onexit.obj
 0001:0001e3c0       ___onexitinit              1001f3c0 f   LIBCMTD:onexit.obj
 0001:0001e410       ??0exception@@QAE@XZ       1001f410 f   LIBCMTD:stdexcpt.obj
 0001:0001e440       ??_Gexception@@UAEPAXI@Z   1001f440 f i LIBCMTD:stdexcpt.obj
 0001:0001e440       ??_Eexception@@UAEPAXI@Z   1001f440 f i LIBCMTD:stdexcpt.obj
 0001:0001e470       ??0exception@@QAE@ABQBD@Z  1001f470 f   LIBCMTD:stdexcpt.obj
 0001:0001e4e0       ??0exception@@QAE@ABV0@@Z  1001f4e0 f   LIBCMTD:stdexcpt.obj
 0001:0001e570       ??4exception@@QAEAAV0@ABV0@@Z 1001f570 f   LIBCMTD:stdexcpt.obj
 0001:0001e5a0       ??1exception@@UAE@XZ       1001f5a0 f   LIBCMTD:stdexcpt.obj
 0001:0001e5e0       ?what@exception@@UBEPBDXZ  1001f5e0 f   LIBCMTD:stdexcpt.obj
 0001:0001e610       ??1type_info@@UAE@XZ       1001f610 f   LIBCMTD:typinfo.obj
 0001:0001e650       ??_Gtype_info@@UAEPAXI@Z   1001f650 f i LIBCMTD:typinfo.obj
 0001:0001e650       ??_Etype_info@@UAEPAXI@Z   1001f650 f i LIBCMTD:typinfo.obj
 0001:0001e680       ??8type_info@@QBEHABV0@@Z  1001f680 f   LIBCMTD:typinfo.obj
 0001:0001e6b0       ??9type_info@@QBEHABV0@@Z  1001f6b0 f   LIBCMTD:typinfo.obj
 0001:0001e6e0       ?before@type_info@@QBEHABV1@@Z 1001f6e0 f   LIBCMTD:typinfo.obj
 0001:0001e710       ?raw_name@type_info@@QBEPBDXZ 1001f710 f   LIBCMTD:typinfo.obj
 0001:0001e730       ??0type_info@@AAE@ABV0@@Z  1001f730 f   LIBCMTD:typinfo.obj
 0001:0001e750       ??4type_info@@AAEAAV0@ABV0@@Z 1001f750 f   LIBCMTD:typinfo.obj
 0001:0001e760       __CxxThrowException@8      1001f760 f   LIBCMTD:throw.obj
 0001:0001e7b0       _strlen                    1001f7b0 f   LIBCMTD:strlen.obj
 0001:0001e830       _memcpy                    1001f830 f   LIBCMTD:memcpy.obj
 0001:0001eb70       _memmove                   1001fb70 f   LIBCMTD:memmove.obj
 0001:0001eeb0       _wcslen                    1001feb0 f   LIBCMTD:wcslen.obj
 0001:0001eee0       _memcmp                    1001fee0 f   LIBCMTD:memcmp.obj
 0001:0001ef90       _fclose                    1001ff90 f   LIBCMTD:fclose.obj
 0001:0001f020       __fclose_lk                10020020 f   LIBCMTD:fclose.obj
 0001:0001f0e0       _fread                     100200e0 f   LIBCMTD:fread.obj
 0001:0001f120       __fread_lk                 10020120 f   LIBCMTD:fread.obj
 0001:0001f2f0       _rewind                    100202f0 f   LIBCMTD:rewind.obj
 0001:0001f3e0       _fwrite                    100203e0 f   LIBCMTD:fwrite.obj
 0001:0001f420       __fwrite_lk                10020420 f   LIBCMTD:fwrite.obj
 0001:0001f640       _tmpnam                    10020640 f   LIBCMTD:tmpfile.obj
 0001:0001f740       _tmpfile                   10020740 f   LIBCMTD:tmpfile.obj
 0001:0001f9c0       ___inc_tmpoff              100209c0 f   LIBCMTD:tmpfile.obj
 0001:0001f9e0       _isalpha                   100209e0 f   LIBCMTD:_ctype.obj
 0001:0001fa30       _isupper                   10020a30 f   LIBCMTD:_ctype.obj
 0001:0001fa70       _islower                   10020a70 f   LIBCMTD:_ctype.obj
 0001:0001fab0       _isdigit                   10020ab0 f   LIBCMTD:_ctype.obj
 0001:0001faf0       _isxdigit                  10020af0 f   LIBCMTD:_ctype.obj
 0001:0001fb40       _isspace                   10020b40 f   LIBCMTD:_ctype.obj
 0001:0001fb80       _ispunct                   10020b80 f   LIBCMTD:_ctype.obj
 0001:0001fbc0       _isalnum                   10020bc0 f   LIBCMTD:_ctype.obj
 0001:0001fc10       _isprint                   10020c10 f   LIBCMTD:_ctype.obj
 0001:0001fc60       _isgraph                   10020c60 f   LIBCMTD:_ctype.obj
 0001:0001fcb0       _iscntrl                   10020cb0 f   LIBCMTD:_ctype.obj
 0001:0001fcf0       ___isascii                 10020cf0 f   LIBCMTD:_ctype.obj
 0001:0001fd00       ___toascii                 10020d00 f   LIBCMTD:_ctype.obj
 0001:0001fd10       ___iscsymf                 10020d10 f   LIBCMTD:_ctype.obj
 0001:0001fd70       ___iscsym                  10020d70 f   LIBCMTD:_ctype.obj
 0001:0001fdd0       _ftell                     10020dd0 f   LIBCMTD:ftell.obj
 0001:0001fe40       __ftell_lk                 10020e40 f   LIBCMTD:ftell.obj
 0001:000200e0       _fseek                     100210e0 f   LIBCMTD:fseek.obj
 0001:00020150       __fseek_lk                 10021150 f   LIBCMTD:fseek.obj
 0001:00020280       __fsopen                   10021280 f   LIBCMTD:fopen.obj
 0001:00020380       _fopen                     10021380 f   LIBCMTD:fopen.obj
 0001:000203a0       ___InternalCxxFrameHandler 100213a0 f   LIBCMTD:frame.obj
 0001:00020910       ___FrameUnwindToState      10021910 f   LIBCMTD:frame.obj
 0001:00020f20       ?_DestructExceptionObject@@YAXPAUEHExceptionRecord@@E@Z 10021f20 f   LIBCMTD:frame.obj
 0001:00021000       __CallSettingFrame@12      10022000 f   LIBCMTD:lowhelpr.obj
 0001:00021027       __NLG_Return               10022027 f   LIBCMTD:lowhelpr.obj
 0001:00021050       __mtinit                   10022050 f   LIBCMTD:tidtable.obj
 0001:000210e0       __mtterm                   100220e0 f   LIBCMTD:tidtable.obj
 0001:00021110       __initptd                  10022110 f   LIBCMTD:tidtable.obj
 0001:00021130       __getptd                   10022130 f   LIBCMTD:tidtable.obj
 0001:000211d0       __freeptd                  100221d0 f   LIBCMTD:tidtable.obj
 0001:000212e0       ___threadid                100222e0 f   LIBCMTD:tidtable.obj
 0001:000212f0       ___threadhandle            100222f0 f   LIBCMTD:tidtable.obj
 0001:00021300       ?terminate@@YAXXZ          10022300 f   LIBCMTD:hooks.obj
 0001:00021390       ?unexpected@@YAXXZ         10022390 f   LIBCMTD:hooks.obj
 0001:000213b0       ?_inconsistency@@YAXXZ     100223b0 f   LIBCMTD:hooks.obj
 0001:00021440       __CrtDbgBreak              10022440 f   LIBCMTD:dbgrpt.obj
 0001:00021450       __CrtSetReportMode         10022450 f   LIBCMTD:dbgrpt.obj
 0001:000214b0       __CrtSetReportFile         100224b0 f   LIBCMTD:dbgrpt.obj
 0001:00021530       __CrtSetReportHook         10022530 f   LIBCMTD:dbgrpt.obj
 0001:00021550       __CrtDbgReport             10022550 f   LIBCMTD:dbgrpt.obj
 0001:00021bf0       __mtinitlocks              10022bf0 f   LIBCMTD:mlock.obj
 0001:00021c30       __mtdeletelocks            10022c30 f   LIBCMTD:mlock.obj
 0001:00021cd0       __lock                     10022cd0 f   LIBCMTD:mlock.obj
 0001:00021d70       __unlock                   10022d70 f   LIBCMTD:mlock.obj
 0001:00021d90       __lockerr_exit             10022d90 f   LIBCMTD:mlock.obj
 0001:00021db0       _malloc                    10022db0 f   LIBCMTD:dbgheap.obj
 0001:00021de0       __malloc_dbg               10022de0 f   LIBCMTD:dbgheap.obj
 0001:00021e10       __nh_malloc                10022e10 f   LIBCMTD:dbgheap.obj
 0001:00021e30       __nh_malloc_dbg            10022e30 f   LIBCMTD:dbgheap.obj
 0001:00021ed0       __heap_alloc               10022ed0 f   LIBCMTD:dbgheap.obj
 0001:00021ef0       __heap_alloc_dbg           10022ef0 f   LIBCMTD:dbgheap.obj
 0001:00022210       _calloc                    10023210 f   LIBCMTD:dbgheap.obj
 0001:00022240       __calloc_dbg               10023240 f   LIBCMTD:dbgheap.obj
 0001:000222a0       _realloc                   100232a0 f   LIBCMTD:dbgheap.obj
 0001:000222d0       __realloc_dbg              100232d0 f   LIBCMTD:dbgheap.obj
 0001:00022880       __expand                   10023880 f   LIBCMTD:dbgheap.obj
 0001:000228b0       __expand_dbg               100238b0 f   LIBCMTD:dbgheap.obj
 0001:00022940       _free                      10023940 f   LIBCMTD:dbgheap.obj
 0001:00022960       __free_lk                  10023960 f   LIBCMTD:dbgheap.obj
 0001:00022980       __free_dbg                 10023980 f   LIBCMTD:dbgheap.obj
 0001:000229f0       __free_dbg_lk              100239f0 f   LIBCMTD:dbgheap.obj
 0001:00022de0       __msize                    10023de0 f   LIBCMTD:dbgheap.obj
 0001:00022e00       __msize_dbg                10023e00 f   LIBCMTD:dbgheap.obj
 0001:00022f90       __CrtSetBreakAlloc         10023f90 f   LIBCMTD:dbgheap.obj
 0001:00022fb0       __CrtSetDbgBlockType       10023fb0 f   LIBCMTD:dbgheap.obj
 0001:00023090       __CrtSetAllocHook          10024090 f   LIBCMTD:dbgheap.obj
 0001:00023140       __CrtCheckMemory           10024140 f   LIBCMTD:dbgheap.obj
 0001:000234f0       __CrtSetDbgFlag            100244f0 f   LIBCMTD:dbgheap.obj
 0001:00023520       __CrtDoForAllClientObjects 10024520 f   LIBCMTD:dbgheap.obj
 0001:000235d0       __CrtIsValidPointer        100245d0 f   LIBCMTD:dbgheap.obj
 0001:00023620       __CrtIsValidHeapPointer    10024620 f   LIBCMTD:dbgheap.obj
 0001:00023750       __CrtIsMemoryBlock         10024750 f   LIBCMTD:dbgheap.obj
 0001:00023880       __CrtSetDumpClient         10024880 f   LIBCMTD:dbgheap.obj
 0001:000238a0       __CrtMemCheckpoint         100248a0 f   LIBCMTD:dbgheap.obj
 0001:00023a50       __CrtMemDifference         10024a50 f   LIBCMTD:dbgheap.obj
 0001:00023b80       __CrtMemDumpAllObjectsSince 10024b80 f   LIBCMTD:dbgheap.obj
 0001:00023fa0       __CrtDumpMemoryLeaks       10024fa0 f   LIBCMTD:dbgheap.obj
 0001:00024020       __CrtMemDumpStatistics     10025020 f   LIBCMTD:dbgheap.obj
 0001:000240f0       __isctype                  100250f0 f   LIBCMTD:isctype.obj
 0001:000241b0       __allmul                   100251b0 f   LIBCMTD:llmul.obj
 0001:000241f0       __cinit                    100251f0 f   LIBCMTD:crt0dat.obj
 0001:00024230       _exit                      10025230 f   LIBCMTD:crt0dat.obj
 0001:00024250       __exit                     10025250 f   LIBCMTD:crt0dat.obj
 0001:00024270       __cexit                    10025270 f   LIBCMTD:crt0dat.obj
 0001:00024290       __c_exit                   10025290 f   LIBCMTD:crt0dat.obj
 0001:000243a0       __lockexit                 100253a0 f   LIBCMTD:crt0dat.obj
 0001:000243b0       __unlockexit               100253b0 f   LIBCMTD:crt0dat.obj
 0001:000243f0       __ioinit                   100253f0 f   LIBCMTD:ioinit.obj
 0001:00024720       __ioterm                   10025720 f   LIBCMTD:ioinit.obj
 0001:000247c0       __setenvp                  100257c0 f   LIBCMTD:stdenvp.obj
 0001:00024910       __setargv                  10025910 f   LIBCMTD:stdargv.obj
 0001:00024e20       ___crtGetEnvironmentStringsA 10025e20 f   LIBCMTD:a_env.obj
 0001:00025040       __GetLinkerVersion         10026040 f   LIBCMTD:heapinit.obj
 0001:000250a0       ___heap_select             100260a0 f   LIBCMTD:heapinit.obj
 0001:000252d0       __heap_init                100262d0 f   LIBCMTD:heapinit.obj
 0001:00025360       __heap_term                10026360 f   LIBCMTD:heapinit.obj
 0001:00025450       __FF_MSGBANNER             10026450 f   LIBCMTD:crt0msg.obj
 0001:000254a0       __NMSG_WRITE               100264a0 f   LIBCMTD:crt0msg.obj
 0001:00025660       __GET_RTERRMSG             10026660 f   LIBCMTD:crt0msg.obj
 0001:000256b0       __free_base                100266b0 f   LIBCMTD:free.obj
 0001:00025800       ?__CxxUnhandledExceptionFilter@@YGJPAU_EXCEPTION_POINTERS@@@Z 10026800 f   LIBCMTD:unhandld.obj
 0001:00025860       ?__CxxSetUnhandledExceptionFilter@@YAXXZ 10026860 f   LIBCMTD:unhandld.obj
 0001:00025880       ?__CxxRestoreUnhandledExceptionFilter@@YAXXZ 10026880 f   LIBCMTD:unhandld.obj
 0001:000258a0       ___initstdio               100268a0 f   LIBCMTD:_file.obj
 0001:000259d0       ___endstdio                100269d0 f   LIBCMTD:_file.obj
 0001:000259f0       __lock_file                100269f0 f   LIBCMTD:_file.obj
 0001:00025a30       __lock_file2               10026a30 f   LIBCMTD:_file.obj
 0001:00025a60       __unlock_file              10026a60 f   LIBCMTD:_file.obj
 0001:00025aa0       __unlock_file2             10026aa0 f   LIBCMTD:_file.obj
 0001:00025ad0       __close                    10026ad0 f   LIBCMTD:close.obj
 0001:00025b50       __close_lk                 10026b50 f   LIBCMTD:close.obj
 0001:00025c00       __freebuf                  10026c00 f   LIBCMTD:_freebuf.obj
 0001:00025ca0       _fflush                    10026ca0 f   LIBCMTD:fflush.obj
 0001:00025cf0       __fflush_lk                10026cf0 f   LIBCMTD:fflush.obj
 0001:00025d40       __flush                    10026d40 f   LIBCMTD:fflush.obj
 0001:00025e00       __flushall                 10026e00 f   LIBCMTD:fflush.obj
 0001:00025f50       __filbuf                   10026f50 f   LIBCMTD:_filbuf.obj
 0001:00026140       __read                     10027140 f   LIBCMTD:read.obj
 0001:000261d0       __read_lk                  100271d0 f   LIBCMTD:read.obj
 0001:00026620       __lseek                    10027620 f   LIBCMTD:lseek.obj
 0001:000266b0       __lseek_lk                 100276b0 f   LIBCMTD:lseek.obj
 0001:00026770       __flsbuf                   10027770 f   LIBCMTD:_flsbuf.obj
 0001:000269f0       __write                    100279f0 f   LIBCMTD:write.obj
 0001:00026a80       __write_lk                 10027a80 f   LIBCMTD:write.obj
 0001:00026d00       __access                   10027d00 f   LIBCMTD:access.obj
 0001:00026d60       __dosmaperr                10027d60 f   LIBCMTD:dosmap.obj
 0001:00026e00       __errno                    10027e00 f   LIBCMTD:dosmap.obj
 0001:00026e10       ___doserrno                10027e10 f   LIBCMTD:dosmap.obj
 0001:00026e20       __open                     10027e20 f   LIBCMTD:open.obj
 0001:00026e60       __sopen                    10027e60 f   LIBCMTD:open.obj
 0001:000273c0       __getstream                100283c0 f   LIBCMTD:stream.obj
 0001:00027540       __itoa                     10028540 f   LIBCMTD:xtoa.obj
 0001:00027660       __ltoa                     10028660 f   LIBCMTD:xtoa.obj
 0001:000276a0       __ultoa                    100286a0 f   LIBCMTD:xtoa.obj
 0001:000276c0       __i64toa                   100286c0 f   LIBCMTD:xtoa.obj
 0001:00027810       __ui64toa                  10028810 f   LIBCMTD:xtoa.obj
 0001:00027830       __getpid                   10028830 f   LIBCMTD:getpid.obj
 0001:00027840       _strtol                    10028840 f   LIBCMTD:strtol.obj
 0001:00027ba0       _strtoul                   10028ba0 f   LIBCMTD:strtol.obj
 0001:00027bc0       __mbsrchr                  10028bc0 f   LIBCMTD:mbsrchr.obj
 0001:00027c90       __rmtmp                    10028c90 f   LIBCMTD:rmtmp.obj
 0001:00027d70       __openfile                 10028d70 f   LIBCMTD:_open.obj
 0001:00028100       ?_ValidateRead@@YAHPBXI@Z  10029100 f   LIBCMTD:validate.obj
 0001:00028130       ?_ValidateWrite@@YAHPAXI@Z 10029130 f   LIBCMTD:validate.obj
 0001:00028160       ?_ValidateExecute@@YAHP6GHXZ@Z 10029160 f   LIBCMTD:validate.obj
 0001:00028190       __except_handler3          10029190 f   LIBCMTD:exsup3.obj
 0001:0002824d       __seh_longjmp_unwind@4     1002924d f   LIBCMTD:exsup3.obj
 0001:00028270       __XcptFilter               10029270 f   LIBCMTD:winxfltr.obj
 0001:00028490       _abort                     10029490 f   LIBCMTD:abort.obj
 0001:000284b0       __snprintf                 100294b0 f   LIBCMTD:snprintf.obj
 0001:000285b0       __vsnprintf                100295b0 f   LIBCMTD:vsnprint.obj
 0001:000286b0       __chkstk                   100296b0 f   LIBCMTD:chkstk.obj
 0001:000286b0       __alloca_probe             100296b0 f   LIBCMTD:chkstk.obj
 0001:000286e0       _signal                    100296e0 f   LIBCMTD:winsig.obj
 0001:000289b0       _raise                     100299b0 f   LIBCMTD:winsig.obj
 0001:00028c50       ___fpecode                 10029c50 f   LIBCMTD:winsig.obj
 0001:00028c60       ___pxcptinfoptrs           10029c60 f   LIBCMTD:winsig.obj
 0001:00028c70       ___crtMessageBoxA          10029c70 f   LIBCMTD:crtmbox.obj
 0001:00028d30       ?_set_new_handler@@YAP6AHI@ZP6AHI@Z@Z 10029d30 f   LIBCMTD:handler.obj
 0001:00028d60       ?_query_new_handler@@YAP6AHI@ZXZ 10029d60 f   LIBCMTD:handler.obj
 0001:00028d70       __callnewh                 10029d70 f   LIBCMTD:handler.obj
 0001:00028da0       __malloc_base              10029da0 f   LIBCMTD:malloc.obj
 0001:00028dc0       __nh_malloc_base           10029dc0 f   LIBCMTD:malloc.obj
 0001:00028e20       __heap_alloc_base          10029e20 f   LIBCMTD:malloc.obj
 0001:00028f70       __CrtDefaultAllocHook      10029f70 f   LIBCMTD:dbghook.obj
 0001:00028f80       __expand_base              10029f80 f   LIBCMTD:expand.obj
 0001:00029190       __realloc_base             1002a190 f   LIBCMTD:realloc.obj
 0001:00029630       __heapchk                  1002a630 f   LIBCMTD:heapchk.obj
 0001:00029740       __heapset                  1002a740 f   LIBCMTD:heapchk.obj
 0001:00029750       __get_sbh_threshold        1002a750 f   LIBCMTD:sbheap.obj
 0001:00029780       __set_sbh_threshold        1002a780 f   LIBCMTD:sbheap.obj
 0001:00029890       ___sbh_heap_init           1002a890 f   LIBCMTD:sbheap.obj
 0001:00029900       ___sbh_find_block          1002a900 f   LIBCMTD:sbheap.obj
 0001:00029960       ___sbh_verify_block        1002a960 f   LIBCMTD:sbheap.obj
 0001:000299c0       ___sbh_free_block          1002a9c0 f   LIBCMTD:sbheap.obj
 0001:00029fa0       ___sbh_alloc_block         1002afa0 f   LIBCMTD:sbheap.obj
 0001:0002a4e0       ___sbh_alloc_new_region    1002b4e0 f   LIBCMTD:sbheap.obj
 0001:0002a5f0       ___sbh_alloc_new_group     1002b5f0 f   LIBCMTD:sbheap.obj
 0001:0002a7e0       ___sbh_resize_block        1002b7e0 f   LIBCMTD:sbheap.obj
 0001:0002add0       ___sbh_heapmin             1002bdd0 f   LIBCMTD:sbheap.obj
 0001:0002af00       ___sbh_heap_check          1002bf00 f   LIBCMTD:sbheap.obj
 0001:0002b520       __get_old_sbh_threshold    1002c520 f   LIBCMTD:sbheap.obj
 0001:0002b530       __set_old_sbh_threshold    1002c530 f   LIBCMTD:sbheap.obj
 0001:0002b560       ___old_sbh_new_region      1002c560 f   LIBCMTD:sbheap.obj
 0001:0002b740       ___old_sbh_release_region  1002c740 f   LIBCMTD:sbheap.obj
 0001:0002b7c0       ___old_sbh_decommit_pages  1002c7c0 f   LIBCMTD:sbheap.obj
 0001:0002b920       ___old_sbh_find_block      1002c920 f   LIBCMTD:sbheap.obj
 0001:0002b9b0       ___old_sbh_free_block      1002c9b0 f   LIBCMTD:sbheap.obj
 0001:0002ba20       ___old_sbh_alloc_block     1002ca20 f   LIBCMTD:sbheap.obj
 0001:0002bde0       ___old_sbh_alloc_block_from_page 1002cde0 f   LIBCMTD:sbheap.obj
 0001:0002c090       ___old_sbh_resize_block    1002d090 f   LIBCMTD:sbheap.obj
 0001:0002c200       ___old_sbh_heap_check      1002d200 f   LIBCMTD:sbheap.obj
 0001:0002c440       _sprintf                   1002d440 f   LIBCMTD:sprintf.obj
 0001:0002c540       ___crtGetStringTypeA       1002d540 f   LIBCMTD:a_str.obj
 0001:0002c700       __setmbcp                  1002d700 f   LIBCMTD:mbctype.obj
 0001:0002cec0       __getmbcp                  1002dec0 f   LIBCMTD:mbctype.obj
 0001:0002cee0       ___initmbctable            1002dee0 f   LIBCMTD:mbctype.obj
 0001:0002cf20       _strchr                    1002df20 f   LIBCMTD:strchr.obj
 0001:0002cf26       ___from_strstr_to_strchr   1002df26 f   LIBCMTD:strchr.obj
 0001:0002cfe0       _strstr                    1002dfe0 f   LIBCMTD:strstr.obj
 0001:0002d060       _strncmp                   1002e060 f   LIBCMTD:strncmp.obj
 0001:0002d0a0       __fcloseall                1002e0a0 f   LIBCMTD:closeall.obj
 0001:0002d180       __alloc_osfhnd             1002e180 f   LIBCMTD:osfinfo.obj
 0001:0002d370       __set_osfhnd               1002e370 f   LIBCMTD:osfinfo.obj
 0001:0002d430       __free_osfhnd              1002e430 f   LIBCMTD:osfinfo.obj
 0001:0002d510       __get_osfhandle            1002e510 f   LIBCMTD:osfinfo.obj
 0001:0002d580       __open_osfhandle           1002e580 f   LIBCMTD:osfinfo.obj
 0001:0002d690       __lock_fhandle             1002e690 f   LIBCMTD:osfinfo.obj
 0001:0002d720       __unlock_fhandle           1002e720 f   LIBCMTD:osfinfo.obj
 0001:0002d750       __commit                   1002e750 f   LIBCMTD:commit.obj
 0001:0002d830       __getbuf                   1002e830 f   LIBCMTD:_getbuf.obj
 0001:0002d900       __isatty                   1002e900 f   LIBCMTD:isatty.obj
 0001:0002d940       __chsize                   1002e940 f   LIBCMTD:chsize.obj
 0001:0002d9c0       __chsize_lk                1002e9c0 f   LIBCMTD:chsize.obj
 0001:0002dbf0       __aulldiv                  1002ebf0 f   LIBCMTD:ulldiv.obj
 0001:0002dc60       __aullrem                  1002ec60 f   LIBCMTD:ullrem.obj
 0001:0002dce0       __toupper                  1002ece0 f   LIBCMTD:toupper.obj
 0001:0002dcf0       _toupper                   1002ecf0 f   LIBCMTD:toupper.obj
 0001:0002dd90       __toupper_lk               1002ed90 f   LIBCMTD:toupper.obj
 0001:0002dec0       _strrchr                   1002eec0 f   LIBCMTD:strrchr.obj
 0001:0002def0       __output                   1002eef0 f   LIBCMTD:output.obj
 0001:0002ed90       ___crtLCMapStringA         1002fd90 f   LIBCMTD:a_map.obj
 0001:0002f0f0       __setmode                  100300f0 f   LIBCMTD:setmode.obj
 0001:0002f170       __setmode_lk               10030170 f   LIBCMTD:setmode.obj
 0001:0002f240       _setlocale                 10030240 f   LIBCMTD:setlocal.obj
 0001:0002f8d0       __expandlocale             100308d0 f   LIBCMTD:setlocal.obj
 0001:0002fa60       ___init_dummy              10030a60 f   LIBCMTD:setlocal.obj
 0001:0002fa70       __strcats                  10030a70 f   LIBCMTD:setlocal.obj
 0001:0002fac0       ___lc_strtolc              10030ac0 f   LIBCMTD:setlocal.obj
 0001:0002fc20       ___lc_lctostr              10030c20 f   LIBCMTD:setlocal.obj
 0001:0002fc90       _wctomb                    10030c90 f   LIBCMTD:wctomb.obj
 0001:0002fd10       __wctomb_lk                10030d10 f   LIBCMTD:wctomb.obj
 0001:0002fdb0       ___init_time               10030db0 f   LIBCMTD:inittime.obj
 0001:00030730       ___init_numeric            10031730 f   LIBCMTD:initnum.obj
 0001:00030a60       ___init_monetary           10031a60 f   LIBCMTD:initmon.obj
 0001:00030ec0       ___init_ctype              10031ec0 f   LIBCMTD:initctyp.obj
 0001:00031260       ___init_collate            10032260 f   LIBCMTD:initcoll.obj
 0001:00031270       _strcspn                   10032270 f   LIBCMTD:strcspn.obj
 0001:000312b0       _strpbrk                   100322b0 f   LIBCMTD:strpbrk.obj
 0001:000312f0       ___get_qualified_locale    100322f0 f   LIBCMTD:getqloc.obj
 0001:00032090       __fptrap                   10033090 f   LIBCMTD:crt0fp.obj
 0001:000320a0       __Getdays                  100330a0 f   LIBCMTD:strftime.obj
 0001:000321d0       __Getmonths                100331d0 f   LIBCMTD:strftime.obj
 0001:00032300       __Gettnames                10033300 f   LIBCMTD:strftime.obj
 0001:00032670       _strftime                  10033670 f   LIBCMTD:strftime.obj
 0001:00032690       __Strftime                 10033690 f   LIBCMTD:strftime.obj
 0001:00033510       ___getlocaleinfo           10034510 f   LIBCMTD:inithelp.obj
 0001:000337a0       _localeconv                100347a0 f   LIBCMTD:lconv.obj
 0001:000337b0       ___crtGetStringTypeW       100347b0 f   LIBCMTD:w_str.obj
 0001:00033a20       __strcmpi                  10034a20 f   LIBCMTD:stricmp.obj
 0001:00033a20       __stricmp                  10034a20 f   LIBCMTD:stricmp.obj
 0001:00033af0       __strnicmp                 10034af0 f   LIBCMTD:strnicmp.obj
 0001:00033c00       ___tzset                   10034c00 f   LIBCMTD:tzset.obj
 0001:00033c40       __tzset                    10034c40 f   LIBCMTD:tzset.obj
 0001:00034010       __isindst                  10035010 f   LIBCMTD:tzset.obj
 0001:00034540       ___crtGetLocaleInfoW       10035540 f   LIBCMTD:w_loc.obj
 0001:000346e0       ___crtGetLocaleInfoA       100356e0 f   LIBCMTD:a_loc.obj
 0001:00034890       __tolower                  10035890 f   LIBCMTD:tolower.obj
 0001:000348a0       _tolower                   100358a0 f   LIBCMTD:tolower.obj
 0001:00034940       __tolower_lk               10035940 f   LIBCMTD:tolower.obj
 0001:00034a70       _getenv                    10035a70 f   LIBCMTD:getenv.obj
 0001:00034aa0       __getenv_lk                10035aa0 f   LIBCMTD:getenv.obj
 0001:00034b70       __mbsnbicoll               10035b70 f   LIBCMTD:mbsnbico.obj
 0001:00034bc0       ___wtomb_environ           10035bc0 f   LIBCMTD:wtombenv.obj
 0001:00034c70       ___crtCompareStringA       10035c70 f   LIBCMTD:a_cmp.obj
 0001:000350c0       ___crtsetenv               100360c0 f   LIBCMTD:setenv.obj
 0001:00035510       __mbschr                   10036510 f   LIBCMTD:mbschr.obj
 0001:00035600       ??0ifstream@@QAE@XZ        10036600 f   libcid:ifstream.obj
 0001:000356f0       ?delbuf@ios@@QAEXH@Z       100366f0 f i libcid:ifstream.obj
 0001:00035710       ??3@YAXPAXHPBDH@Z          10036710 f i libcid:ifstream.obj
 0001:00035730       ??_Eifstream@@UAEPAXI@Z    10036730 f i libcid:ifstream.obj
 0001:00035730       ??_Gifstream@@UAEPAXI@Z    10036730 f i libcid:ifstream.obj
 0001:00035770       ??0ifstream@@QAE@PBDHH@Z   10036770 f   libcid:ifstream.obj
 0001:000358a0       ??0ifstream@@QAE@H@Z       100368a0 f   libcid:ifstream.obj
 0001:00035990       ??0ifstream@@QAE@HPADH@Z   10036990 f   libcid:ifstream.obj
 0001:00035a80       ??1ifstream@@UAE@XZ        10036a80 f   libcid:ifstream.obj
 0001:00035ab0       ?setbuf@ifstream@@QAEPAVstreambuf@@PADH@Z 10036ab0 f   libcid:ifstream.obj
 0001:00035b20       ?clear@ios@@QAEXH@Z        10036b20 f i libcid:ifstream.obj
 0001:00035b50       ?lock@ios@@QAAXXZ          10036b50 f i libcid:ifstream.obj
 0001:00035b60       ?unlock@ios@@QAAXXZ        10036b60 f i libcid:ifstream.obj
 0001:00035b70       ?attach@ifstream@@QAEXH@Z  10036b70 f   libcid:ifstream.obj
 0001:00035bc0       ?open@ifstream@@QAEXPBDHH@Z 10036bc0 f   libcid:ifstream.obj
 0001:00035c20       ?close@ifstream@@QAEXXZ    10036c20 f   libcid:ifstream.obj
 0001:00035c80       ??0ios@@IAE@XZ             10036c80 f   libcid:_ios.obj
 0001:00035d00       ??_Eios@@UAEPAXI@Z         10036d00 f i libcid:_ios.obj
 0001:00035d00       ??_Gios@@UAEPAXI@Z         10036d00 f i libcid:_ios.obj
 0001:00035d30       ??0ios@@QAE@PAVstreambuf@@@Z 10036d30 f   libcid:_ios.obj
 0001:00035dc0       ??0ios@@IAE@ABV0@@Z        10036dc0 f   libcid:_ios.obj
 0001:00035e00       ??1ios@@UAE@XZ             10036e00 f   libcid:_ios.obj
 0001:00035e70       ?init@ios@@IAEXPAVstreambuf@@@Z 10036e70 f   libcid:_ios.obj
 0001:00035f00       ?delbuf@ios@@QBEHXZ        10036f00 f i libcid:_ios.obj
 0001:00035f20       ??4ios@@IAEAAV0@ABV0@@Z    10036f20 f   libcid:_ios.obj
 0001:00035fb0       ?flags@ios@@QBEJXZ         10036fb0 f i libcid:_ios.obj
 0001:00035fd0       ?width@ios@@QBEHXZ         10036fd0 f i libcid:_ios.obj
 0001:00035ff0       ?tie@ios@@QBEPAVostream@@XZ 10036ff0 f i libcid:_ios.obj
 0001:00036010       ?fill@ios@@QBEDXZ          10037010 f i libcid:_ios.obj
 0001:00036030       ?precision@ios@@QBEHXZ     10037030 f i libcid:_ios.obj
 0001:00036050       ?rdstate@ios@@QBEHXZ       10037050 f i libcid:_ios.obj
 0001:00036070       ?xalloc@ios@@SAHXZ         10037070 f   libcid:_ios.obj
 0001:00036130       ?bitalloc@ios@@SAJXZ       10037130 f   libcid:_ios.obj
 0001:00036160       ?lockc@ios@@KAXXZ          10037160 f i libcid:_ios.obj
 0001:00036170       ?unlockc@ios@@KAXXZ        10037170 f i libcid:_ios.obj
 0001:00036180       ??0istream@@IAE@XZ         10037180 f   libcid:istream.obj
 0001:00036210       ??_Gistream@@UAEPAXI@Z     10037210 f i libcid:istream.obj
 0001:00036210       ??_Eistream@@UAEPAXI@Z     10037210 f i libcid:istream.obj
 0001:00036250       ??_Distream@@QAEXXZ        10037250 f i libcid:istream.obj
 0001:00036280       ??0istream@@QAE@PAVstreambuf@@@Z 10037280 f   libcid:istream.obj
 0001:00036350       ??0istream@@IAE@ABV0@@Z    10037350 f   libcid:istream.obj
 0001:00036430       ??1istream@@UAE@XZ         10037430 f   libcid:istream.obj
 0001:00036450       ??4istream@@IAEAAV0@PAVstreambuf@@@Z 10037450 f   libcid:istream.obj
 0001:00036590       ?ipfx@istream@@QAEHH@Z     10037590 f   libcid:istream.obj
 0001:000366f0       ?lockbuf@ios@@QAAXXZ       100376f0 f i libcid:istream.obj
 0001:00036700       ?unlockbuf@ios@@QAAXXZ     10037700 f i libcid:istream.obj
 0001:00036710       ?in_avail@streambuf@@QBEHXZ 10037710 f i libcid:istream.obj
 0001:00036750       ?gptr@streambuf@@IBEPADXZ  10037750 f i libcid:istream.obj
 0001:00036770       ??5istream@@QAEAAV0@PAD@Z  10037770 f   libcid:istream.obj
 0001:000368e0       ?isfx@istream@@QAEXXZ      100378e0 f i libcid:istream.obj
 0001:00036920       ?peek@istream@@QAEHXZ      10037920 f   libcid:istream.obj
 0001:00036970       ?putback@istream@@QAEAAV1@D@Z 10037970 f   libcid:istream.obj
 0001:00036a00       ?sputbackc@streambuf@@QAEHD@Z 10037a00 f i libcid:istream.obj
 0001:00036a60       ?good@ios@@QBEHXZ          10037a60 f i libcid:istream.obj
 0001:00036a80       ?sync@istream@@QAEHXZ      10037a80 f   libcid:istream.obj
 0001:00036b10       ?eatwhite@istream@@QAEXXZ  10037b10 f   libcid:istream.obj
 0001:00036bc0       ??0istream_withassign@@QAE@XZ 10037bc0 f   libcid:istream.obj
 0001:00036c50       ??_Eistream_withassign@@UAEPAXI@Z 10037c50 f i libcid:istream.obj
 0001:00036c50       ??_Gistream_withassign@@UAEPAXI@Z 10037c50 f i libcid:istream.obj
 0001:00036c90       ??_Distream_withassign@@QAEXXZ 10037c90 f i libcid:istream.obj
 0001:00036cc0       ??0istream_withassign@@QAE@PAVstreambuf@@@Z 10037cc0 f   libcid:istream.obj
 0001:00036d50       ??1istream_withassign@@UAE@XZ 10037d50 f   libcid:istream.obj
 0001:00036d80       ?get@istream@@QAEHXZ       10037d80 f   libcid:istrget.obj
 0001:00036e00       ?get@istream@@QAEAAV1@AAD@Z 10037e00 f   libcid:istrget.obj
 0001:00036e80       ?read@istream@@QAEAAV1@PADH@Z 10037e80 f   libcid:istrget.obj
 0001:00036f00       ?sgetn@streambuf@@QAEHPADH@Z 10037f00 f i libcid:istrget.obj
 0001:00036f20       ??5istream@@QAEAAV0@PAVstreambuf@@@Z 10037f20 f   libcid:istream1.obj
 0001:00036fa0       ?sputc@streambuf@@QAEHH@Z  10037fa0 f i libcid:istream1.obj
 0001:00037000       ?get@istream@@QAEAAV1@AAVstreambuf@@D@Z 10038000 f   libcid:istream1.obj
 0001:000370e0       ?seekg@istream@@QAEAAV1@J@Z 100380e0 f   libcid:istream1.obj
 0001:00037170       ?seekg@istream@@QAEAAV1@JW4seek_dir@ios@@@Z 10038170 f   libcid:istream1.obj
 0001:00037200       ?tellg@istream@@QAEJXZ     10038200 f   libcid:istream1.obj
 0001:00037290       ?seekp@ostream@@QAEAAV1@J@Z 10038290 f   libcid:ostream1.obj
 0001:00037320       ?seekp@ostream@@QAEAAV1@JW4seek_dir@ios@@@Z 10038320 f   libcid:ostream1.obj
 0001:000373b0       ?tellp@ostream@@QAEJXZ     100383b0 f   libcid:ostream1.obj
 0001:00037440       ??6ostream@@QAEAAV0@PAVstreambuf@@@Z 10038440 f   libcid:ostream1.obj
 0001:000374c0       ?put@ostream@@QAEAAV1@E@Z  100384c0 f   libcid:ostrput.obj
 0001:00037530       ?write@ostream@@QAEAAV1@PBDH@Z 10038530 f   libcid:ostrput.obj
 0001:000375a0       ?sputn@streambuf@@QAEHPBDH@Z 100385a0 f i libcid:ostrput.obj
 0001:000375c0       ??0fstream@@QAE@XZ         100385c0 f   libcid:fstream.obj
 0001:000376d0       ??_Efstream@@UAEPAXI@Z     100386d0 f i libcid:fstream.obj
 0001:000376d0       ??_Gfstream@@UAEPAXI@Z     100386d0 f i libcid:fstream.obj
 0001:00037710       ??0fstream@@QAE@PBDHH@Z    10038710 f   libcid:fstream.obj
 0001:00037860       ??0fstream@@QAE@H@Z        10038860 f   libcid:fstream.obj
 0001:00037970       ??0fstream@@QAE@HPADH@Z    10038970 f   libcid:fstream.obj
 0001:00037a80       ??1fstream@@UAE@XZ         10038a80 f   libcid:fstream.obj
 0001:00037ab0       ?setbuf@fstream@@QAEPAVstreambuf@@PADH@Z 10038ab0 f   libcid:fstream.obj
 0001:00037b50       ?attach@fstream@@QAEXH@Z   10038b50 f   libcid:fstream.obj
 0001:00037bc0       ?open@fstream@@QAEXPBDHH@Z 10038bc0 f   libcid:fstream.obj
 0001:00037c40       ?close@fstream@@QAEXXZ     10038c40 f   libcid:fstream.obj
 0001:00037cd0       ?opfx@ostream@@QAEHXZ      10038cd0 f   libcid:ostream.obj
 0001:00037d80       ?osfx@ostream@@QAEXXZ      10038d80 f   libcid:ostream.obj
 0001:00037ea0       ??6ostream@@QAEAAV0@PBD@Z  10038ea0 f   libcid:ostream.obj
 0001:00037ee0       ?flush@ostream@@QAEAAV1@XZ 10038ee0 f   libcid:ostream.obj
 0001:00037f90       ??0ostream@@IAE@XZ         10038f90 f   libcid:ostream.obj
 0001:00037ff0       ??_Eostream@@UAEPAXI@Z     10038ff0 f i libcid:ostream.obj
 0001:00037ff0       ??_Gostream@@UAEPAXI@Z     10038ff0 f i libcid:ostream.obj
 0001:00038030       ??_Dostream@@QAEXXZ        10039030 f i libcid:ostream.obj
 0001:00038060       ??0ostream@@QAE@PAVstreambuf@@@Z 10039060 f   libcid:ostream.obj
 0001:00038100       ??0ostream@@IAE@ABV0@@Z    10039100 f   libcid:ostream.obj
 0001:000381b0       ??1ostream@@UAE@XZ         100391b0 f   libcid:ostream.obj
 0001:000381d0       ??4ostream@@IAEAAV0@PAVstreambuf@@@Z 100391d0 f   libcid:ostream.obj
 0001:000382e0       ??0ostream_withassign@@QAE@XZ 100392e0 f   libcid:ostream.obj
 0001:00038370       ??_Eostream_withassign@@UAEPAXI@Z 10039370 f i libcid:ostream.obj
 0001:00038370       ??_Gostream_withassign@@UAEPAXI@Z 10039370 f i libcid:ostream.obj
 0001:000383b0       ??_Dostream_withassign@@QAEXXZ 100393b0 f i libcid:ostream.obj
 0001:000383e0       ??0ostream_withassign@@QAE@PAVstreambuf@@@Z 100393e0 f   libcid:ostream.obj
 0001:00038470       ??1ostream_withassign@@UAE@XZ 10039470 f   libcid:ostream.obj
 0001:000384a0       ?writepad@ostream@@AAEAAV1@PBD0@Z 100394a0 f   libcid:ostream.obj
 0001:00038700       ??0filebuf@@QAE@XZ         10039700 f   libcid:filebuf.obj
 0001:00038740       ??_Efilebuf@@UAEPAXI@Z     10039740 f i libcid:filebuf.obj
 0001:00038740       ??_Gfilebuf@@UAEPAXI@Z     10039740 f i libcid:filebuf.obj
 0001:00038770       ??0filebuf@@QAE@H@Z        10039770 f   libcid:filebuf.obj
 0001:000387b0       ??0filebuf@@QAE@HPADH@Z    100397b0 f   libcid:filebuf.obj
 0001:00038830       ??1filebuf@@UAE@XZ         10039830 f   libcid:filebuf.obj
 0001:000388a0       ?lock@streambuf@@QAEXXZ    100398a0 f i libcid:filebuf.obj
 0001:000388b0       ?close@filebuf@@QAEPAV1@XZ 100398b0 f   libcid:filebuf.obj
 0001:00038920       ?unlock@streambuf@@QAEXXZ  10039920 f i libcid:filebuf.obj
 0001:00038930       ?overflow@filebuf@@UAEHH@Z 10039930 f   libcid:filebuf.obj
 0001:000389f0       ?base@streambuf@@IBEPADXZ  100399f0 f i libcid:filebuf.obj
 0001:00038a10       ?ebuf@streambuf@@IBEPADXZ  10039a10 f i libcid:filebuf.obj
 0001:00038a30       ?pptr@streambuf@@IBEPADXZ  10039a30 f i libcid:filebuf.obj
 0001:00038a50       ?epptr@streambuf@@IBEPADXZ 10039a50 f i libcid:filebuf.obj
 0001:00038a70       ?setp@streambuf@@IAEXPAD0@Z 10039a70 f i libcid:filebuf.obj
 0001:00038aa0       ?unbuffered@streambuf@@IBEHXZ 10039aa0 f i libcid:filebuf.obj
 0001:00038ac0       ?underflow@filebuf@@UAEHXZ 10039ac0 f   libcid:filebuf.obj
 0001:00038bb0       ?blen@streambuf@@IBEHXZ    10039bb0 f i libcid:filebuf.obj
 0001:00038bf0       ?setg@streambuf@@IAEXPAD00@Z 10039bf0 f i libcid:filebuf.obj
 0001:00038c30       ?seekoff@filebuf@@UAEJJW4seek_dir@ios@@H@Z 10039c30 f   libcid:filebuf.obj
 0001:00038cc0       ?sync@filebuf@@UAEHXZ      10039cc0 f   libcid:filebuf.obj
 0001:00038e50       ?out_waiting@streambuf@@QBEHXZ 10039e50 f i libcid:filebuf.obj
 0001:00038e90       ?pbase@streambuf@@IBEPADXZ 10039e90 f i libcid:filebuf.obj
 0001:00038eb0       ?egptr@streambuf@@IBEPADXZ 10039eb0 f i libcid:filebuf.obj
 0001:00038ed0       ?pbump@streambuf@@IAEXH@Z  10039ed0 f i libcid:filebuf.obj
 0001:00038f00       ?setbuf@filebuf@@UAEPAVstreambuf@@PADH@Z 10039f00 f   libcid:filebuf.obj
 0001:00038f70       ?unbuffered@streambuf@@IAEXH@Z 10039f70 f i libcid:filebuf.obj
 0001:00038f90       ??0ofstream@@QAE@XZ        10039f90 f   libcid:ofstream.obj
 0001:00039080       ??_Gofstream@@UAEPAXI@Z    1003a080 f i libcid:ofstream.obj
 0001:00039080       ??_Eofstream@@UAEPAXI@Z    1003a080 f i libcid:ofstream.obj
 0001:000390c0       ??_Dofstream@@QAEXXZ       1003a0c0 f i libcid:ofstream.obj
 0001:000390f0       ??0ofstream@@QAE@PBDHH@Z   1003a0f0 f   libcid:ofstream.obj
 0001:00039220       ??0ofstream@@QAE@H@Z       1003a220 f   libcid:ofstream.obj
 0001:00039310       ??0ofstream@@QAE@HPADH@Z   1003a310 f   libcid:ofstream.obj
 0001:00039400       ??1ofstream@@UAE@XZ        1003a400 f   libcid:ofstream.obj
 0001:00039430       ?setbuf@ofstream@@QAEPAVstreambuf@@PADH@Z 1003a430 f   libcid:ofstream.obj
 0001:000394a0       ?attach@ofstream@@QAEXH@Z  1003a4a0 f   libcid:ofstream.obj
 0001:000394f0       ?open@ofstream@@QAEXPBDHH@Z 1003a4f0 f   libcid:ofstream.obj
 0001:00039550       ?close@ofstream@@QAEXXZ    1003a550 f   libcid:ofstream.obj
 0001:000395b0       ?attach@filebuf@@QAEPAV1@H@Z 1003a5b0 f   libcid:filebuf1.obj
 0001:00039660       ?open@filebuf@@QAEPAV1@PBDHH@Z 1003a660 f   libcid:filebuf1.obj
 0001:000398c0       ?setmode@filebuf@@QAEHH@Z  1003a8c0 f   libcid:filebuf1.obj
 0001:00039940       ?snextc@streambuf@@QAEHXZ  1003a940 f   libcid:streamb1.obj
 0001:000399f0       ?sbumpc@streambuf@@QAEHXZ  1003a9f0 f   libcid:streamb1.obj
 0001:00039a80       ?stossc@streambuf@@QAEXXZ  1003aa80 f   libcid:streamb1.obj
 0001:00039b00       ?sgetc@streambuf@@QAEHXZ   1003ab00 f   libcid:streamb1.obj
 0001:00039b50       ??0iostream@@IAE@XZ        1003ab50 f   libcid:_iostrea.obj
 0001:00039c00       ??_Giostream@@UAEPAXI@Z    1003ac00 f i libcid:_iostrea.obj
 0001:00039c00       ??_Eiostream@@UAEPAXI@Z    1003ac00 f i libcid:_iostrea.obj
 0001:00039c40       ??_Diostream@@QAEXXZ       1003ac40 f i libcid:_iostrea.obj
 0001:00039c70       ??0iostream@@QAE@PAVstreambuf@@@Z 1003ac70 f   libcid:_iostrea.obj
 0001:00039d20       ??0iostream@@IAE@ABV0@@Z   1003ad20 f   libcid:_iostrea.obj
 0001:00039df0       ??1iostream@@UAE@XZ        1003adf0 f   libcid:_iostrea.obj
 0001:00039eb0       ??0streambuf@@IAE@XZ       1003aeb0 f   libcid:streamb.obj
 0001:00039f40       ??_Gstreambuf@@UAEPAXI@Z   1003af40 f i libcid:streamb.obj
 0001:00039f40       ??_Estreambuf@@UAEPAXI@Z   1003af40 f i libcid:streamb.obj
 0001:00039f70       ??0streambuf@@IAE@PADH@Z   1003af70 f   libcid:streamb.obj
 0001:0003a030       ??1streambuf@@UAE@XZ       1003b030 f   libcid:streamb.obj
 0001:0003a080       ?setbuf@streambuf@@UAEPAV1@PADH@Z 1003b080 f   libcid:streamb.obj
 0001:0003a0e0       ?xsputn@streambuf@@UAEHPBDH@Z 1003b0e0 f   libcid:streamb.obj
 0001:0003a170       ?xsgetn@streambuf@@UAEHPADH@Z 1003b170 f   libcid:streamb.obj
 0001:0003a2b0       ?sync@streambuf@@UAEHXZ    1003b2b0 f   libcid:streamb.obj
 0001:0003a2e0       ?allocate@streambuf@@IAEHXZ 1003b2e0 f   libcid:streamb.obj
 0001:0003a320       ?doallocate@streambuf@@MAEHXZ 1003b320 f   libcid:streamb.obj
 0001:0003a380       ?setb@streambuf@@IAEXPAD0H@Z 1003b380 f   libcid:streamb.obj
 0001:0003a3e0       ?seekoff@streambuf@@UAEJJW4seek_dir@ios@@H@Z 1003b3e0 f   libcid:streamb.obj
 0001:0003a3f0       ?seekpos@streambuf@@UAEJJH@Z 1003b3f0 f   libcid:streamb.obj
 0001:0003a420       ?pbackfail@streambuf@@UAEHH@Z 1003b420 f   libcid:streamb.obj
 0001:0003a4d0       ?eback@streambuf@@IBEPADXZ 1003b4d0 f i libcid:streamb.obj
 0001:0003a4f0       ?_Xlen@std@@YAXXZ          1003b4f0 f   libcpd:string.obj
 0001:0003a550       ??0length_error@std@@QAE@ABV?$basic_string@DU?$char_traits@D@std@@V?$allocator@D@2@@1@@Z 1003b550 f i libcpd:string.obj
 0001:0003a580       ??1length_error@std@@UAE@XZ 1003b580 f i libcpd:string.obj
 0001:0003a5a0       ?_Doraise@length_error@std@@MBEXXZ 1003b5a0 f i libcpd:string.obj
 0001:0003a5d0       ??_Glength_error@std@@UAEPAXI@Z 1003b5d0 f i libcpd:string.obj
 0001:0003a5d0       ??_Elength_error@std@@UAEPAXI@Z 1003b5d0 f i libcpd:string.obj
 0001:0003a600       ??0length_error@std@@QAE@ABV01@@Z 1003b600 f i libcpd:string.obj
 0001:0003a630       ?_Xran@std@@YAXXZ          1003b630 f   libcpd:string.obj
 0001:0003a6d0       ?id@?$collate@D@std@@$D    1003b6d0 f i libcpd:string.obj
 0001:0003a720       ?id@?$collate@D@std@@$E    1003b720 f i libcpd:string.obj
 0001:0003a730       ??2@YAPAXIHPBDH@Z          1003b730 f   LIBCD:dbgnew.obj
 0001:0003a750       _CloseHandle@4             1003b750 f   kernel32:KERNEL32.dll
 0001:0003a756       _SetEndOfFile@4            1003b756 f   kernel32:KERNEL32.dll
 0001:0003a75c       _SetFilePointer@16         1003b75c f   kernel32:KERNEL32.dll
 0001:0003a762       _CreateFileA@28            1003b762 f   kernel32:KERNEL32.dll
 0001:0003a768       _RtlUnwind@16              1003b768 f   kernel32:KERNEL32.dll
 0001:0003a76e       _GetCommandLineA@0         1003b76e f   kernel32:KERNEL32.dll
 0001:0003a774       _GetVersion@0              1003b774 f   kernel32:KERNEL32.dll
 0001:0003a77a       _RaiseException@16         1003b77a f   kernel32:KERNEL32.dll
 0001:0003a780       _GetCurrentThreadId@0      1003b780 f   kernel32:KERNEL32.dll
 0001:0003a786       _TlsSetValue@8             1003b786 f   kernel32:KERNEL32.dll
 0001:0003a78c       _TlsAlloc@0                1003b78c f   kernel32:KERNEL32.dll
 0001:0003a792       _TlsFree@4                 1003b792 f   kernel32:KERNEL32.dll
 0001:0003a798       _SetLastError@4            1003b798 f   kernel32:KERNEL32.dll
 0001:0003a79e       _TlsGetValue@4             1003b79e f   kernel32:KERNEL32.dll
 0001:0003a7a4       _GetLastError@0            1003b7a4 f   kernel32:KERNEL32.dll
 0001:0003a7aa       _GetCurrentThread@0        1003b7aa f   kernel32:KERNEL32.dll
 0001:0003a7b0       _DebugBreak@0              1003b7b0 f   kernel32:KERNEL32.dll
 0001:0003a7b6       _GetStdHandle@4            1003b7b6 f   kernel32:KERNEL32.dll
 0001:0003a7bc       _WriteFile@20              1003b7bc f   kernel32:KERNEL32.dll
 0001:0003a7c2       _InterlockedDecrement@4    1003b7c2 f   kernel32:KERNEL32.dll
 0001:0003a7c8       _OutputDebugStringA@4      1003b7c8 f   kernel32:KERNEL32.dll
 0001:0003a7ce       _GetProcAddress@8          1003b7ce f   kernel32:KERNEL32.dll
 0001:0003a7d4       _LoadLibraryA@4            1003b7d4 f   kernel32:KERNEL32.dll
 0001:0003a7da       _InterlockedIncrement@4    1003b7da f   kernel32:KERNEL32.dll
 0001:0003a7e0       _GetModuleFileNameA@12     1003b7e0 f   kernel32:KERNEL32.dll
 0001:0003a7e6       _InitializeCriticalSection@4 1003b7e6 f   kernel32:KERNEL32.dll
 0001:0003a7ec       _DeleteCriticalSection@4   1003b7ec f   kernel32:KERNEL32.dll
 0001:0003a7f2       _EnterCriticalSection@4    1003b7f2 f   kernel32:KERNEL32.dll
 0001:0003a7f8       _LeaveCriticalSection@4    1003b7f8 f   kernel32:KERNEL32.dll
 0001:0003a7fe       _ExitProcess@4             1003b7fe f   kernel32:KERNEL32.dll
 0001:0003a804       _FatalAppExitA@8           1003b804 f   kernel32:KERNEL32.dll
 0001:0003a80a       _IsBadWritePtr@8           1003b80a f   kernel32:KERNEL32.dll
 0001:0003a810       _IsBadReadPtr@8            1003b810 f   kernel32:KERNEL32.dll
 0001:0003a816       _HeapValidate@12           1003b816 f   kernel32:KERNEL32.dll
 0001:0003a81c       _TerminateProcess@8        1003b81c f   kernel32:KERNEL32.dll
 0001:0003a822       _GetCurrentProcess@0       1003b822 f   kernel32:KERNEL32.dll
 0001:0003a828       _SetHandleCount@4          1003b828 f   kernel32:KERNEL32.dll
 0001:0003a82e       _GetFileType@4             1003b82e f   kernel32:KERNEL32.dll
 0001:0003a834       _GetStartupInfoA@4         1003b834 f   kernel32:KERNEL32.dll
 0001:0003a83a       _FreeEnvironmentStringsA@4 1003b83a f   kernel32:KERNEL32.dll
 0001:0003a840       _FreeEnvironmentStringsW@4 1003b840 f   kernel32:KERNEL32.dll
 0001:0003a846       _WideCharToMultiByte@32    1003b846 f   kernel32:KERNEL32.dll
 0001:0003a84c       _GetEnvironmentStrings@0   1003b84c f   kernel32:KERNEL32.dll
 0001:0003a852       _GetEnvironmentStringsW@0  1003b852 f   kernel32:KERNEL32.dll
 0001:0003a858       _GetModuleHandleA@4        1003b858 f   kernel32:KERNEL32.dll
 0001:0003a85e       _GetEnvironmentVariableA@12 1003b85e f   kernel32:KERNEL32.dll
 0001:0003a864       _GetVersionExA@4           1003b864 f   kernel32:KERNEL32.dll
 0001:0003a86a       _HeapDestroy@4             1003b86a f   kernel32:KERNEL32.dll
 0001:0003a870       _HeapCreate@12             1003b870 f   kernel32:KERNEL32.dll
 0001:0003a876       _HeapFree@12               1003b876 f   kernel32:KERNEL32.dll
 0001:0003a87c       _VirtualFree@12            1003b87c f   kernel32:KERNEL32.dll
 0001:0003a882       _SetUnhandledExceptionFilter@4 1003b882 f   kernel32:KERNEL32.dll
 0001:0003a888       _ReadFile@20               1003b888 f   kernel32:KERNEL32.dll
 0001:0003a88e       _GetFileAttributesA@4      1003b88e f   kernel32:KERNEL32.dll
 0001:0003a894       _GetCurrentProcessId@0     1003b894 f   kernel32:KERNEL32.dll
 0001:0003a89a       _IsBadCodePtr@4            1003b89a f   kernel32:KERNEL32.dll
 0001:0003a8a0       _UnhandledExceptionFilter@4 1003b8a0 f   kernel32:KERNEL32.dll
 0001:0003a8a6       _SetConsoleCtrlHandler@8   1003b8a6 f   kernel32:KERNEL32.dll
 0001:0003a8ac       _HeapAlloc@12              1003b8ac f   kernel32:KERNEL32.dll
 0001:0003a8b2       _HeapReAlloc@16            1003b8b2 f   kernel32:KERNEL32.dll
 0001:0003a8b8       _VirtualAlloc@16           1003b8b8 f   kernel32:KERNEL32.dll
 0001:0003a8be       _MultiByteToWideChar@24    1003b8be f   kernel32:KERNEL32.dll
 0001:0003a8c4       _GetStringTypeA@20         1003b8c4 f   kernel32:KERNEL32.dll
 0001:0003a8ca       _GetStringTypeW@16         1003b8ca f   kernel32:KERNEL32.dll
 0001:0003a8d0       _GetCPInfo@8               1003b8d0 f   kernel32:KERNEL32.dll
 0001:0003a8d6       _GetACP@0                  1003b8d6 f   kernel32:KERNEL32.dll
 0001:0003a8dc       _GetOEMCP@0                1003b8dc f   kernel32:KERNEL32.dll
 0001:0003a8e2       _SetStdHandle@8            1003b8e2 f   kernel32:KERNEL32.dll
 0001:0003a8e8       _FlushFileBuffers@4        1003b8e8 f   kernel32:KERNEL32.dll
 0001:0003a8ee       _LCMapStringA@24           1003b8ee f   kernel32:KERNEL32.dll
 0001:0003a8f4       _LCMapStringW@24           1003b8f4 f   kernel32:KERNEL32.dll
 0001:0003a8fa       _Sleep@4                   1003b8fa f   kernel32:KERNEL32.dll
 0001:0003a900       _IsValidLocale@8           1003b900 f   kernel32:KERNEL32.dll
 0001:0003a906       _IsValidCodePage@4         1003b906 f   kernel32:KERNEL32.dll
 0001:0003a90c       _GetLocaleInfoA@16         1003b90c f   kernel32:KERNEL32.dll
 0001:0003a912       _EnumSystemLocalesA@8      1003b912 f   kernel32:KERNEL32.dll
 0001:0003a918       _GetUserDefaultLCID@0      1003b918 f   kernel32:KERNEL32.dll
 0001:0003a91e       _GetTimeZoneInformation@4  1003b91e f   kernel32:KERNEL32.dll
 0001:0003a924       _GetLocaleInfoW@16         1003b924 f   kernel32:KERNEL32.dll
 0001:0003a92a       _CompareStringA@24         1003b92a f   kernel32:KERNEL32.dll
 0001:0003a930       _CompareStringW@24         1003b930 f   kernel32:KERNEL32.dll
 0001:0003a936       _SetEnvironmentVariableA@8 1003b936 f   kernel32:KERNEL32.dll
 0001:0003a940       _uncompress                1003b940 f   zlib:uncompr.obj
 0001:0003aa10       _compress2                 1003ba10 f   zlib:compress.obj
 0001:0003aad9       _compress                  1003bad9 f   zlib:compress.obj
 0001:0003ab00       _inflateReset              1003bb00 f   zlib:inflate.obj
 0001:0003ab6b       _inflateEnd                1003bb6b f   zlib:inflate.obj
 0001:0003abd4       _inflateInit2_             1003bbd4 f   zlib:inflate.obj
 0001:0003ad3a       _inflateInit_              1003bd3a f   zlib:inflate.obj
 0001:0003ad55       _inflate                   1003bd55 f   zlib:inflate.obj
 0001:0003b426       _inflateSetDictionary      1003c426 f   zlib:inflate.obj
 0001:0003b4e4       _inflateSync               1003c4e4 f   zlib:inflate.obj
 0001:0003b636       _inflateSyncPoint          1003c636 f   zlib:inflate.obj
 0001:0003b670       _deflateInit_              1003c670 f   zlib:deflate.obj
 0001:0003b695       _deflateInit2_             1003c695 f   zlib:deflate.obj
 0001:0003b981       _deflateSetDictionary      1003c981 f   zlib:deflate.obj
 0001:0003bb21       _deflateReset              1003cb21 f   zlib:deflate.obj
 0001:0003bbf2       _deflateParams             1003cbf2 f   zlib:deflate.obj
 0001:0003bd0e       _deflate                   1003cd0e f   zlib:deflate.obj
 0001:0003c1a5       _deflateEnd                1003d1a5 f   zlib:deflate.obj
 0001:0003c2b6       _deflateCopy               1003d2b6 f   zlib:deflate.obj
 0001:0003da80       _inflate_blocks_reset      1003ea80 f   zlib:infblock.obj
 0001:0003db37       _inflate_blocks_new        1003eb37 f   zlib:infblock.obj
 0001:0003dc2f       _inflate_blocks            1003ec2f f   zlib:infblock.obj
 0001:0003efa2       _inflate_blocks_free       1003ffa2 f   zlib:infblock.obj
 0001:0003effd       _inflate_set_dictionary    1003fffd f   zlib:infblock.obj
 0001:0003f034       _inflate_blocks_sync_point 10040034 f   zlib:infblock.obj
 0001:0003f050       _adler32                   10040050 f   zlib:adler32.obj
 0001:0003f2d0       _zlibVersion               100402d0 f   zlib:zutil.obj
 0001:0003f2da       _zError                    100402da f   zlib:zutil.obj
 0001:0003f2ee       _zcalloc                   100402ee f   zlib:zutil.obj
 0001:0003f317       _zcfree                    10040317 f   zlib:zutil.obj
 0001:0003f330       __tr_init                  10040330 f   zlib:trees.obj
 0001:0003f494       __tr_stored_block          10040494 f   zlib:trees.obj
 0001:0003f5d3       __tr_align                 100405d3 f   zlib:trees.obj
 0001:0003fac2       __tr_flush_block           10040ac2 f   zlib:trees.obj
 0001:00041a04       __tr_tally                 10042a04 f   zlib:trees.obj
 0001:00042730       _inflate_codes_new         10043730 f   zlib:infcodes.obj
 0001:00042785       _inflate_codes             10043785 f   zlib:infcodes.obj
 0001:000434ed       _inflate_codes_free        100444ed f   zlib:infcodes.obj
 0001:00043510       _inflate_trees_bits        10044510 f   zlib:inftrees.obj
 0001:00043e86       _inflate_trees_dynamic     10044e86 f   zlib:inftrees.obj
 0001:0004400b       _inflate_trees_fixed       1004500b f   zlib:inftrees.obj
 0001:00044040       _inflate_flush             10045040 f   zlib:infutil.obj
 0001:00044220       _inflate_fast              10045220 f   zlib:inffast.obj
 0001:00059cf0       __enc$textbss$begin        1005acf0     <linker-defined>
 0001:0008d3f0       __enc$textbss$end          1008e3f0     <linker-defined>
 0002:0000001c       ??_7TagRenderer@@6B@       1008f01c     TagRenderer.obj
 0002:00000020       ??_C@_00A@?$AA@            1008f020     TagRenderer.obj
 0002:00000024       ??_C@_0BK@DBGA@www?4nauta?9clarus?9media?4de?$AA@ 1008f024     tagWriter.obj
 0002:00000044       ??_C@_03PGJO@Dec?$AA@      1008f044     tagWriter.obj
 0002:00000048       ??_C@_03PDLM@Nov?$AA@      1008f048     tagWriter.obj
 0002:0000004c       ??_C@_03BLHK@Oct?$AA@      1008f04c     tagWriter.obj
 0002:00000050       ??_C@_03DPFM@Sep?$AA@      1008f050     tagWriter.obj
 0002:00000054       ??_C@_03CMCH@Aug?$AA@      1008f054     tagWriter.obj
 0002:00000058       ??_C@_03OBKI@Jul?$AA@      1008f058     tagWriter.obj
 0002:0000005c       ??_C@_03LEIG@Jun?$AA@      1008f05c     tagWriter.obj
 0002:00000060       ??_C@_03MGHB@May?$AA@      1008f060     tagWriter.obj
 0002:00000064       ??_C@_03MJJM@Apr?$AA@      1008f064     tagWriter.obj
 0002:00000068       ??_C@_03GNHA@Mar?$AA@      1008f068     tagWriter.obj
 0002:0000006c       ??_C@_03PICE@Feb?$AA@      1008f06c     tagWriter.obj
 0002:00000070       ??_C@_03IEIF@Jan?$AA@      1008f070     tagWriter.obj
 0002:00000074       ??_C@_0M@LJEE@May?527?52002?$AA@ 1008f074     tagWriter.obj
 0002:00000084       ??_7ID3_Frame@@6B@         1008f084     id3libD:frame.obj
 0002:00000088       ??_7IteratorImpl@?%c:\dokumente und einstellungen\tw\eigene dateien\projects\tagwriter.dll\vc32\vbid3lib-3.8.0pre1\src\frame.cpp2886327612@@6B@ 1008f088     id3libD:frame.obj
 0002:0000008c       ??_7Iterator@ID3_Frame@@6B@ 1008f08c     id3libD:frame.obj
 0002:00000090       ??_7ConstIteratorImpl@?%c:\dokumente und einstellungen\tw\eigene dateien\projects\tagwriter.dll\vc32\vbid3lib-3.8.0pre1\src\frame.cpp2886327612@@6B@ 1008f090     id3libD:frame.obj
 0002:00000094       ??_7ConstIterator@ID3_Frame@@6B@ 1008f094     id3libD:frame.obj
 0002:00000098       ??_C@_0BL@HMNC@invalid?5bitset?$DMN?$DO?5position?$AA@ 1008f098     id3libD:frame.obj
 0002:000000b4       ?npos@?$basic_string@DU?$char_traits@D@std@@V?$allocator@D@2@@std@@2IB 1008f0b4     id3libD:frame.obj
 0002:000000b8       ?_C@?1??_Nullstr@?$basic_string@DU?$char_traits@D@std@@V?$allocator@D@2@@std@@CAPBDXZ@4DB 1008f0b8     id3libD:frame.obj
 0002:000000bc       ??_7ID3_Tag@@6B@           1008f0bc     id3libD:tag.obj
 0002:000000c0       ??_7IteratorImpl@?%c:\dokumente und einstellungen\tw\eigene dateien\projects\tagwriter.dll\vc32\vbid3lib-3.8.0pre1\src\tag.cpp304173324@@6B@ 1008f0c0     id3libD:tag.obj
 0002:000000c4       ??_7Iterator@ID3_Tag@@6B@  1008f0c4     id3libD:tag.obj
 0002:000000c8       ??_7ConstIteratorImpl@?%c:\dokumente und einstellungen\tw\eigene dateien\projects\tagwriter.dll\vc32\vbid3lib-3.8.0pre1\src\tag.cpp304173324@@6B@ 1008f0c8     id3libD:tag.obj
 0002:000000cc       ??_7ConstIterator@ID3_Tag@@6B@ 1008f0cc     id3libD:tag.obj
 0002:000000d0       ??_7ID3_MemoryReader@@6B@  1008f0d0     id3libD:tag.obj
 0002:00000104       ??_7ID3_Reader@@6B@        1008f104     id3libD:tag.obj
 0002:00000134       ?npos@?$basic_string@GU?$char_traits@G@std@@V?$allocator@G@2@@std@@2IB 1008f134     id3libD:tag.obj
 0002:00000138       ?npos@?$basic_string@EU?$char_traits@E@std@@V?$allocator@E@2@@std@@2IB 1008f138     id3libD:tag.obj
 0002:0000013c       ??_7ID3_MemoryWriter@@6B@  1008f13c     id3libD:tag.obj
 0002:0000016c       ??_7ID3_Writer@@6B@        1008f16c     id3libD:tag.obj
 0002:00000198       ?_C@?1??_Nullstr@?$basic_string@EU?$char_traits@E@std@@V?$allocator@E@2@@std@@CAPBEXZ@4EB 1008f198     id3libD:tag.obj
 0002:0000019c       ?_C@?1??_Nullstr@?$basic_string@GU?$char_traits@G@std@@V?$allocator@G@2@@std@@CAPBGXZ@4GB 1008f19c     id3libD:tag.obj
 0002:000001a0       ??_7ID3_FrameImpl@@6B@     1008f1a0     id3libD:frame_impl.obj
 0002:000001a4       ??_7ID3_FrameHeader@@6B@   1008f1a4     id3libD:frame_impl.obj
 0002:000001bc       ??_7ID3_Header@@6B@        1008f1bc     id3libD:frame_impl.obj
 0002:000001d4       ??_7ID3_Flags@@6B@         1008f1d4     id3libD:frame_impl.obj
 0002:000001d8       ??_7ExitTrigger@io@dami@@6B@ 1008f1d8     id3libD:frame_parse.obj
 0002:000001dc       ??_7WindowedReader@io@dami@@6B@ 1008f1dc     id3libD:frame_parse.obj
 0002:0000020c       ??_7CompressedWriter@io@dami@@6B@ 1008f20c     id3libD:frame_render.obj
 0002:0000023c       ??_7StringWriter@io@dami@@6B@ 1008f23c     id3libD:frame_render.obj
 0002:0000026c       ??_7ID3_TagImpl@@6B@       1008f26c     id3libD:tag_impl.obj
 0002:00000270       ??_7ID3_TagHeader@@6B@     1008f270     id3libD:tag_impl.obj
 0002:00000288       ??_7StringReader@io@dami@@6B@ 1008f288     id3libD:tag_impl.obj
 0002:000002bc       ??_C@_03KALA@TAG?$AA@      1008f2bc     id3libD:tag_render.obj
 0002:000002c0       ??_7UnsyncedWriter@io@dami@@6B@ 1008f2c0     id3libD:tag_render.obj
 0002:000002ec       ??_7ID3_IFStreamReader@@6B@ 1008f2ec     id3libD:tag_parse.obj
 0002:00000320       ??_7ID3_IStreamReader@@6B@ 1008f320     id3libD:tag_parse.obj
 0002:00000354       ??_7UnsyncedReader@io@dami@@6B@ 1008f354     id3libD:tag_parse.obj
 0002:00000388       ??_7CharReader@io@dami@@6B@ 1008f388     id3libD:tag_parse.obj
 0002:000003bc       ??_7BStringReader@io@dami@@6B@ 1008f3bc     id3libD:tag_parse.obj
 0002:000003f0       ??_7ID3_IOStreamWriter@@6B@ 1008f3f0     id3libD:tag_file.obj
 0002:00000420       ??_C@_01PLJA@0?$AA@        1008f420     id3libD:utils.obj
 0002:00000424       ?END_OF_READER@ID3_Reader@@2FB 1008f424     id3libD:io.obj
 0002:00000426       ?END_OF_WRITER@ID3_Writer@@2FB 1008f426     id3libD:io.obj
 0002:0000044c       ??_C@_0BL@EBBE@Compressed?5data?5meta?5frame?$AA@ 1008f44c     id3libD:field.obj
 0002:00000468       ??_C@_0BF@PANJ@Encrypted?5meta?5frame?$AA@ 1008f468     id3libD:field.obj
 0002:00000480       ??_C@_0BG@IOMB@User?5defined?5URL?5link?$AA@ 1008f480     id3libD:field.obj
 0002:00000498       ??_C@_0BL@MJJ@Official?5publisher?5webpage?$AA@ 1008f498     id3libD:field.obj
 0002:000004b4       ??_C@_07FLBF@Payment?$AA@  1008f4b4     id3libD:field.obj
 0002:000004bc       ??_C@_0CJ@NOLF@Official?5internet?5radio?5station?5@ 1008f4bc     id3libD:field.obj
 0002:000004e8       ??_C@_0BO@EBLO@Official?5audio?5source?5webpage?$AA@ 1008f4e8     id3libD:field.obj
 0002:00000508       ??_C@_0CC@CEPP@Official?5artist?1performer?5webpag@ 1008f508     id3libD:field.obj
 0002:0000052c       ??_C@_0BM@POGC@Official?5audio?5file?5webpage?$AA@ 1008f52c     id3libD:field.obj
 0002:00000548       ??_C@_0BM@NHCJ@Copyright?1Legal?5infromation?$AA@ 1008f548     id3libD:field.obj
 0002:00000564       ??_C@_0BH@DEEH@Commercial?5information?$AA@ 1008f564     id3libD:field.obj
 0002:0000057c       ??_C@_0CI@MOJL@Unsynchronized?5lyric?1text?5transc@ 1008f57c     id3libD:field.obj
 0002:000005a4       ??_C@_0N@BFAA@Terms?5of?5use?$AA@ 1008f5a4     id3libD:field.obj
 0002:000005b4       ??_C@_0BH@HOKO@Unique?5file?5identifier?$AA@ 1008f5b4     id3libD:field.obj
 0002:000005cc       ??_C@_04LBHG@Year?$AA@     1008f5cc     id3libD:field.obj
 0002:000005d4       ??_C@_0BO@KBMH@User?5defined?5text?5information?$AA@ 1008f5d4     id3libD:field.obj
 0002:000005f4       ??_C@_0DB@FFIO@Software?1Hardware?5and?5settings?5u@ 1008f5f4     id3libD:field.obj
 0002:00000628       ??_C@_0CN@EAPM@ISRC?5?$CIinternational?5standard?5rec@ 1008f628     id3libD:field.obj
 0002:00000658       ??_C@_04BBDK@Size?$AA@     1008f658     id3libD:field.obj
 0002:00000660       ??_C@_0BN@MNBK@Internet?5radio?5station?5owner?$AA@ 1008f660     id3libD:field.obj
 0002:00000680       ??_C@_0BM@LHLI@Internet?5radio?5station?5name?$AA@ 1008f680     id3libD:field.obj
 0002:0000069c       ??_C@_0BA@DIDE@Recording?5dates?$AA@ 1008f69c     id3libD:field.obj
 0002:000006ac       ??_C@_0BN@FPAP@Track?5number?1Position?5in?5set?$AA@ 1008f6ac     id3libD:field.obj
 0002:000006cc       ??_C@_09FIFK@Publisher?$AA@ 1008f6cc     id3libD:field.obj
 0002:000006d8       ??_C@_0O@KJIH@Part?5of?5a?5set?$AA@ 1008f6d8     id3libD:field.obj
 0002:000006e8       ??_C@_0CP@GPAA@Interpreted?0?5remixed?0?5or?5otherwi@ 1008f6e8     id3libD:field.obj
 0002:00000718       ??_C@_0BP@IHLB@Conductor?1performer?5refinement?$AA@ 1008f718     id3libD:field.obj
 0002:00000738       ??_C@_0BN@CNMA@Band?1orchestra?1accompaniment?$AA@ 1008f738     id3libD:field.obj
 0002:00000758       ??_C@_0BN@HDNJ@Lead?5performer?$CIs?$CJ?1Soloist?$CIs?$CJ?$AA@ 1008f758     id3libD:field.obj
 0002:00000778       ??_C@_0BE@EPKF@File?5owner?1licensee?$AA@ 1008f778     id3libD:field.obj
 0002:0000078c       ??_C@_0BG@OPLB@Original?5release?5year?$AA@ 1008f78c     id3libD:field.obj
 0002:000007a4       ??_C@_0CA@LHIM@Original?5artist?$CIs?$CJ?1performer?$CIs?$CJ?$AA@ 1008f7a4     id3libD:field.obj
 0002:000007c4       ??_C@_0CE@HBLB@Original?5lyricist?$CIs?$CJ?1text?5writer@ 1008f7c4     id3libD:field.obj
 0002:000007e8       ??_C@_0BC@CAMG@Original?5filename?$AA@ 1008f7e8     id3libD:field.obj
 0002:000007fc       ??_C@_0CA@NHAI@Original?5album?1movie?1show?5title?$AA@ 1008f7fc     id3libD:field.obj
 0002:0000081c       ??_C@_0L@JIKO@Media?5type?$AA@ 1008f81c     id3libD:field.obj
 0002:00000828       ??_C@_06CAAP@Length?$AA@   1008f828     id3libD:field.obj
 0002:00000830       ??_C@_0M@FING@Language?$CIs?$CJ?$AA@ 1008f830     id3libD:field.obj
 0002:0000083c       ??_C@_0CA@EAME@Subtitle?1Description?5refinement?$AA@ 1008f83c     id3libD:field.obj
 0002:0000085c       ??_C@_0CD@BNAJ@Title?1songname?1content?5descripti@ 1008f85c     id3libD:field.obj
 0002:00000880       ??_C@_0BK@GHKL@Content?5group?5description?$AA@ 1008f880     id3libD:field.obj
 0002:0000089c       ??_C@_04OAHI@Time?$AA@     1008f89c     id3libD:field.obj
 0002:000008a4       ??_C@_0M@JMFF@Initial?5key?$AA@ 1008f8a4     id3libD:field.obj
 0002:000008b0       ??_C@_09ECJL@File?5type?$AA@ 1008f8b0     id3libD:field.obj
 0002:000008bc       ??_C@_0BF@OJHD@Lyricist?1Text?5writer?$AA@ 1008f8bc     id3libD:field.obj
 0002:000008d4       ??_C@_0L@GEHP@Encoded?5by?$AA@ 1008f8d4     id3libD:field.obj
 0002:000008e0       ??_C@_0P@HELF@Playlist?5delay?$AA@ 1008f8e0     id3libD:field.obj
 0002:000008f0       ??_C@_04OMLL@Date?$AA@     1008f8f0     id3libD:field.obj
 0002:000008f8       ??_C@_0BC@OCOC@Copyright?5message?$AA@ 1008f8f8     id3libD:field.obj
 0002:0000090c       ??_C@_0N@PBMK@Content?5type?$AA@ 1008f90c     id3libD:field.obj
 0002:0000091c       ??_C@_08KCIG@Composer?$AA@ 1008f91c     id3libD:field.obj
 0002:00000928       ??_C@_0BH@HDPG@BPM?5?$CIbeats?5per?5minute?$CJ?$AA@ 1008f928     id3libD:field.obj
 0002:00000940       ??_C@_0BH@PEPH@Album?1Movie?1Show?5title?$AA@ 1008f940     id3libD:field.obj
 0002:00000958       ??_C@_0BJ@BKOP@Synchronized?5tempo?5codes?$AA@ 1008f958     id3libD:field.obj
 0002:00000974       ??_C@_0BI@LEJH@Synchronized?5lyric?1text?$AA@ 1008f974     id3libD:field.obj
 0002:0000098c       ??_C@_06HDJ@Reverb?$AA@    1008f98c     id3libD:field.obj
 0002:00000994       ??_C@_0BL@OFON@Relative?5volume?5adjustment?$AA@ 1008f994     id3libD:field.obj
 0002:000009b0       ??_C@_0BI@DOIE@Recommended?5buffer?5size?$AA@ 1008f9b0     id3libD:field.obj
 0002:000009c8       ??_C@_0O@DNJL@Private?5frame?$AA@ 1008f9c8     id3libD:field.obj
 0002:000009d8       ??_C@_0BP@OKKP@Position?5synchronisation?5frame?$AA@ 1008f9d8     id3libD:field.obj
 0002:000009f8       ??_C@_0O@KPBP@Popularimeter?$AA@ 1008f9f8     id3libD:field.obj
 0002:00000a08       ??_C@_0N@CKGE@Play?5counter?$AA@ 1008fa08     id3libD:field.obj
 0002:00000a18       ??_C@_0BA@EKCH@Ownership?5frame?$AA@ 1008fa18     id3libD:field.obj
 0002:00000a28       ??_C@_0BL@DPM@MPEG?5location?5lookup?5table?$AA@ 1008fa28     id3libD:field.obj
 0002:00000a44       ??_C@_0BE@FEED@Music?5CD?5identifier?$AA@ 1008fa44     id3libD:field.obj
 0002:00000a58       ??_C@_0BD@CKDK@Linked?5information?$AA@ 1008fa58     id3libD:field.obj
 0002:00000a6c       ??_C@_0BF@OMLH@Involved?5people?5list?$AA@ 1008fa6c     id3libD:field.obj
 0002:00000a84       ??_C@_0CC@GMHN@Group?5identification?5registratio@ 1008fa84     id3libD:field.obj
 0002:00000aa8       ??_C@_0BM@GHEO@General?5encapsulated?5object?$AA@ 1008faa8     id3libD:field.obj
 0002:00000ac4       ??_C@_0BD@PCFG@Event?5timing?5codes?$AA@ 1008fac4     id3libD:field.obj
 0002:00000ad8       ??_C@_0N@GOEM@Equalization?$AA@ 1008fad8     id3libD:field.obj
 0002:00000ae8       ??_C@_0BP@MHML@Encryption?5method?5registration?$AA@ 1008fae8     id3libD:field.obj
 0002:00000b08       ??_C@_0L@PCPO@Commercial?$AA@ 1008fb08     id3libD:field.obj
 0002:00000b14       ??_C@_08JMHK@Comments?$AA@ 1008fb14     id3libD:field.obj
 0002:00000b20       ??_C@_0BB@BCIE@Attached?5picture?$AA@ 1008fb20     id3libD:field.obj
 0002:00000b34       ??_C@_0BB@BAEA@Audio?5encryption?$AA@ 1008fb34     id3libD:field.obj
 0002:00000b48       ??_7ID3_FieldImpl@@6B@     1008fb48     id3libD:field.obj
 0002:00000bdc       ??_7ID3_Field@@6B@         1008fbdc     id3libD:field.obj
 0002:00000c70       ??_7CompressedReader@io@dami@@6B@ 1008fc70     id3libD:io_decorators.obj
 0002:00000ca4       ?ID@ID3_TagHeader@@2QBDB   1008fca4     id3libD:header_tag.obj
 0002:00000ca8       ??_C@_03LDCP@ID3?$AA@      1008fca8     id3libD:header_tag.obj
 0002:00000cac       ??_C@_0O@GHHK@ID3v1?5Comment?$AA@ 1008fcac     id3libD:helpers.obj
 0002:00000cbc       ??_C@_01FDLN@?1?$AA@       1008fcbc     id3libD:helpers.obj
 0002:00000cc0       ??_C@_01KMMP@?$CJ?$AA@     1008fcc0     id3libD:helpers.obj
 0002:00000cc4       ??_C@_01GFI@?$CI?$AA@      1008fcc4     id3libD:helpers.obj
 0002:00000cc8       ??_C@_03BJCF@XXX?$AA@      1008fcc8     id3libD:tag_parse_v1.obj
 0002:00000ccc       ??_C@_0BN@HFBB@Converted?5from?5Lyrics3?5v1?400?$AA@ 1008fccc     id3libD:tag_parse_lyrics3.obj
 0002:00000cec       ??_C@_0M@FLBH@LYRICSBEGIN?$AA@ 1008fcec     id3libD:tag_parse_lyrics3.obj
 0002:00000cf8       ??_C@_09DHNA@LYRICSEND?$AA@ 1008fcf8     id3libD:tag_parse_lyrics3.obj
 0002:00000d04       ??_C@_03OENN@IMG?$AA@      1008fd04     id3libD:tag_parse_lyrics3.obj
 0002:00000d08       ??_C@_0BN@BKOH@Converted?5from?5Lyrics3?5v2?400?$AA@ 1008fd08     id3libD:tag_parse_lyrics3.obj
 0002:00000d28       ??_C@_03GHCJ@LYR?$AA@      1008fd28     id3libD:tag_parse_lyrics3.obj
 0002:00000d2c       ??_C@_0BC@OKPG@Lyrics3?5v2?400?5INF?$AA@ 1008fd2c     id3libD:tag_parse_lyrics3.obj
 0002:00000d40       ??_C@_03HFLF@INF?$AA@      1008fd40     id3libD:tag_parse_lyrics3.obj
 0002:00000d44       ??_C@_03PNFM@AUT?$AA@      1008fd44     id3libD:tag_parse_lyrics3.obj
 0002:00000d48       ??_C@_03HIMN@EAL?$AA@      1008fd48     id3libD:tag_parse_lyrics3.obj
 0002:00000d4c       ??_C@_03HKHH@EAR?$AA@      1008fd4c     id3libD:tag_parse_lyrics3.obj
 0002:00000d50       ??_C@_03KDKM@ETT?$AA@      1008fd50     id3libD:tag_parse_lyrics3.obj
 0002:00000d54       ??_C@_03CAJL@IND?$AA@      1008fd54     id3libD:tag_parse_lyrics3.obj
 0002:00000d58       ??_C@_09EMFN@LYRICS200?$AA@ 1008fd58     id3libD:tag_parse_lyrics3.obj
 0002:00000d64       ??_7LineFeedReader@io@dami@@6B@ 1008fd64     id3libD:tag_parse_lyrics3.obj
 0002:00000d98       ??_7BStringWriter@io@dami@@6B@ 1008fd98     id3libD:tag_parse_lyrics3.obj
 0002:00000dc8       ??_C@_0BH@FAFJ@MusicMatch_ArtistEmail?$AA@ 1008fdc8     id3libD:tag_parse_musicmatch.obj
 0002:00000de0       ??_C@_0P@KFON@MusicMatch_Bio?$AA@ 1008fde0     id3libD:tag_parse_musicmatch.obj
 0002:00000df0       ??_C@_0BB@FOFJ@MusicMatch_Notes?$AA@ 1008fdf0     id3libD:tag_parse_musicmatch.obj
 0002:00000e04       ??_C@_0BC@MNCG@MusicMatch_Serial?$AA@ 1008fe04     id3libD:tag_parse_musicmatch.obj
 0002:00000e18       ??_C@_0BA@DIAP@MusicMatch_Path?$AA@ 1008fe18     id3libD:tag_parse_musicmatch.obj
 0002:00000e28       ??_C@_0BG@PBBO@MusicMatch_Preference?$AA@ 1008fe28     id3libD:tag_parse_musicmatch.obj
 0002:00000e40       ??_C@_0BF@EOHL@MusicMatch_Situation?$AA@ 1008fe40     id3libD:tag_parse_musicmatch.obj
 0002:00000e58       ??_C@_0BA@JBIA@MusicMatch_Mood?$AA@ 1008fe58     id3libD:tag_parse_musicmatch.obj
 0002:00000e68       ??_C@_0BB@OPKM@MusicMatch_Tempo?$AA@ 1008fe68     id3libD:tag_parse_musicmatch.obj
 0002:00000e7c       ??_C@_06KAJ@image?1?$AA@   1008fe7c     id3libD:tag_parse_musicmatch.obj
 0002:00000e84       ??_C@_08CCEC@18273645?$AA@ 1008fe84     id3libD:tag_parse_musicmatch.obj
 0002:00000e90       ??_C@_04OKOJ@3?400?$AA@    1008fe90     id3libD:tag_parse_musicmatch.obj
 0002:00000e98       ??_C@_0CB@KJJO@Brava?5Software?5Inc?4?5?5?5?5?5?5?5?5?5?5?5?5?5@ 1008fe98     id3libD:tag_parse_musicmatch.obj
 0002:00000ebc       ??_C@_02JKAF@rb?$AA@       1008febc     id3libD:field_binary.obj
 0002:00000ec0       ??_C@_02NGAF@wb?$AA@       1008fec0     id3libD:field_binary.obj
 0002:00000ec4       ??_C@_0O@FHMD@i386?2chkesp?4c?$AA@ 1008fec4     LIBCMTD:chkesp.obj
 0002:00000ed4       ??_C@_0NM@ELEE@The?5value?5of?5ESP?5was?5not?5properl@ 1008fed4     LIBCMTD:chkesp.obj
 0002:00000fb0       ??_C@_0L@OFGA@dbgdel?4cpp?$AA@ 1008ffb0     LIBCMTD:dbgdel.obj
 0002:00000fbc       ??_C@_0CH@PHOC@_BLOCK_TYPE_IS_VALID?$CIpHead?9?$DOnBlo@ 1008ffbc     LIBCMTD:dbgdel.obj
 0002:00000fe4       ??_C@_08CEA@onexit?4c?$AA@ 1008ffe4     LIBCMTD:onexit.obj
 0002:00000ff4       ??_7exception@@6B@         1008fff4     LIBCMTD:stdexcpt.obj
 0002:00000ffc       ??_C@_0BC@OIDF@Unknown?5exception?$AA@ 1008fffc     LIBCMTD:stdexcpt.obj
 0002:00001014       ??_7type_info@@6B@         10090014     LIBCMTD:typinfo.obj
 0002:00001038       ??_C@_08PHBD@fclose?4c?$AA@ 10090038     LIBCMTD:fclose.obj
 0002:00001044       ??_C@_0P@FHEA@stream?5?$CB?$DN?5NULL?$AA@ 10090044     LIBCMTD:fclose.obj
 0002:00001054       ??_C@_0M@KJPK@str?5?$CB?$DN?5NULL?$AA@ 10090054     LIBCMTD:fclose.obj
 0002:00001060       ??_C@_08KGLM@rewind?4c?$AA@ 10090060     LIBCMTD:rewind.obj
 0002:0000106c       ??_C@_09MBMN@tmpfile?4c?$AA@ 1009006c     LIBCMTD:tmpfile.obj
 0002:00001078       ??_C@_01PJCK@?4?$AA@       10090078     LIBCMTD:tmpfile.obj
 0002:0000107c       ??_C@_01PCFE@?2?$AA@       1009007c     LIBCMTD:tmpfile.obj
 0002:00001080       ??_C@_07CMIP@ftell?4c?$AA@ 10090080     LIBCMTD:ftell.obj
 0002:00001088       ??_C@_07HFEM@fseek?4c?$AA@ 10090088     LIBCMTD:fseek.obj
 0002:00001090       ??_C@_0BC@IPFL@?$CKmode?5?$CB?$DN?5_T?$CI?8?20?8?$CJ?$AA@ 10090090     LIBCMTD:fopen.obj
 0002:000010a4       ??_C@_0N@BKPP@mode?5?$CB?$DN?5NULL?$AA@ 100900a4     LIBCMTD:fopen.obj
 0002:000010b4       ??_C@_0BC@GOED@?$CKfile?5?$CB?$DN?5_T?$CI?8?20?8?$CJ?$AA@ 100900b4     LIBCMTD:fopen.obj
 0002:000010c8       ??_C@_07OMGG@fopen?4c?$AA@ 100900c8     LIBCMTD:fopen.obj
 0002:000010d0       ??_C@_0N@MCKG@file?5?$CB?$DN?5NULL?$AA@ 100900d0     LIBCMTD:fopen.obj
 0002:00001124       ??_C@_0L@ENLJ@tidtable?4c?$AA@ 10090124     LIBCMTD:tidtable.obj
 0002:00001160       ??_C@_0BB@BLL@Assertion?5Failed?$AA@ 10090160     LIBCMTD:dbgrpt.obj
 0002:00001174       ??_C@_05CKBG@Error?$AA@    10090174     LIBCMTD:dbgrpt.obj
 0002:0000117c       ??_C@_07JCGI@Warning?$AA@  1009017c     LIBCMTD:dbgrpt.obj
 0002:00001184       ??_C@_0M@ODEP@?$CFs?$CI?$CFd?$CJ?5?3?5?$CFs?$AA@ 10090184     LIBCMTD:dbgrpt.obj
 0002:00001190       ??_C@_01BJG@?6?$AA@        10090190     LIBCMTD:dbgrpt.obj
 0002:00001194       ??_C@_01FEHD@?$AN?$AA@     10090194     LIBCMTD:dbgrpt.obj
 0002:00001198       ??_C@_0BC@OIMC@Assertion?5failed?$CB?$AA@ 10090198     LIBCMTD:dbgrpt.obj
 0002:000011ac       ??_C@_0BD@BEAK@Assertion?5failed?3?5?$AA@ 100901ac     LIBCMTD:dbgrpt.obj
 0002:000011c0       ??_C@_0CL@LCCP@_CrtDbgReport?3?5String?5too?5long?5o@ 100901c0     LIBCMTD:dbgrpt.obj
 0002:000011ec       ??_C@_0DC@EMDK@Second?5Chance?5Assertion?5Failed?3?5@ 100901ec     LIBCMTD:dbgrpt.obj
 0002:00001220       ??_C@_09NJAK@wsprintfA?$AA@ 10090220     LIBCMTD:dbgrpt.obj
 0002:0000122c       ??_C@_0L@HKL@user32?4dll?$AA@ 1009022c     LIBCMTD:dbgrpt.obj
 0002:00001238       ??_C@_0CD@GCMD@Microsoft?5Visual?5C?$CL?$CL?5Debug?5Libra@ 10090238     LIBCMTD:dbgrpt.obj
 0002:0000125c       ??_C@_0FD@EBDD@Debug?5?$CFs?$CB?6?6Program?3?5?$CFs?$CFs?$CFs?$CFs?$CFs?$CFs@ 1009025c     LIBCMTD:dbgrpt.obj
 0002:000012b0       ??_C@_09DCKN@?6Module?3?5?$AA@ 100902b0     LIBCMTD:dbgrpt.obj
 0002:000012bc       ??_C@_07HJII@?6File?3?5?$AA@ 100902bc     LIBCMTD:dbgrpt.obj
 0002:000012c4       ??_C@_07LFGN@?6Line?3?5?$AA@ 100902c4     LIBCMTD:dbgrpt.obj
 0002:000012cc       ??_C@_02JJJH@?6?6?$AA@     100902cc     LIBCMTD:dbgrpt.obj
 0002:000012d0       ??_C@_0N@NOAB@Expression?3?5?$AA@ 100902d0     LIBCMTD:dbgrpt.obj
 0002:000012e0       ??_C@_0HD@BHFH@?6?6For?5information?5on?5how?5your?5pr@ 100902e0     LIBCMTD:dbgrpt.obj
 0002:00001354       ??_C@_03NAME@?4?4?4?$AA@   10090354     LIBCMTD:dbgrpt.obj
 0002:00001358       ??_C@_0BH@NNCD@?$DMprogram?5name?5unknown?$DO?$AA@ 10090358     LIBCMTD:dbgrpt.obj
 0002:00001370       ??_C@_08GFHP@dbgrpt?4c?$AA@ 10090370     LIBCMTD:dbgrpt.obj
 0002:0000137c       ??_C@_0BG@FBEA@szUserMessage?5?$CB?$DN?5NULL?$AA@ 1009037c     LIBCMTD:dbgrpt.obj
 0002:00001394       ??_C@_07PDLA@mlock?4c?$AA@ 10090394     LIBCMTD:mlock.obj
 0002:0000139c       ??_C@_06DPMO@Client?$AA@   1009039c     LIBCMTD:dbgheap.obj
 0002:000013a4       ??_C@_06BAFM@Ignore?$AA@   100903a4     LIBCMTD:dbgheap.obj
 0002:000013ac       ??_C@_03DICE@CRT?$AA@      100903ac     LIBCMTD:dbgheap.obj
 0002:000013b0       ??_C@_06BILL@Normal?$AA@   100903b0     LIBCMTD:dbgheap.obj
 0002:000013b8       ??_C@_04NEN@Free?$AA@      100903b8     LIBCMTD:dbgheap.obj
 0002:000013cc       ??_C@_0DC@CGID@Error?3?5memory?5allocation?3?5bad?5me@ 100903cc     LIBCMTD:dbgheap.obj
 0002:00001400       ??_C@_0CE@FMIA@Invalid?5allocation?5size?3?5?$CFu?5byte@ 10090400     LIBCMTD:dbgheap.obj
 0002:00001424       ??_C@_02DILL@?$CFs?$AA@    10090424     LIBCMTD:dbgheap.obj
 0002:00001428       ??_C@_0CB@CPBI@Client?5hook?5allocation?5failure?4?6@ 10090428     LIBCMTD:dbgheap.obj
 0002:0000144c       ??_C@_0DF@DKHF@Client?5hook?5allocation?5failure?5a@ 1009044c     LIBCMTD:dbgheap.obj
 0002:00001484       ??_C@_09IMJC@dbgheap?4c?$AA@ 10090484     LIBCMTD:dbgheap.obj
 0002:00001490       ??_C@_0BC@EPKL@_CrtCheckMemory?$CI?$CJ?$AA@ 10090490     LIBCMTD:dbgheap.obj
 0002:000014b4       ??_C@_0BK@JDHA@_pFirstBlock?5?$DN?$DN?5pOldBlock?$AA@ 100904b4     LIBCMTD:dbgheap.obj
 0002:000014d0       ??_C@_0BJ@NMEF@_pLastBlock?5?$DN?$DN?5pOldBlock?$AA@ 100904d0     LIBCMTD:dbgheap.obj
 0002:000014ec       ??_C@_0DC@BOCN@fRealloc?5?$HM?$HM?5?$CI?$CBfRealloc?5?$CG?$CG?5pNewBl@ 100904ec     LIBCMTD:dbgheap.obj
 0002:00001520       ??_C@_0DK@DKOM@_BLOCK_TYPE?$CIpOldBlock?9?$DOnBlockUse@ 10090520     LIBCMTD:dbgheap.obj
 0002:0000155c       ??_C@_0EF@EDKM@pOldBlock?9?$DOnLine?5?$DN?$DN?5IGNORE_LINE?5@ 1009055c     LIBCMTD:dbgheap.obj
 0002:000015a4       ??_C@_0CC@GPMO@_CrtIsValidHeapPointer?$CIpUserData@ 100905a4     LIBCMTD:dbgheap.obj
 0002:000015c8       ??_C@_0CN@FHGE@Allocation?5too?5large?5or?5negative@ 100905c8     LIBCMTD:dbgheap.obj
 0002:000015f8       ??_C@_0CE@EAMN@Client?5hook?5re?9allocation?5failur@ 100905f8     LIBCMTD:dbgheap.obj
 0002:0000161c       ??_C@_0DI@KKMM@Client?5hook?5re?9allocation?5failur@ 1009061c     LIBCMTD:dbgheap.obj
 0002:00001674       ??_C@_0BG@JCEC@_pFirstBlock?5?$DN?$DN?5pHead?$AA@ 10090674     LIBCMTD:dbgheap.obj
 0002:0000168c       ??_C@_0BF@NLNN@_pLastBlock?5?$DN?$DN?5pHead?$AA@ 1009068c     LIBCMTD:dbgheap.obj
 0002:000016a4       ??_C@_0BO@PLHH@pHead?9?$DOnBlockUse?5?$DN?$DN?5nBlockUse?$AA@ 100906a4     LIBCMTD:dbgheap.obj
 0002:000016c4       ??_C@_0DN@KKIO@pHead?9?$DOnLine?5?$DN?$DN?5IGNORE_LINE?5?$CG?$CG?5p@ 100906c4     LIBCMTD:dbgheap.obj
 0002:00001704       ??_C@_0CK@OJNB@DAMAGE?3?5after?5?$CFhs?5block?5?$CI?$CD?$CFd?$CJ?5at@ 10090704     LIBCMTD:dbgheap.obj
 0002:00001730       ??_C@_0CL@IJIL@DAMAGE?3?5before?5?$CFhs?5block?5?$CI?$CD?$CFd?$CJ?5a@ 10090730     LIBCMTD:dbgheap.obj
 0002:0000175c       ??_C@_0BL@MBNA@Client?5hook?5free?5failure?4?6?$AA@ 1009075c     LIBCMTD:dbgheap.obj
 0002:00001794       ??_C@_0DK@EKKL@memory?5check?5error?5at?50x?$CF08X?5?$DN?50@ 10090794     LIBCMTD:dbgheap.obj
 0002:000017d0       ??_C@_0CJ@GCII@?$CFhs?5located?5at?50x?$CF08X?5is?5?$CFu?5byte@ 100907d0     LIBCMTD:dbgheap.obj
 0002:000017fc       ??_C@_0CA@EJPI@?$CFhs?5allocated?5at?5file?5?$CFhs?$CI?$CFd?$CJ?4?6?$AA@ 100907fc     LIBCMTD:dbgheap.obj
 0002:0000181c       ??_C@_0CJ@LHHG@DAMAGE?3?5on?5top?5of?5Free?5block?5at?5@ 1009081c     LIBCMTD:dbgheap.obj
 0002:00001848       ??_C@_07GJHM@DAMAGED?$AA@  10090848     LIBCMTD:dbgheap.obj
 0002:00001850       ??_C@_0CL@ODIE@_heapchk?5fails?5with?5unknown?5retu@ 10090850     LIBCMTD:dbgheap.obj
 0002:0000187c       ??_C@_0CC@EHNC@_heapchk?5fails?5with?5_HEAPBADPTR?4@ 1009087c     LIBCMTD:dbgheap.obj
 0002:000018a0       ??_C@_0CC@JNDP@_heapchk?5fails?5with?5_HEAPBADEND?4@ 100908a0     LIBCMTD:dbgheap.obj
 0002:000018c4       ??_C@_0CD@DNMG@_heapchk?5fails?5with?5_HEAPBADNODE@ 100908c4     LIBCMTD:dbgheap.obj
 0002:000018e8       ??_C@_0CE@JMCB@_heapchk?5fails?5with?5_HEAPBADBEGI@ 100908e8     LIBCMTD:dbgheap.obj
 0002:0000193c       ??_C@_0CD@MEMI@Bad?5memory?5block?5found?5at?50x?$CF08X@ 1009093c     LIBCMTD:dbgheap.obj
 0002:00001960       ??_C@_0CI@GMAO@_CrtMemCheckPoint?3?5NULL?5state?5po@ 10090960     LIBCMTD:dbgheap.obj
 0002:00001994       ??_C@_0CI@MNAE@_CrtMemDifference?3?5NULL?5state?5po@ 10090994     LIBCMTD:dbgheap.obj
 0002:000019bc       ??_C@_0BH@PKIJ@Object?5dump?5complete?4?6?$AA@ 100909bc     LIBCMTD:dbgheap.obj
 0002:000019d4       ??_C@_0DB@DBPF@crt?5block?5at?50x?$CF08X?0?5subtype?5?$CFx?0@ 100909d4     LIBCMTD:dbgheap.obj
 0002:00001a08       ??_C@_0CI@JLM@normal?5block?5at?50x?$CF08X?0?5?$CFu?5bytes@ 10090a08     LIBCMTD:dbgheap.obj
 0002:00001a30       ??_C@_0DE@PFEA@client?5block?5at?50x?$CF08X?0?5subtype?5@ 10090a30     LIBCMTD:dbgheap.obj
 0002:00001a64       ??_C@_06MBCE@?$HL?$CFld?$HN?5?$AA@ 10090a64     LIBCMTD:dbgheap.obj
 0002:00001a6c       ??_C@_0L@BLDJ@?$CFhs?$CI?$CFd?$CJ?5?3?5?$AA@ 10090a6c     LIBCMTD:dbgheap.obj
 0002:00001a78       ??_C@_0BE@FEMA@?$CDFile?5Error?$CD?$CI?$CFd?$CJ?5?3?5?$AA@ 10090a78     LIBCMTD:dbgheap.obj
 0002:00001a8c       ??_C@_0BE@FPPM@Dumping?5objects?5?9?$DO?6?$AA@ 10090a8c     LIBCMTD:dbgheap.obj
 0002:00001aac       ??_C@_0BA@POLM@?5Data?3?5?$DM?$CFs?$DO?5?$CFs?6?$AA@ 10090aac     LIBCMTD:dbgheap.obj
 0002:00001abc       ??_C@_05JLAO@?$CF?42X?5?$AA@ 10090abc     LIBCMTD:dbgheap.obj
 0002:00001ac4       ??_C@_0BI@KONA@Detected?5memory?5leaks?$CB?6?$AA@ 10090ac4     LIBCMTD:dbgheap.obj
 0002:00001adc       ??_C@_0BP@LCCN@Total?5allocations?3?5?$CFld?5bytes?4?6?$AA@ 10090adc     LIBCMTD:dbgheap.obj
 0002:00001afc       ??_C@_0CB@COID@Largest?5number?5used?3?5?$CFld?5bytes?4?6@ 10090afc     LIBCMTD:dbgheap.obj
 0002:00001b20       ??_C@_0BO@MEJD@?$CFld?5bytes?5in?5?$CFld?5?$CFhs?5Blocks?4?6?$AA@ 10090b20     LIBCMTD:dbgheap.obj
 0002:00001b40       ??_C@_08KFDJ@ioinit?4c?$AA@ 10090b40     LIBCMTD:ioinit.obj
 0002:00001b4c       ??_C@_09IGKD@stdenvp?4c?$AA@ 10090b4c     LIBCMTD:stdenvp.obj
 0002:00001b58       ??_C@_09MPMN@stdargv?4c?$AA@ 10090b58     LIBCMTD:stdargv.obj
 0002:00001b64       ??_C@_07BNNE@a_env?4c?$AA@ 10090b64     LIBCMTD:a_env.obj
 0002:00001b6c       ??_C@_0BH@PHHF@__GLOBAL_HEAP_SELECTED?$AA@ 10090b6c     LIBCMTD:heapinit.obj
 0002:00001b84       ??_C@_0BF@BBGL@__MSVCRT_HEAP_SELECT?$AA@ 10090b84     LIBCMTD:heapinit.obj
 0002:00001b9c       ??_C@_0P@GGKG@runtime?5error?5?$AA@ 10090b9c     LIBCMTD:crt0msg.obj
 0002:00001bac       ??_C@_02PIMC@?$AN?6?$AA@   10090bac     LIBCMTD:crt0msg.obj
 0002:00001bb0       ??_C@_0O@DELO@TLOSS?5error?$AN?6?$AA@ 10090bb0     LIBCMTD:crt0msg.obj
 0002:00001bc0       ??_C@_0N@OMLL@SING?5error?$AN?6?$AA@ 10090bc0     LIBCMTD:crt0msg.obj
 0002:00001bd0       ??_C@_0P@OJAK@DOMAIN?5error?$AN?6?$AA@ 10090bd0     LIBCMTD:crt0msg.obj
 0002:00001be0       ??_C@_0CF@EANP@R6028?$AN?6?9?5unable?5to?5initialize?5he@ 10090be0     LIBCMTD:crt0msg.obj
 0002:00001c08       ??_C@_0DF@ECGN@R6027?$AN?6?9?5not?5enough?5space?5for?5lo@ 10090c08     LIBCMTD:crt0msg.obj
 0002:00001c40       ??_C@_0DF@FKAC@R6026?$AN?6?9?5not?5enough?5space?5for?5st@ 10090c40     LIBCMTD:crt0msg.obj
 0002:00001c78       ??_C@_0CG@DPMN@R6025?$AN?6?9?5pure?5virtual?5function?5c@ 10090c78     LIBCMTD:crt0msg.obj
 0002:00001ca0       ??_C@_0DF@CKIP@R6024?$AN?6?9?5not?5enough?5space?5for?5_o@ 10090ca0     LIBCMTD:crt0msg.obj
 0002:00001cd8       ??_C@_0CJ@GGOE@R6019?$AN?6?9?5unable?5to?5open?5console?5@ 10090cd8     LIBCMTD:crt0msg.obj
 0002:00001d04       ??_C@_0CB@LBOB@R6018?$AN?6?9?5unexpected?5heap?5error?$AN?6@ 10090d04     LIBCMTD:crt0msg.obj
 0002:00001d28       ??_C@_0CN@FPEG@R6017?$AN?6?9?5unexpected?5multithread?5@ 10090d28     LIBCMTD:crt0msg.obj
 0002:00001d58       ??_C@_0CM@OBIC@R6016?$AN?6?9?5not?5enough?5space?5for?5th@ 10090d58     LIBCMTD:crt0msg.obj
 0002:00001d84       ??_C@_0CB@HPAL@?$AN?6abnormal?5program?5termination?$AN?6@ 10090d84     LIBCMTD:crt0msg.obj
 0002:00001da8       ??_C@_0CM@JOOB@R6009?$AN?6?9?5not?5enough?5space?5for?5en@ 10090da8     LIBCMTD:crt0msg.obj
 0002:00001dd4       ??_C@_0CK@OIBL@R6008?$AN?6?9?5not?5enough?5space?5for?5ar@ 10090dd4     LIBCMTD:crt0msg.obj
 0002:00001e00       ??_C@_0CF@LKPB@R6002?$AN?6?9?5floating?5point?5not?5load@ 10090e00     LIBCMTD:crt0msg.obj
 0002:00001e28       ??_C@_0CF@JPDF@Microsoft?5Visual?5C?$CL?$CL?5Runtime?5Lib@ 10090e28     LIBCMTD:crt0msg.obj
 0002:00001e50       ??_C@_0BK@DEOK@Runtime?5Error?$CB?6?6Program?3?5?$AA@ 10090e50     LIBCMTD:crt0msg.obj
 0002:00001e88       ??_C@_07HPAH@_file?4c?$AA@ 10090e88     LIBCMTD:_file.obj
 0002:00001e90       ??_C@_0L@JIE@_freebuf?4c?$AA@ 10090e90     LIBCMTD:_freebuf.obj
 0002:00001e9c       ??_C@_09DNOI@_filbuf?4c?$AA@ 10090e9c     LIBCMTD:_filbuf.obj
 0002:00001ea8       ??_C@_0DP@IHIN@?$CI?$CCinconsistent?5IOB?5fields?$CC?0?5stre@ 10090ea8     LIBCMTD:_flsbuf.obj
 0002:00001ee8       ??_C@_09LGEI@_flsbuf?4c?$AA@ 10090ee8     LIBCMTD:_flsbuf.obj
 0002:00001ef4       ??_C@_08HJEP@stream?4c?$AA@ 10090ef4     LIBCMTD:stream.obj
 0002:00001f00       ??_C@_07INLA@_open?4c?$AA@ 10090f00     LIBCMTD:_open.obj
 0002:00001f08       ??_C@_0BB@COCE@filename?5?$CB?$DN?5NULL?$AA@ 10090f08     LIBCMTD:_open.obj
 0002:00001f1c       ??_C@_0P@LNLA@format?5?$CB?$DN?5NULL?$AA@ 10090f1c     LIBCMTD:snprintf.obj
 0002:00001f2c       ??_C@_09NEAG@sprintf?4c?$AA@ 10090f2c     LIBCMTD:snprintf.obj
 0002:00001f38       ??_C@_0P@OOIN@string?5?$CB?$DN?5NULL?$AA@ 10090f38     LIBCMTD:snprintf.obj
 0002:00001f48       ??_C@_0L@HE@vsprintf?4c?$AA@ 10090f48     LIBCMTD:vsnprint.obj
 0002:00001f54       ??_C@_08CNMA@winsig?4c?$AA@ 10090f54     LIBCMTD:winsig.obj
 0002:00001f60       ??_C@_0BD@NJFP@GetLastActivePopup?$AA@ 10090f60     LIBCMTD:crtmbox.obj
 0002:00001f74       ??_C@_0BA@GILI@GetActiveWindow?$AA@ 10090f74     LIBCMTD:crtmbox.obj
 0002:00001f84       ??_C@_0M@PKCK@MessageBoxA?$AA@ 10090f84     LIBCMTD:crtmbox.obj
 0002:00001ff0       ??_C@_01A@?$AA?$AA@        10090ff0     LIBCMTD:a_str.obj
 0002:00001ff4       ??_C@_13A@?$AA?$AA?$AA?$AA@ 10090ff4     LIBCMTD:a_str.obj
 0002:00002004       ??_C@_09LNLM@osfinfo?4c?$AA@ 10091004     LIBCMTD:osfinfo.obj
 0002:00002010       ??_C@_09EMDO@_getbuf?4c?$AA@ 10091010     LIBCMTD:_getbuf.obj
 0002:0000201c       ??_C@_08EIOK@chsize?4c?$AA@ 1009101c     LIBCMTD:chsize.obj
 0002:00002028       ??_C@_09NPGF@size?5?$DO?$DN?50?$AA@ 10091028     LIBCMTD:chsize.obj
 0002:00002034       ___lookuptable             10091034     LIBCMTD:output.obj
 0002:00002090       ??_C@_1O@POHA@?$AA?$CI?$AAn?$AAu?$AAl?$AAl?$AA?$CJ?$AA?$AA@ 10091090     LIBCMTD:output.obj
 0002:000020a0       ??_C@_06ONKE@?$CInull?$CJ?$AA@ 100910a0     LIBCMTD:output.obj
 0002:000020a8       ??_C@_08MIHI@output?4c?$AA@ 100910a8     LIBCMTD:output.obj
 0002:000020b4       ??_C@_0P@PIHB@ch?5?$CB?$DN?5_T?$CI?8?20?8?$CJ?$AA@ 100910b4     LIBCMTD:output.obj
 0002:000020e0       ??_C@_07PCLE@LC_TIME?$AA@  100910e0     LIBCMTD:setlocal.obj
 0002:000020e8       ??_C@_0L@NKG@LC_NUMERIC?$AA@ 100910e8     LIBCMTD:setlocal.obj
 0002:000020f4       ??_C@_0M@CBIH@LC_MONETARY?$AA@ 100910f4     LIBCMTD:setlocal.obj
 0002:00002100       ??_C@_08LFGE@LC_CTYPE?$AA@ 10091100     LIBCMTD:setlocal.obj
 0002:0000210c       ??_C@_0L@CFLC@LC_COLLATE?$AA@ 1009110c     LIBCMTD:setlocal.obj
 0002:00002118       ??_C@_06GCPK@LC_ALL?$AA@   10091118     LIBCMTD:setlocal.obj
 0002:00002120       ??_C@_01FAJB@?$DL?$AA@     10091120     LIBCMTD:setlocal.obj
 0002:00002124       ??_C@_02BGDO@?$DN?$DL?$AA@ 10091124     LIBCMTD:setlocal.obj
 0002:00002128       ??_C@_0L@MOEE@setlocal?4c?$AA@ 10091128     LIBCMTD:setlocal.obj
 0002:00002134       ??_C@_01KPOD@?$DN?$AA@     10091134     LIBCMTD:setlocal.obj
 0002:00002138       ??_C@_03DBOJ@_?4?0?$AA@    10091138     LIBCMTD:setlocal.obj
 0002:0000213c       ??_C@_01NON@_?$AA@         1009113c     LIBCMTD:setlocal.obj
 0002:00002140       ??_C@_0L@EEGJ@inittime?4c?$AA@ 10091140     LIBCMTD:inittime.obj
 0002:0000214c       ??_C@_09IMJJ@initnum?4c?$AA@ 1009114c     LIBCMTD:initnum.obj
 0002:00002158       ??_C@_09KPNI@initmon?4c?$AA@ 10091158     LIBCMTD:initmon.obj
 0002:00002164       ??_C@_0L@COIL@initctyp?4c?$AA@ 10091164     LIBCMTD:initctyp.obj
 0002:00002170       ??_C@_08OBJD@Paraguay?$AA@ 10091170     LIBCMTD:getqloc.obj
 0002:0000217c       ??_C@_07GLKH@Uruguay?$AA@  1009117c     LIBCMTD:getqloc.obj
 0002:00002184       ??_C@_05FPFC@Chile?$AA@    10091184     LIBCMTD:getqloc.obj
 0002:0000218c       ??_C@_07IIGF@Ecuador?$AA@  1009118c     LIBCMTD:getqloc.obj
 0002:00002194       ??_C@_09PKAL@Argentina?$AA@ 10091194     LIBCMTD:getqloc.obj
 0002:000021a0       ??_C@_04LKAH@Peru?$AA@     100911a0     LIBCMTD:getqloc.obj
 0002:000021a8       ??_C@_08NEEM@Colombia?$AA@ 100911a8     LIBCMTD:getqloc.obj
 0002:000021b4       ??_C@_09ODEB@Venezuela?$AA@ 100911b4     LIBCMTD:getqloc.obj
 0002:000021c0       ??_C@_0BD@CLEL@Dominican?5Republic?$AA@ 100911c0     LIBCMTD:getqloc.obj
 0002:000021d4       ??_C@_0N@MDGL@South?5Africa?$AA@ 100911d4     LIBCMTD:getqloc.obj
 0002:000021e4       ??_C@_06NKBG@Panama?$AA@   100911e4     LIBCMTD:getqloc.obj
 0002:000021ec       ??_C@_0L@BMHO@Luxembourg?$AA@ 100911ec     LIBCMTD:getqloc.obj
 0002:000021f8       ??_C@_0L@IMDK@Costa?5Rica?$AA@ 100911f8     LIBCMTD:getqloc.obj
 0002:00002204       ??_C@_0M@BLJF@Switzerland?$AA@ 10091204     LIBCMTD:getqloc.obj
 0002:00002210       ??_C@_09KBOL@Guatemala?$AA@ 10091210     LIBCMTD:getqloc.obj
 0002:0000221c       ??_C@_06JNAK@Canada?$AA@   1009121c     LIBCMTD:getqloc.obj
 0002:00002224       ??_C@_0BG@OLLP@Spanish?5?9?5Modern?5Sort?$AA@ 10091224     LIBCMTD:getqloc.obj
 0002:0000223c       ??_C@_09IDKE@Australia?$AA@ 1009123c     LIBCMTD:getqloc.obj
 0002:00002248       ??_C@_07JJJJ@English?$AA@  10091248     LIBCMTD:getqloc.obj
 0002:00002250       ??_C@_07NMDO@Austria?$AA@  10091250     LIBCMTD:getqloc.obj
 0002:00002258       ??_C@_06DEFE@German?$AA@   10091258     LIBCMTD:getqloc.obj
 0002:00002260       ??_C@_07JAIH@Belgium?$AA@  10091260     LIBCMTD:getqloc.obj
 0002:00002268       ??_C@_06BNLJ@Mexico?$AA@   10091268     LIBCMTD:getqloc.obj
 0002:00002270       ??_C@_07JHAG@Spanish?$AA@  10091270     LIBCMTD:getqloc.obj
 0002:00002278       ??_C@_06DADE@Basque?$AA@   10091278     LIBCMTD:getqloc.obj
 0002:00002280       ??_C@_06ENFP@Sweden?$AA@   10091280     LIBCMTD:getqloc.obj
 0002:00002288       ??_C@_07JPMH@Swedish?$AA@  10091288     LIBCMTD:getqloc.obj
 0002:00002290       ??_C@_07IEKF@Iceland?$AA@  10091290     LIBCMTD:getqloc.obj
 0002:00002298       ??_C@_09KNEA@Icelandic?$AA@ 10091298     LIBCMTD:getqloc.obj
 0002:000022a4       ??_C@_06IJOD@France?$AA@   100912a4     LIBCMTD:getqloc.obj
 0002:000022ac       ??_C@_06EINI@French?$AA@   100912ac     LIBCMTD:getqloc.obj
 0002:000022b4       ??_C@_07FOOE@Finland?$AA@  100912b4     LIBCMTD:getqloc.obj
 0002:000022bc       ??_C@_07OJOM@Finnish?$AA@  100912bc     LIBCMTD:getqloc.obj
 0002:000022c4       ??_C@_05FFAC@Spain?$AA@    100912c4     LIBCMTD:getqloc.obj
 0002:000022cc       ??_C@_0BL@BIHM@Spanish?5?9?5Traditional?5Sort?$AA@ 100912cc     LIBCMTD:getqloc.obj
 0002:000022e8       ??_C@_0O@GLHB@united?9states?$AA@ 100912e8     LIBCMTD:getqloc.obj
 0002:000022f8       ??_C@_0P@IIKK@united?9kingdom?$AA@ 100912f8     LIBCMTD:getqloc.obj
 0002:00002308       ??_C@_0BC@FHBO@trinidad?5?$CG?5tobago?$AA@ 10091308     LIBCMTD:getqloc.obj
 0002:0000231c       ??_C@_0M@BDFM@south?9korea?$AA@ 1009131c     LIBCMTD:getqloc.obj
 0002:00002328       ??_C@_0N@CKFA@south?9africa?$AA@ 10091328     LIBCMTD:getqloc.obj
 0002:00002338       ??_C@_0M@HNHN@south?5korea?$AA@ 10091338     LIBCMTD:getqloc.obj
 0002:00002344       ??_C@_0N@MKDO@south?5africa?$AA@ 10091344     LIBCMTD:getqloc.obj
 0002:00002354       ??_C@_06KFFJ@slovak?$AA@   10091354     LIBCMTD:getqloc.obj
 0002:0000235c       ??_C@_0M@NMAC@puerto?9rico?$AA@ 1009135c     LIBCMTD:getqloc.obj
 0002:00002368       ??_C@_08EJOH@pr?9china?$AA@ 10091368     LIBCMTD:getqloc.obj
 0002:00002374       ??_C@_08CHMG@pr?5china?$AA@ 10091374     LIBCMTD:getqloc.obj
 0002:00002380       ??_C@_02OCJK@nz?$AA@       10091380     LIBCMTD:getqloc.obj
 0002:00002384       ??_C@_0M@MMKA@new?9zealand?$AA@ 10091384     LIBCMTD:getqloc.obj
 0002:00002390       ??_C@_09MGEH@hong?9kong?$AA@ 10091390     LIBCMTD:getqloc.obj
 0002:0000239c       ??_C@_07CCAK@holland?$AA@  1009139c     LIBCMTD:getqloc.obj
 0002:000023a4       ??_C@_0O@MEPL@great?5britain?$AA@ 100913a4     LIBCMTD:getqloc.obj
 0002:000023b4       ??_C@_07LGIB@england?$AA@  100913b4     LIBCMTD:getqloc.obj
 0002:000023bc       ??_C@_05BMOA@czech?$AA@    100913bc     LIBCMTD:getqloc.obj
 0002:000023c4       ??_C@_05NMPB@china?$AA@    100913c4     LIBCMTD:getqloc.obj
 0002:000023cc       ??_C@_07GN@britain?$AA@    100913cc     LIBCMTD:getqloc.obj
 0002:000023d4       ??_C@_07DLAK@america?$AA@  100913d4     LIBCMTD:getqloc.obj
 0002:000023dc       ??_C@_03IPEP@usa?$AA@      100913dc     LIBCMTD:getqloc.obj
 0002:000023e0       ??_C@_02PILH@us?$AA@       100913e0     LIBCMTD:getqloc.obj
 0002:000023e4       ??_C@_02FHP@uk?$AA@        100913e4     LIBCMTD:getqloc.obj
 0002:000023e8       ??_C@_05DEAI@swiss?$AA@    100913e8     LIBCMTD:getqloc.obj
 0002:000023f0       ??_C@_0BA@LIAF@swedish?9finland?$AA@ 100913f0     LIBCMTD:getqloc.obj
 0002:00002400       ??_C@_0BC@FMEG@spanish?9venezuela?$AA@ 10091400     LIBCMTD:getqloc.obj
 0002:00002414       ??_C@_0BA@BNMG@spanish?9uruguay?$AA@ 10091414     LIBCMTD:getqloc.obj
 0002:00002424       ??_C@_0BE@BKDJ@spanish?9puerto?5rico?$AA@ 10091424     LIBCMTD:getqloc.obj
 0002:00002438       ??_C@_0N@JIBL@spanish?9peru?$AA@ 10091438     LIBCMTD:getqloc.obj
 0002:00002448       ??_C@_0BB@OGOF@spanish?9paraguay?$AA@ 10091448     LIBCMTD:getqloc.obj
 0002:0000245c       ??_C@_0P@LLFA@spanish?9panama?$AA@ 1009145c     LIBCMTD:getqloc.obj
 0002:0000246c       ??_C@_0BC@BBJM@spanish?9nicaragua?$AA@ 1009146c     LIBCMTD:getqloc.obj
 0002:00002480       ??_C@_0P@NJBN@spanish?9modern?$AA@ 10091480     LIBCMTD:getqloc.obj
 0002:00002490       ??_C@_0BA@NHDN@spanish?9mexican?$AA@ 10091490     LIBCMTD:getqloc.obj
 0002:000024a0       ??_C@_0BB@JHOJ@spanish?9honduras?$AA@ 100914a0     LIBCMTD:getqloc.obj
 0002:000024b4       ??_C@_0BC@BOOM@spanish?9guatemala?$AA@ 100914b4     LIBCMTD:getqloc.obj
 0002:000024c8       ??_C@_0BE@EELI@spanish?9el?5salvador?$AA@ 100914c8     LIBCMTD:getqloc.obj
 0002:000024dc       ??_C@_0BA@POAE@spanish?9ecuador?$AA@ 100914dc     LIBCMTD:getqloc.obj
 0002:000024ec       ??_C@_0BL@LDKN@spanish?9dominican?5republic?$AA@ 100914ec     LIBCMTD:getqloc.obj
 0002:00002508       ??_C@_0BD@HPMH@spanish?9costa?5rica?$AA@ 10091508     LIBCMTD:getqloc.obj
 0002:0000251c       ??_C@_0BB@NDDK@spanish?9colombia?$AA@ 1009151c     LIBCMTD:getqloc.obj
 0002:00002530       ??_C@_0O@BJHA@spanish?9chile?$AA@ 10091530     LIBCMTD:getqloc.obj
 0002:00002540       ??_C@_0BA@OBNG@spanish?9bolivia?$AA@ 10091540     LIBCMTD:getqloc.obj
 0002:00002550       ??_C@_0BC@EFAM@spanish?9argentina?$AA@ 10091550     LIBCMTD:getqloc.obj
 0002:00002564       ??_C@_0BF@KMMM@portuguese?9brazilian?$AA@ 10091564     LIBCMTD:getqloc.obj
 0002:0000257c       ??_C@_0BC@BAAE@norwegian?9nynorsk?$AA@ 1009157c     LIBCMTD:getqloc.obj
 0002:00002590       ??_C@_0BB@PBHK@norwegian?9bokmal?$AA@ 10091590     LIBCMTD:getqloc.obj
 0002:000025a4       ??_C@_09EHKL@norwegian?$AA@ 100915a4     LIBCMTD:getqloc.obj
 0002:000025b0       ??_C@_0O@BEAN@italian?9swiss?$AA@ 100915b0     LIBCMTD:getqloc.obj
 0002:000025c0       ??_C@_0O@OIFK@irish?9english?$AA@ 100915c0     LIBCMTD:getqloc.obj
 0002:000025d0       ??_C@_0N@NBPL@german?9swiss?$AA@ 100915d0     LIBCMTD:getqloc.obj
 0002:000025e0       ??_C@_0BC@ICFJ@german?9luxembourg?$AA@ 100915e0     LIBCMTD:getqloc.obj
 0002:000025f4       ??_C@_0BE@GGPC@german?9lichtenstein?$AA@ 100915f4     LIBCMTD:getqloc.obj
 0002:00002608       ??_C@_0BA@MKDC@german?9austrian?$AA@ 10091608     LIBCMTD:getqloc.obj
 0002:00002618       ??_C@_0N@ODNB@french?9swiss?$AA@ 10091618     LIBCMTD:getqloc.obj
 0002:00002628       ??_C@_0BC@MGCM@french?9luxembourg?$AA@ 10091628     LIBCMTD:getqloc.obj
 0002:0000263c       ??_C@_0BA@NABK@french?9canadian?$AA@ 1009163c     LIBCMTD:getqloc.obj
 0002:0000264c       ??_C@_0P@CJNO@french?9belgian?$AA@ 1009164c     LIBCMTD:getqloc.obj
 0002:0000265c       ??_C@_0M@LJOL@english?9usa?$AA@ 1009165c     LIBCMTD:getqloc.obj
 0002:00002668       ??_C@_0L@FMNC@english?9us?$AA@ 10091668     LIBCMTD:getqloc.obj
 0002:00002674       ??_C@_0L@KBBK@english?9uk?$AA@ 10091674     LIBCMTD:getqloc.obj
 0002:00002680       ??_C@_0BK@NDDE@english?9trinidad?5y?5tobago?$AA@ 10091680     LIBCMTD:getqloc.obj
 0002:0000269c       ??_C@_0BF@LKML@english?9south?5africa?$AA@ 1009169c     LIBCMTD:getqloc.obj
 0002:000026b4       ??_C@_0L@EGPP@english?9nz?$AA@ 100916b4     LIBCMTD:getqloc.obj
 0002:000026c0       ??_C@_0BA@HLH@english?9jamaica?$AA@ 100916c0     LIBCMTD:getqloc.obj
 0002:000026d0       ??_C@_0M@PMJI@english?9ire?$AA@ 100916d0     LIBCMTD:getqloc.obj
 0002:000026dc       ??_C@_0BC@HINE@english?9caribbean?$AA@ 100916dc     LIBCMTD:getqloc.obj
 0002:000026f0       ??_C@_0M@DCFH@english?9can?$AA@ 100916f0     LIBCMTD:getqloc.obj
 0002:000026fc       ??_C@_0P@DGHK@english?9belize?$AA@ 100916fc     LIBCMTD:getqloc.obj
 0002:0000270c       ??_C@_0M@FLHK@english?9aus?$AA@ 1009170c     LIBCMTD:getqloc.obj
 0002:00002718       ??_C@_0BB@HNCK@english?9american?$AA@ 10091718     LIBCMTD:getqloc.obj
 0002:0000272c       ??_C@_0O@PAMI@dutch?9belgian?$AA@ 1009172c     LIBCMTD:getqloc.obj
 0002:0000273c       ??_C@_0BE@FPEJ@chinese?9traditional?$AA@ 1009173c     LIBCMTD:getqloc.obj
 0002:00002750       ??_C@_0BC@CHFL@chinese?9singapore?$AA@ 10091750     LIBCMTD:getqloc.obj
 0002:00002764       ??_C@_0BD@DCMH@chinese?9simplified?$AA@ 10091764     LIBCMTD:getqloc.obj
 0002:00002778       ??_C@_0BB@JMOE@chinese?9hongkong?$AA@ 10091778     LIBCMTD:getqloc.obj
 0002:0000278c       ??_C@_07NGFN@chinese?$AA@  1009178c     LIBCMTD:getqloc.obj
 0002:00002794       ??_C@_03PCOI@chi?$AA@      10091794     LIBCMTD:getqloc.obj
 0002:00002798       ??_C@_03FIHP@chh?$AA@      10091798     LIBCMTD:getqloc.obj
 0002:0000279c       ??_C@_08HFLO@canadian?$AA@ 1009179c     LIBCMTD:getqloc.obj
 0002:000027a8       ??_C@_07INIJ@belgian?$AA@  100917a8     LIBCMTD:getqloc.obj
 0002:000027b0       ??_C@_0L@LCCA@australian?$AA@ 100917b0     LIBCMTD:getqloc.obj
 0002:000027bc       ??_C@_0BB@BJIO@american?9english?$AA@ 100917bc     LIBCMTD:getqloc.obj
 0002:000027d0       ??_C@_0BB@DAGO@american?5english?$AA@ 100917d0     LIBCMTD:getqloc.obj
 0002:000027e4       ??_C@_08HENB@american?$AA@ 100917e4     LIBCMTD:getqloc.obj
 0002:000027f0       ??_C@_03DGJE@OCP?$AA@      100917f0     LIBCMTD:getqloc.obj
 0002:000027f4       ??_C@_03EKFG@ACP?$AA@      100917f4     LIBCMTD:getqloc.obj
 0002:000027f8       ??_C@_07CJME@H?3mm?3ss?$AA@ 100917f8     LIBCMTD:strftime.obj
 0002:00002800       ??_C@_0BE@MHI@dddd?0?5MMMM?5dd?0?5yyyy?$AA@ 10091800     LIBCMTD:strftime.obj
 0002:00002814       ??_C@_06HCAD@M?1d?1yy?$AA@ 10091814     LIBCMTD:strftime.obj
 0002:0000281c       ??_C@_02DBLP@PM?$AA@       1009181c     LIBCMTD:strftime.obj
 0002:00002820       ??_C@_02ENLM@AM?$AA@       10091820     LIBCMTD:strftime.obj
 0002:00002824       ??_C@_08LIDF@December?$AA@ 10091824     LIBCMTD:strftime.obj
 0002:00002830       ??_C@_08NJLI@November?$AA@ 10091830     LIBCMTD:strftime.obj
 0002:0000283c       ??_C@_07IAMM@October?$AA@  1009183c     LIBCMTD:strftime.obj
 0002:00002844       ??_C@_09MKGD@September?$AA@ 10091844     LIBCMTD:strftime.obj
 0002:00002850       ??_C@_06PADP@August?$AA@   10091850     LIBCMTD:strftime.obj
 0002:00002858       ??_C@_04PIJO@July?$AA@     10091858     LIBCMTD:strftime.obj
 0002:00002860       ??_C@_04ICFP@June?$AA@     10091860     LIBCMTD:strftime.obj
 0002:00002868       ??_C@_05JFGC@April?$AA@    10091868     LIBCMTD:strftime.obj
 0002:00002870       ??_C@_05FGPD@March?$AA@    10091870     LIBCMTD:strftime.obj
 0002:00002878       ??_C@_08PGBA@February?$AA@ 10091878     LIBCMTD:strftime.obj
 0002:00002884       ??_C@_07BPKJ@January?$AA@  10091884     LIBCMTD:strftime.obj
 0002:0000288c       ??_C@_08FAKH@Saturday?$AA@ 1009188c     LIBCMTD:strftime.obj
 0002:00002898       ??_C@_06ONCK@Friday?$AA@   10091898     LIBCMTD:strftime.obj
 0002:000028a0       ??_C@_08CCFO@Thursday?$AA@ 100918a0     LIBCMTD:strftime.obj
 0002:000028ac       ??_C@_09PBIN@Wednesday?$AA@ 100918ac     LIBCMTD:strftime.obj
 0002:000028b8       ??_C@_07BMBC@Tuesday?$AA@  100918b8     LIBCMTD:strftime.obj
 0002:000028c0       ??_C@_06CHLK@Monday?$AA@   100918c0     LIBCMTD:strftime.obj
 0002:000028c8       ??_C@_06OOEM@Sunday?$AA@   100918c8     LIBCMTD:strftime.obj
 0002:000028d0       ??_C@_03MPKK@Sat?$AA@      100918d0     LIBCMTD:strftime.obj
 0002:000028d4       ??_C@_03FINJ@Fri?$AA@      100918d4     LIBCMTD:strftime.obj
 0002:000028d8       ??_C@_03HIKC@Thu?$AA@      100918d8     LIBCMTD:strftime.obj
 0002:000028dc       ??_C@_03HECK@Wed?$AA@      100918dc     LIBCMTD:strftime.obj
 0002:000028e0       ??_C@_03ECCP@Tue?$AA@      100918e0     LIBCMTD:strftime.obj
 0002:000028e4       ??_C@_03PIEP@Mon?$AA@      100918e4     LIBCMTD:strftime.obj
 0002:000028e8       ??_C@_03FHEP@Sun?$AA@      100918e8     LIBCMTD:strftime.obj
 0002:000028ec       ??_C@_03MKGK@a?1p?$AA@     100918ec     LIBCMTD:strftime.obj
 0002:000028f0       ??_C@_05BDJK@am?1pm?$AA@   100918f0     LIBCMTD:strftime.obj
 0002:000028f8       ??_C@_0L@HKCB@inithelp?4c?$AA@ 100918f8     LIBCMTD:inithelp.obj
 0002:00002920       ___dnames                  10091920     LIBCMTD:timeset.obj
 0002:00002938       ___mnames                  10091938     LIBCMTD:timeset.obj
 0002:00002960       ??_C@_07DEKI@tzset?4c?$AA@ 10091960     LIBCMTD:tzset.obj
 0002:00002968       ??_C@_02JHIA@TZ?$AA@       10091968     LIBCMTD:tzset.obj
 0002:0000298c       ??_C@_0L@EJNO@wtombenv?4c?$AA@ 1009198c     LIBCMTD:wtombenv.obj
 0002:00002998       ??_C@_07FOIK@a_cmp?4c?$AA@ 10091998     LIBCMTD:a_cmp.obj
 0002:000029a0       ??_C@_0DN@PPKB@cchCount1?$DN?$DN0?5?$CG?$CG?5cchCount2?$DN?$DN1?5?$HM?$HM?5@ 100919a0     LIBCMTD:a_cmp.obj
 0002:000029f8       ??_C@_08FEIK@setenv?4c?$AA@ 100919f8     LIBCMTD:setenv.obj
 0002:00002a08       ??_7ifstream@@6B@          10091a08     libcid:ifstream.obj
 0002:00002a0c       ??_C@_0N@GFBA@ifstream?4cpp?$AA@ 10091a0c     libcid:ifstream.obj
 0002:00002a1c       ??_8ifstream@@7B@          10091a1c     libcid:ifstream.obj
 0002:00002a24       ?basefield@ios@@2JB        10091a24     libcid:_ios.obj
 0002:00002a28       ?adjustfield@ios@@2JB      10091a28     libcid:_ios.obj
 0002:00002a2c       ?floatfield@ios@@2JB       10091a2c     libcid:_ios.obj
 0002:00002a34       ??_7ios@@6B@               10091a34     libcid:_ios.obj
 0002:00002a38       ??_C@_08EOMJ@_ios?4cpp?$AA@ 10091a38     libcid:_ios.obj
 0002:00002a48       ??_7istream@@6B@           10091a48     libcid:istream.obj
 0002:00002a4c       ??_8istream@@7B@           10091a4c     libcid:istream.obj
 0002:00002a58       ??_7istream_withassign@@6B@ 10091a58     libcid:istream.obj
 0002:00002a5c       ??_8istream_withassign@@7B@ 10091a5c     libcid:istream.obj
 0002:00002a68       ??_7fstream@@6B@           10091a68     libcid:fstream.obj
 0002:00002a6c       ??_C@_0M@KAFM@fstream?4cpp?$AA@ 10091a6c     libcid:fstream.obj
 0002:00002a78       ??_8fstream@@7Bostream@@@  10091a78     libcid:fstream.obj
 0002:00002a80       ??_8fstream@@7Bistream@@@  10091a80     libcid:fstream.obj
 0002:00002a8c       ??_7ostream@@6B@           10091a8c     libcid:ostream.obj
 0002:00002a90       ??_8ostream@@7B@           10091a90     libcid:ostream.obj
 0002:00002a9c       ??_7ostream_withassign@@6B@ 10091a9c     libcid:ostream.obj
 0002:00002aa0       ??_8ostream_withassign@@7B@ 10091aa0     libcid:ostream.obj
 0002:00002aa8       ?openprot@filebuf@@2HB     10091aa8     libcid:filebuf.obj
 0002:00002aac       ?sh_none@filebuf@@2HB      10091aac     libcid:filebuf.obj
 0002:00002ab0       ?sh_read@filebuf@@2HB      10091ab0     libcid:filebuf.obj
 0002:00002ab4       ?sh_write@filebuf@@2HB     10091ab4     libcid:filebuf.obj
 0002:00002ab8       ?binary@filebuf@@2HB       10091ab8     libcid:filebuf.obj
 0002:00002abc       ?text@filebuf@@2HB         10091abc     libcid:filebuf.obj
 0002:00002ac4       ??_7filebuf@@6B@           10091ac4     libcid:filebuf.obj
 0002:00002af4       ??_7ofstream@@6B@          10091af4     libcid:ofstream.obj
 0002:00002af8       ??_C@_0N@JGP@ofstream?4cpp?$AA@ 10091af8     libcid:ofstream.obj
 0002:00002b08       ??_8ofstream@@7B@          10091b08     libcid:ofstream.obj
 0002:00002b10       ??_C@_0N@INO@filebuf1?4cpp?$AA@ 10091b10     libcid:filebuf1.obj
 0002:00002b24       ??_7iostream@@6B@          10091b24     libcid:_iostrea.obj
 0002:00002b28       ??_8iostream@@7Bostream@@@ 10091b28     libcid:_iostrea.obj
 0002:00002b30       ??_8iostream@@7Bistream@@@ 10091b30     libcid:_iostrea.obj
 0002:00002b3c       ??_7streambuf@@6B@         10091b3c     libcid:streamb.obj
 0002:00002b68       ??_C@_0M@DAMI@streamb?4cpp?$AA@ 10091b68     libcid:streamb.obj
 0002:00002b74       ??_C@_0BA@HHMB@string?5too?5long?$AA@ 10091b74     libcpd:string.obj
 0002:00002b88       ??_7logic_error@std@@6B@   10091b88     libcpd:string.obj
 0002:00002b98       ??_7length_error@std@@6B@  10091b98     libcpd:string.obj
 0002:00002ba4       ??_C@_0BI@EEBE@invalid?5string?5position?$AA@ 10091ba4     libcpd:string.obj
 0002:00002bc0       ??_7out_of_range@std@@6B@  10091bc0     libcpd:string.obj
 0002:00002bd0       _deflate_copyright         10091bd0     zlib:deflate.obj
 0002:00003310       __dist_code                10092310     zlib:trees.obj
 0002:00003510       __length_code              10092510     zlib:trees.obj
 0002:000036fc       _inflate_copyright         100926fc     zlib:inftrees.obj
 0002:00004578       ??_R1A@?0A@A@exception@@8  10093578     LIBCMTD:stdexcpt.obj
 0002:00004590       ??_R2exception@@8          10093590     LIBCMTD:stdexcpt.obj
 0002:00004598       ??_R3exception@@8          10093598     LIBCMTD:stdexcpt.obj
 0002:000045a8       ??_R4exception@@6B@        100935a8     LIBCMTD:stdexcpt.obj
 0002:000045c0       ??_R1A@?0A@A@type_info@@8  100935c0     LIBCMTD:typinfo.obj
 0002:000045d8       ??_R2type_info@@8          100935d8     LIBCMTD:typinfo.obj
 0002:000045e0       ??_R3type_info@@8          100935e0     LIBCMTD:typinfo.obj
 0002:000045f0       ??_R4type_info@@6B@        100935f0     LIBCMTD:typinfo.obj
 0002:00004608       ??_R1A@A@3BA@ios@@8        10093608     libcid:ifstream.obj
 0002:00004620       ??_R1A@?0A@A@istream@@8    10093620     libcid:ifstream.obj
 0002:00004638       ??_R1A@?0A@A@ifstream@@8   10093638     libcid:ifstream.obj
 0002:00004650       ??_R2ifstream@@8           10093650     libcid:ifstream.obj
 0002:00004660       ??_R3ifstream@@8           10093660     libcid:ifstream.obj
 0002:00004670       ??_R4ifstream@@6B@         10093670     libcid:ifstream.obj
 0002:00004688       ??_R1A@?0A@A@ios@@8        10093688     libcid:_ios.obj
 0002:000046a0       ??_R2ios@@8                100936a0     libcid:_ios.obj
 0002:000046a8       ??_R3ios@@8                100936a8     libcid:_ios.obj
 0002:000046b8       ??_R4ios@@6B@              100936b8     libcid:_ios.obj
 0002:000046d0       ??_R2istream@@8            100936d0     libcid:istream.obj
 0002:000046e0       ??_R3istream@@8            100936e0     libcid:istream.obj
 0002:000046f0       ??_R4istream@@6B@          100936f0     libcid:istream.obj
 0002:00004708       ??_R1A@?0A@A@istream_withassign@@8 10093708     libcid:istream.obj
 0002:00004720       ??_R2istream_withassign@@8 10093720     libcid:istream.obj
 0002:00004730       ??_R3istream_withassign@@8 10093730     libcid:istream.obj
 0002:00004740       ??_R4istream_withassign@@6B@ 10093740     libcid:istream.obj
 0002:00004758       ??_R1M@?0A@A@ostream@@8    10093758     libcid:fstream.obj
 0002:00004770       ??_R1A@?0A@A@iostream@@8   10093770     libcid:fstream.obj
 0002:00004788       ??_R1A@?0A@A@fstream@@8    10093788     libcid:fstream.obj
 0002:000047a0       ??_R2fstream@@8            100937a0     libcid:fstream.obj
 0002:000047c0       ??_R3fstream@@8            100937c0     libcid:fstream.obj
 0002:000047d0       ??_R4fstream@@6B@          100937d0     libcid:fstream.obj
 0002:000047e8       ??_R1A@?0A@A@ostream@@8    100937e8     libcid:ostream.obj
 0002:00004800       ??_R2ostream@@8            10093800     libcid:ostream.obj
 0002:00004810       ??_R3ostream@@8            10093810     libcid:ostream.obj
 0002:00004820       ??_R4ostream@@6B@          10093820     libcid:ostream.obj
 0002:00004838       ??_R1A@?0A@A@ostream_withassign@@8 10093838     libcid:ostream.obj
 0002:00004850       ??_R2ostream_withassign@@8 10093850     libcid:ostream.obj
 0002:00004860       ??_R3ostream_withassign@@8 10093860     libcid:ostream.obj
 0002:00004870       ??_R4ostream_withassign@@6B@ 10093870     libcid:ostream.obj
 0002:00004888       ??_R1A@?0A@A@streambuf@@8  10093888     libcid:filebuf.obj
 0002:000048a0       ??_R1A@?0A@A@filebuf@@8    100938a0     libcid:filebuf.obj
 0002:000048b8       ??_R2filebuf@@8            100938b8     libcid:filebuf.obj
 0002:000048c8       ??_R3filebuf@@8            100938c8     libcid:filebuf.obj
 0002:000048d8       ??_R4filebuf@@6B@          100938d8     libcid:filebuf.obj
 0002:000048f0       ??_R1A@?0A@A@ofstream@@8   100938f0     libcid:ofstream.obj
 0002:00004908       ??_R2ofstream@@8           10093908     libcid:ofstream.obj
 0002:00004918       ??_R3ofstream@@8           10093918     libcid:ofstream.obj
 0002:00004928       ??_R4ofstream@@6B@         10093928     libcid:ofstream.obj
 0002:00004940       ??_R2iostream@@8           10093940     libcid:_iostrea.obj
 0002:00004958       ??_R3iostream@@8           10093958     libcid:_iostrea.obj
 0002:00004968       ??_R4iostream@@6B@         10093968     libcid:_iostrea.obj
 0002:0000497c       ??_R2streambuf@@8          1009397c     libcid:streamb.obj
 0002:00004988       ??_R3streambuf@@8          10093988     libcid:streamb.obj
 0002:00004998       ??_R4streambuf@@6B@        10093998     libcid:streamb.obj
 0002:000049b0       ??_R1A@?0A@A@logic_error@std@@8 100939b0     libcpd:string.obj
 0002:000049c8       ??_R2logic_error@std@@8    100939c8     libcpd:string.obj
 0002:000049d8       ??_R3logic_error@std@@8    100939d8     libcpd:string.obj
 0002:000049e8       ??_R4logic_error@std@@6B@  100939e8     libcpd:string.obj
 0002:00004a00       ??_R1A@?0A@A@length_error@std@@8 10093a00     libcpd:string.obj
 0002:00004a18       ??_R2length_error@std@@8   10093a18     libcpd:string.obj
 0002:00004a28       ??_R3length_error@std@@8   10093a28     libcpd:string.obj
 0002:00004a38       ??_R4length_error@std@@6B@ 10093a38     libcpd:string.obj
 0002:00004a50       ??_R1A@?0A@A@out_of_range@std@@8 10093a50     libcpd:string.obj
 0002:00004a68       ??_R2out_of_range@std@@8   10093a68     libcpd:string.obj
 0002:00004a78       ??_R3out_of_range@std@@8   10093a78     libcpd:string.obj
 0002:00004a88       ??_R4out_of_range@std@@6B@ 10093a88     libcpd:string.obj
 0002:00004de0       __CT??_R0?AVexception@@@8??0exception@@QAE@ABV0@@Z12 10093de0     id3libD:frame.obj
 0002:00004e00       __CT??_R0?AVlogic_error@std@@@8??0logic_error@std@@QAE@ABV01@@Z28 10093e00     id3libD:frame.obj
 0002:00004e20       __CT??_R0?AVout_of_range@std@@@8??0out_of_range@std@@QAE@ABV01@@Z28 10093e20     id3libD:frame.obj
 0002:00004e40       __CTA3?AVout_of_range@std@@ 10093e40     id3libD:frame.obj
 0002:00004e50       __TI3?AVout_of_range@std@@ 10093e50     id3libD:frame.obj
 0002:00004eb0       __CTA2?AVlogic_error@std@@ 10093eb0     id3libD:frame.obj
 0002:00004ec0       __TI2?AVlogic_error@std@@  10093ec0     id3libD:frame.obj
 0002:00006d38       __CT??_R0?AVlength_error@std@@@8??0length_error@std@@QAE@ABV01@@Z28 10095d38     libcpd:string.obj
 0002:00006d58       __CTA3?AVlength_error@std@@ 10095d58     libcpd:string.obj
 0002:00006d68       __TI3?AVlength_error@std@@ 10095d68     libcpd:string.obj
 0003:00000000       ___xc_a                    10097000     LIBCMTD:crt0init.obj
 0003:00000280       ___xc_z                    10097280     LIBCMTD:crt0init.obj
 0003:00000384       ___xi_a                    10097384     LIBCMTD:crt0init.obj
 0003:0000069c       ___xi_z                    1009769c     LIBCMTD:crt0init.obj
 0003:000007a0       ___xp_a                    100977a0     LIBCMTD:crt0init.obj
 0003:000009b0       ___xp_z                    100979b0     LIBCMTD:crt0init.obj
 0003:00000ab4       ___xt_a                    10097ab4     LIBCMTD:crt0init.obj
 0003:00000cbc       ___xt_z                    10097cbc     LIBCMTD:crt0init.obj
 0003:00000dc0       ??_R0?AVexception@@@8      10097dc0     id3libD:frame.obj
 0003:00000dd8       ??_R0?AVlogic_error@std@@@8 10097dd8     id3libD:frame.obj
 0003:00000df8       ??_R0?AVout_of_range@std@@@8 10097df8     id3libD:frame.obj
 0003:00000e50       ?DEFAULT@ID3_FieldDef@@2PBU1@B 10097e50     id3libD:field.obj
 0003:00001d08       __NLG_Destination          10098d08     LIBCMTD:exsup.obj
 0003:00001d20       __aexit_rtn                10098d20     LIBCMTD:dllcrt0.obj
 0003:00001d28       ??_R0?AVtype_info@@@8      10098d28     LIBCMTD:typinfo.obj
 0003:00001d40       ?__pMyUnhandledExceptionFilter@@3PAXA 10098d40     LIBCMTD:throw.obj
 0003:00001d60       ___tlsindex                10098d60     LIBCMTD:tidtable.obj
 0003:00001d64       ?__pInconsistency@@3P6AXXZA 10098d64     LIBCMTD:hooks.obj
 0003:00001d68       __crtAssertBusy            10098d68     LIBCMTD:dbgrpt.obj
 0003:00001d6c       __CrtDbgMode               10098d6c     LIBCMTD:dbgrpt.obj
 0003:00001d78       __CrtDbgFile               10098d78     LIBCMTD:dbgrpt.obj
 0003:00001d90       __locktable                10098d90     LIBCMTD:mlock.obj
 0003:00001e50       __crtDbgFlag               10098e50     LIBCMTD:dbgheap.obj
 0003:00001e58       __crtBreakAlloc            10098e58     LIBCMTD:dbgheap.obj
 0003:00001e74       __pctype                   10098e74     LIBCMTD:ctype.obj
 0003:00001e78       __pwctype                  10098e78     LIBCMTD:ctype.obj
 0003:00001e7c       __ctype                    10098e7c     LIBCMTD:ctype.obj
 0003:00002080       ___mb_cur_max              10099080     LIBCMTD:nlsdata1.obj
 0003:00002084       ___decimal_point           10099084     LIBCMTD:nlsdata1.obj
 0003:00002088       ___decimal_point_length    10099088     LIBCMTD:nlsdata1.obj
 0003:00002090       ___badioinfo               10099090     LIBCMTD:ioinit.obj
 0003:000020b4       __amblksiz                 100990b4     LIBCMTD:heapinit.obj
 0003:00002148       __iob                      10099148     LIBCMTD:_file.obj
 0003:00002530       __tmpoff                   10099530     LIBCMTD:rmtmp.obj
 0003:00002534       __tempoff                  10099534     LIBCMTD:rmtmp.obj
 0003:00002538       __XcptActTab               10099538     LIBCMTD:winxfltr.obj
 0003:000025b0       __First_FPE_Indx           100995b0     LIBCMTD:winxfltr.obj
 0003:000025b4       __Num_FPE                  100995b4     LIBCMTD:winxfltr.obj
 0003:000025b8       __XcptActTabSize           100995b8     LIBCMTD:winxfltr.obj
 0003:000025bc       __XcptActTabCount          100995bc     LIBCMTD:winxfltr.obj
 0003:000025c0       __pfnAllocHook             100995c0     LIBCMTD:dbghook.obj
 0003:000025c8       ___old_small_block_heap    100995c8     LIBCMTD:sbheap.obj
 0003:000045ec       ___old_sbh_threshold       1009b5ec     LIBCMTD:sbheap.obj
 0003:000046f0       ___nullstring              1009b6f0     LIBCMTD:output.obj
 0003:000046f4       ___wnullstring             1009b6f4     LIBCMTD:output.obj
 0003:00004808       ___lc_category             1009b808     LIBCMTD:setlocal.obj
 0003:00004850       __cfltcvt_tab              1009b850     LIBCMTD:cmiscdat.obj
 0003:00004870       ___rgLocInfo               1009b870     LIBCMTD:getqloc.obj
 0003:00004d14       ___rglangidNotDefault      1009bd14     LIBCMTD:getqloc.obj
 0003:00004d28       ___rg_country              1009bd28     LIBCMTD:getqloc.obj
 0003:00004de0       ___rg_language             1009bde0     LIBCMTD:getqloc.obj
 0003:00004fe8       ___lc_time_curr            1009bfe8     LIBCMTD:strftime.obj
 0003:00004ff0       ___lc_time_c               1009bff0     LIBCMTD:strftime.obj
 0003:000050a0       ___lconv_static_decimal    1009c0a0     LIBCMTD:lconv.obj
 0003:000050a8       ___lconv_c                 1009c0a8     LIBCMTD:lconv.obj
 0003:000050d8       ___lconv                   1009c0d8     LIBCMTD:lconv.obj
 0003:000050e0       __timezone                 1009c0e0     LIBCMTD:timeset.obj
 0003:000050e4       __daylight                 1009c0e4     LIBCMTD:timeset.obj
 0003:000050e8       __dstbias                  1009c0e8     LIBCMTD:timeset.obj
 0003:0000516c       __tzname                   1009c16c     LIBCMTD:timeset.obj
 0003:00005194       __lpdays                   1009c194     LIBCMTD:days.obj
 0003:000051c8       __days                     1009c1c8     LIBCMTD:days.obj
 0003:00005200       ??_R0?AVios@@@8            1009c200     libcid:ifstream.obj
 0003:00005218       ??_R0?AVistream@@@8        1009c218     libcid:ifstream.obj
 0003:00005230       ??_R0?AVifstream@@@8       1009c230     libcid:ifstream.obj
 0003:00005248       ?x_maxbit@ios@@0JA         1009c248     libcid:_ios.obj
 0003:0000524c       ?x_curindex@ios@@0HA       1009c24c     libcid:_ios.obj
 0003:00005250       ??_R0?AVistream_withassign@@@8 1009c250     libcid:istream.obj
 0003:00005278       ??_R0?AVostream@@@8        1009c278     libcid:fstream.obj
 0003:00005290       ??_R0?AViostream@@@8       1009c290     libcid:fstream.obj
 0003:000052a8       ??_R0?AVfstream@@@8        1009c2a8     libcid:fstream.obj
 0003:000052c0       ??_R0?AVostream_withassign@@@8 1009c2c0     libcid:ostream.obj
 0003:000052e8       ??_R0?AVstreambuf@@@8      1009c2e8     libcid:filebuf.obj
 0003:00005300       ??_R0?AVfilebuf@@@8        1009c300     libcid:filebuf.obj
 0003:00005318       ??_R0?AVofstream@@@8       1009c318     libcid:ofstream.obj
 0003:00005330       ??_R0?AVlength_error@std@@@8 1009c330     libcpd:string.obj
 0003:00005458       _z_errmsg                  1009c458     zlib:zutil.obj
 0003:00006778       _inflate_mask              1009d778     zlib:infutil.obj
 0003:00007b00       ?tRenderer@@3PAVTagRenderer@@A 1009eb00     tagWriter.obj
 0003:00007b08       __aenvptr                  1009eb08     LIBCMTD:dllcrt0.obj
 0003:00007b0c       __wenvptr                  1009eb0c     LIBCMTD:dllcrt0.obj
 0003:00007b10       ___error_mode              1009eb10     LIBCMTD:dllcrt0.obj
 0003:00007b14       ___app_type                1009eb14     LIBCMTD:dllcrt0.obj
 0003:00007bb4       __umaskval                 1009ebb4     LIBCMTD:crt0dat.obj
 0003:00007bb8       __osver                    1009ebb8     LIBCMTD:crt0dat.obj
 0003:00007bbc       __winver                   1009ebbc     LIBCMTD:crt0dat.obj
 0003:00007bc0       __winmajor                 1009ebc0     LIBCMTD:crt0dat.obj
 0003:00007bc4       __winminor                 1009ebc4     LIBCMTD:crt0dat.obj
 0003:00007bc8       ___argc                    1009ebc8     LIBCMTD:crt0dat.obj
 0003:00007bcc       ___argv                    1009ebcc     LIBCMTD:crt0dat.obj
 0003:00007bd0       ___wargv                   1009ebd0     LIBCMTD:crt0dat.obj
 0003:00007bd4       __environ                  1009ebd4     LIBCMTD:crt0dat.obj
 0003:00007bd8       ___initenv                 1009ebd8     LIBCMTD:crt0dat.obj
 0003:00007bdc       __wenviron                 1009ebdc     LIBCMTD:crt0dat.obj
 0003:00007be0       ___winitenv                1009ebe0     LIBCMTD:crt0dat.obj
 0003:00007be4       __pgmptr                   1009ebe4     LIBCMTD:crt0dat.obj
 0003:00007be8       __wpgmptr                  1009ebe8     LIBCMTD:crt0dat.obj
 0003:00007bec       __exitflag                 1009ebec     LIBCMTD:crt0dat.obj
 0003:00007bf0       __C_Termination_Done       1009ebf0     LIBCMTD:crt0dat.obj
 0003:00007bf4       __C_Exit_Done              1009ebf4     LIBCMTD:crt0dat.obj
 0003:00007d04       __adbgmsg                  1009ed04     LIBCMTD:crt0msg.obj
 0003:00007d0c       __cflush                   1009ed0c     LIBCMTD:_file.obj
 0003:00007d10       __commode                  1009ed10     LIBCMTD:ncommode.obj
 0003:00007d14       __old_pfxlen               1009ed14     LIBCMTD:rmtmp.obj
 0003:00007d38       __newmode                  1009ed38     LIBCMTD:_newmode.obj
 0003:00007d3c       ?_pnhHeap@@3P6AHI@ZA       1009ed3c     LIBCMTD:handler.obj
 0003:00007d4c       __fmode                    1009ed4c     LIBCMTD:txtmode.obj
 0003:00007d50       ___lc_handle               1009ed50     LIBCMTD:nlsdata2.obj
 0003:00007d68       ___lc_codepage             1009ed68     LIBCMTD:nlsdata2.obj
 0003:00007d6c       ___lc_collate_cp           1009ed6c     LIBCMTD:nlsdata2.obj
 0003:00007d80       ___lc_time_intl            1009ed80     LIBCMTD:inittime.obj
 0003:00007d9c       ___lc_id                   1009ed9c     LIBCMTD:nlsdata3.obj
 0003:00007dec       ___lconv_static_null       1009edec     LIBCMTD:lconv.obj
 0003:00007ec0       ?x_statebuf@ios@@0PAJA     1009eec0     libcid:_ios.obj
 0003:00007ec9       ??_B?1???id@?$ctype@G@std@@$D@@9@51 1009eec9     <common>
 0003:00007ed4       ___alternate_form          1009eed4     <common>
 0003:00007ee4       ___no_lead_zeros           1009eee4     <common>
 0003:00007ee8       ___setlc_active            1009eee8     <common>
 0003:00007ef8       ___unguarded_readlc_active 1009eef8     <common>
 0003:00007efc       ___mbcodepage              1009eefc     <common>
 0003:00007f80       ___mbulinfo                1009ef80     <common>
 0003:00007f8c       ___ismbcodepage            1009ef8c     <common>
 0003:00007fa0       __mbcasemap                1009efa0     <common>
 0003:000080a0       __mbctype                  1009f0a0     <common>
 0003:000081a4       ___mblcid                  1009f1a4     <common>
 0003:000081a8       ___sbh_sizeHeaderList      1009f1a8     <common>
 0003:000081bc       ___sbh_indGroupDefer       1009f1bc     <common>
 0003:000081c0       ___sbh_pHeaderScan         1009f1c0     <common>
 0003:000081c4       ___sbh_initialized         1009f1c4     <common>
 0003:000081c8       ___sbh_pHeaderDefer        1009f1c8     <common>
 0003:000081cc       ___sbh_cntHeaderList       1009f1cc     <common>
 0003:000081d0       ___sbh_pHeaderList         1009f1d0     <common>
 0003:000081d4       ___sbh_threshold           1009f1d4     <common>
 0003:000081d8       ___piob                    1009f1d8     <common>
 0003:00008520       __bufin                    1009f520     <common>
 0003:00009520       __nstream                  100a0520     <common>
 0003:00009524       __crtheap                  100a0524     <common>
 0003:00009534       ___active_heap             100a0534     <common>
 0003:00009540       ___pioinfo                 100a0540     <common>
 0003:0000967c       __nhandle                  100a067c     <common>
 0003:00009680       ___env_initialized         100a0680     <common>
 0003:00009690       ___mbctype_initialized     100a0690     <common>
 0003:00009694       ___onexitend               100a0694     <common>
 0003:00009698       ___onexitbegin             100a0698     <common>
 0003:0000969c       __FPinit                   100a069c     <common>
 0003:000096a0       __pfnDumpClient            100a06a0     <common>
 0003:000096ac       __pfnReportHook            100a06ac     <common>
 0003:000096b8       __acmdln                   100a06b8     <common>
 0003:000096c8       __pRawDllMain              100a06c8     <common>
 0003:000096cc       ??_B?1???id@?$collate@D@std@@$D@@9@51 100a06cc     <common>
 0004:00000000       __IMPORT_DESCRIPTOR_KERNEL32 100a1000     kernel32:KERNEL32.dll
 0004:00000014       __NULL_IMPORT_DESCRIPTOR   100a1014     kernel32:KERNEL32.dll
 0004:000001dc       __imp__CloseHandle@4       100a11dc     kernel32:KERNEL32.dll
 0004:000001e0       __imp__SetEndOfFile@4      100a11e0     kernel32:KERNEL32.dll
 0004:000001e4       __imp__SetFilePointer@16   100a11e4     kernel32:KERNEL32.dll
 0004:000001e8       __imp__CreateFileA@28      100a11e8     kernel32:KERNEL32.dll
 0004:000001ec       __imp__RtlUnwind@16        100a11ec     kernel32:KERNEL32.dll
 0004:000001f0       __imp__GetCommandLineA@0   100a11f0     kernel32:KERNEL32.dll
 0004:000001f4       __imp__GetVersion@0        100a11f4     kernel32:KERNEL32.dll
 0004:000001f8       __imp__RaiseException@16   100a11f8     kernel32:KERNEL32.dll
 0004:000001fc       __imp__GetCurrentThreadId@0 100a11fc     kernel32:KERNEL32.dll
 0004:00000200       __imp__TlsSetValue@8       100a1200     kernel32:KERNEL32.dll
 0004:00000204       __imp__TlsAlloc@0          100a1204     kernel32:KERNEL32.dll
 0004:00000208       __imp__TlsFree@4           100a1208     kernel32:KERNEL32.dll
 0004:0000020c       __imp__SetLastError@4      100a120c     kernel32:KERNEL32.dll
 0004:00000210       __imp__TlsGetValue@4       100a1210     kernel32:KERNEL32.dll
 0004:00000214       __imp__GetLastError@0      100a1214     kernel32:KERNEL32.dll
 0004:00000218       __imp__GetCurrentThread@0  100a1218     kernel32:KERNEL32.dll
 0004:0000021c       __imp__DebugBreak@0        100a121c     kernel32:KERNEL32.dll
 0004:00000220       __imp__GetStdHandle@4      100a1220     kernel32:KERNEL32.dll
 0004:00000224       __imp__WriteFile@20        100a1224     kernel32:KERNEL32.dll
 0004:00000228       __imp__InterlockedDecrement@4 100a1228     kernel32:KERNEL32.dll
 0004:0000022c       __imp__OutputDebugStringA@4 100a122c     kernel32:KERNEL32.dll
 0004:00000230       __imp__GetProcAddress@8    100a1230     kernel32:KERNEL32.dll
 0004:00000234       __imp__LoadLibraryA@4      100a1234     kernel32:KERNEL32.dll
 0004:00000238       __imp__InterlockedIncrement@4 100a1238     kernel32:KERNEL32.dll
 0004:0000023c       __imp__GetModuleFileNameA@12 100a123c     kernel32:KERNEL32.dll
 0004:00000240       __imp__InitializeCriticalSection@4 100a1240     kernel32:KERNEL32.dll
 0004:00000244       __imp__DeleteCriticalSection@4 100a1244     kernel32:KERNEL32.dll
 0004:00000248       __imp__EnterCriticalSection@4 100a1248     kernel32:KERNEL32.dll
 0004:0000024c       __imp__LeaveCriticalSection@4 100a124c     kernel32:KERNEL32.dll
 0004:00000250       __imp__ExitProcess@4       100a1250     kernel32:KERNEL32.dll
 0004:00000254       __imp__FatalAppExitA@8     100a1254     kernel32:KERNEL32.dll
 0004:00000258       __imp__IsBadWritePtr@8     100a1258     kernel32:KERNEL32.dll
 0004:0000025c       __imp__IsBadReadPtr@8      100a125c     kernel32:KERNEL32.dll
 0004:00000260       __imp__HeapValidate@12     100a1260     kernel32:KERNEL32.dll
 0004:00000264       __imp__TerminateProcess@8  100a1264     kernel32:KERNEL32.dll
 0004:00000268       __imp__GetCurrentProcess@0 100a1268     kernel32:KERNEL32.dll
 0004:0000026c       __imp__SetHandleCount@4    100a126c     kernel32:KERNEL32.dll
 0004:00000270       __imp__GetFileType@4       100a1270     kernel32:KERNEL32.dll
 0004:00000274       __imp__GetStartupInfoA@4   100a1274     kernel32:KERNEL32.dll
 0004:00000278       __imp__FreeEnvironmentStringsA@4 100a1278     kernel32:KERNEL32.dll
 0004:0000027c       __imp__FreeEnvironmentStringsW@4 100a127c     kernel32:KERNEL32.dll
 0004:00000280       __imp__WideCharToMultiByte@32 100a1280     kernel32:KERNEL32.dll
 0004:00000284       __imp__GetEnvironmentStrings@0 100a1284     kernel32:KERNEL32.dll
 0004:00000288       __imp__GetEnvironmentStringsW@0 100a1288     kernel32:KERNEL32.dll
 0004:0000028c       __imp__GetModuleHandleA@4  100a128c     kernel32:KERNEL32.dll
 0004:00000290       __imp__GetEnvironmentVariableA@12 100a1290     kernel32:KERNEL32.dll
 0004:00000294       __imp__GetVersionExA@4     100a1294     kernel32:KERNEL32.dll
 0004:00000298       __imp__HeapDestroy@4       100a1298     kernel32:KERNEL32.dll
 0004:0000029c       __imp__HeapCreate@12       100a129c     kernel32:KERNEL32.dll
 0004:000002a0       __imp__HeapFree@12         100a12a0     kernel32:KERNEL32.dll
 0004:000002a4       __imp__VirtualFree@12      100a12a4     kernel32:KERNEL32.dll
 0004:000002a8       __imp__SetUnhandledExceptionFilter@4 100a12a8     kernel32:KERNEL32.dll
 0004:000002ac       __imp__ReadFile@20         100a12ac     kernel32:KERNEL32.dll
 0004:000002b0       __imp__GetFileAttributesA@4 100a12b0     kernel32:KERNEL32.dll
 0004:000002b4       __imp__GetCurrentProcessId@0 100a12b4     kernel32:KERNEL32.dll
 0004:000002b8       __imp__IsBadCodePtr@4      100a12b8     kernel32:KERNEL32.dll
 0004:000002bc       __imp__UnhandledExceptionFilter@4 100a12bc     kernel32:KERNEL32.dll
 0004:000002c0       __imp__SetConsoleCtrlHandler@8 100a12c0     kernel32:KERNEL32.dll
 0004:000002c4       __imp__HeapAlloc@12        100a12c4     kernel32:KERNEL32.dll
 0004:000002c8       __imp__HeapReAlloc@16      100a12c8     kernel32:KERNEL32.dll
 0004:000002cc       __imp__VirtualAlloc@16     100a12cc     kernel32:KERNEL32.dll
 0004:000002d0       __imp__MultiByteToWideChar@24 100a12d0     kernel32:KERNEL32.dll
 0004:000002d4       __imp__GetStringTypeA@20   100a12d4     kernel32:KERNEL32.dll
 0004:000002d8       __imp__GetStringTypeW@16   100a12d8     kernel32:KERNEL32.dll
 0004:000002dc       __imp__GetCPInfo@8         100a12dc     kernel32:KERNEL32.dll
 0004:000002e0       __imp__GetACP@0            100a12e0     kernel32:KERNEL32.dll
 0004:000002e4       __imp__GetOEMCP@0          100a12e4     kernel32:KERNEL32.dll
 0004:000002e8       __imp__SetStdHandle@8      100a12e8     kernel32:KERNEL32.dll
 0004:000002ec       __imp__FlushFileBuffers@4  100a12ec     kernel32:KERNEL32.dll
 0004:000002f0       __imp__LCMapStringA@24     100a12f0     kernel32:KERNEL32.dll
 0004:000002f4       __imp__LCMapStringW@24     100a12f4     kernel32:KERNEL32.dll
 0004:000002f8       __imp__Sleep@4             100a12f8     kernel32:KERNEL32.dll
 0004:000002fc       __imp__IsValidLocale@8     100a12fc     kernel32:KERNEL32.dll
 0004:00000300       __imp__IsValidCodePage@4   100a1300     kernel32:KERNEL32.dll
 0004:00000304       __imp__GetLocaleInfoA@16   100a1304     kernel32:KERNEL32.dll
 0004:00000308       __imp__EnumSystemLocalesA@8 100a1308     kernel32:KERNEL32.dll
 0004:0000030c       __imp__GetUserDefaultLCID@0 100a130c     kernel32:KERNEL32.dll
 0004:00000310       __imp__GetTimeZoneInformation@4 100a1310     kernel32:KERNEL32.dll
 0004:00000314       __imp__GetLocaleInfoW@16   100a1314     kernel32:KERNEL32.dll
 0004:00000318       __imp__CompareStringA@24   100a1318     kernel32:KERNEL32.dll
 0004:0000031c       __imp__CompareStringW@24   100a131c     kernel32:KERNEL32.dll
 0004:00000320       __imp__SetEnvironmentVariableA@8 100a1320     kernel32:KERNEL32.dll
 0004:00000324       \177KERNEL32_NULL_THUNK_DATA 100a1324     kernel32:KERNEL32.dll

 entry point at        0001:0001e190

